
hello_world:     file format elf64-littleriscv


Disassembly of section .text:

0000000000010120 <exit>:
   10120:	ff010113          	addi	sp,sp,-16
   10124:	00000593          	li	a1,0
   10128:	00813023          	sd	s0,0(sp)
   1012c:	00113423          	sd	ra,8(sp)
   10130:	00050413          	mv	s0,a0
   10134:	365000ef          	jal	10c98 <__call_exitprocs>
   10138:	2381b783          	ld	a5,568(gp) # 206b0 <__stdio_exit_handler>
   1013c:	00078463          	beqz	a5,10144 <exit+0x24>
   10140:	000780e7          	jalr	a5
   10144:	00040513          	mv	a0,s0
   10148:	7680b0ef          	jal	1b8b0 <_exit>

000000000001014c <register_fini>:
   1014c:	00000793          	li	a5,0
   10150:	00078863          	beqz	a5,10160 <register_fini+0x14>
   10154:	00015537          	lui	a0,0x15
   10158:	6ac50513          	addi	a0,a0,1708 # 156ac <__libc_fini_array>
   1015c:	4750006f          	j	10dd0 <atexit>
   10160:	00008067          	ret

0000000000010164 <_start>:
   10164:	00010197          	auipc	gp,0x10
   10168:	31418193          	addi	gp,gp,788 # 20478 <__global_pointer$>
   1016c:	00010517          	auipc	a0,0x10
   10170:	54450513          	addi	a0,a0,1348 # 206b0 <__stdio_exit_handler>
   10174:	00011617          	auipc	a2,0x11
   10178:	b0460613          	addi	a2,a2,-1276 # 20c78 <__BSS_END__>
   1017c:	40a60633          	sub	a2,a2,a0
   10180:	00000593          	li	a1,0
   10184:	239000ef          	jal	10bbc <memset>
   10188:	00001517          	auipc	a0,0x1
   1018c:	c4850513          	addi	a0,a0,-952 # 10dd0 <atexit>
   10190:	00050863          	beqz	a0,101a0 <_start+0x3c>
   10194:	00005517          	auipc	a0,0x5
   10198:	51850513          	addi	a0,a0,1304 # 156ac <__libc_fini_array>
   1019c:	435000ef          	jal	10dd0 <atexit>
   101a0:	189000ef          	jal	10b28 <__libc_init_array>
   101a4:	00012503          	lw	a0,0(sp)
   101a8:	00810593          	addi	a1,sp,8
   101ac:	00000613          	li	a2,0
   101b0:	06c000ef          	jal	1021c <main>
   101b4:	f6dff06f          	j	10120 <exit>

00000000000101b8 <__do_global_dtors_aux>:
   101b8:	ff010113          	addi	sp,sp,-16
   101bc:	00813023          	sd	s0,0(sp)
   101c0:	2781c783          	lbu	a5,632(gp) # 206f0 <completed.1>
   101c4:	00113423          	sd	ra,8(sp)
   101c8:	02079263          	bnez	a5,101ec <__do_global_dtors_aux+0x34>
   101cc:	00000793          	li	a5,0
   101d0:	00078a63          	beqz	a5,101e4 <__do_global_dtors_aux+0x2c>
   101d4:	0001f537          	lui	a0,0x1f
   101d8:	ae050513          	addi	a0,a0,-1312 # 1eae0 <__EH_FRAME_BEGIN__>
   101dc:	00000097          	auipc	ra,0x0
   101e0:	000000e7          	jalr	zero # 0 <exit-0x10120>
   101e4:	00100793          	li	a5,1
   101e8:	26f18c23          	sb	a5,632(gp) # 206f0 <completed.1>
   101ec:	00813083          	ld	ra,8(sp)
   101f0:	00013403          	ld	s0,0(sp)
   101f4:	01010113          	addi	sp,sp,16
   101f8:	00008067          	ret

00000000000101fc <frame_dummy>:
   101fc:	00000793          	li	a5,0
   10200:	00078c63          	beqz	a5,10218 <frame_dummy+0x1c>
   10204:	0001f537          	lui	a0,0x1f
   10208:	28018593          	addi	a1,gp,640 # 206f8 <object.0>
   1020c:	ae050513          	addi	a0,a0,-1312 # 1eae0 <__EH_FRAME_BEGIN__>
   10210:	00000317          	auipc	t1,0x0
   10214:	00000067          	jr	zero # 0 <exit-0x10120>
   10218:	00008067          	ret

000000000001021c <main>:
   1021c:	fe010113          	addi	sp,sp,-32
   10220:	00113c23          	sd	ra,24(sp)
   10224:	00813823          	sd	s0,16(sp)
   10228:	02010413          	addi	s0,sp,32
   1022c:	00300793          	li	a5,3
   10230:	fef42623          	sw	a5,-20(s0)
   10234:	02500793          	li	a5,37
   10238:	fef42423          	sw	a5,-24(s0)
   1023c:	fec42783          	lw	a5,-20(s0)
   10240:	00078713          	mv	a4,a5
   10244:	fe842783          	lw	a5,-24(s0)
   10248:	00f707bb          	addw	a5,a4,a5
   1024c:	fef42223          	sw	a5,-28(s0)
   10250:	fe442783          	lw	a5,-28(s0)
   10254:	0027879b          	addiw	a5,a5,2
   10258:	fef42223          	sw	a5,-28(s0)
   1025c:	fe442783          	lw	a5,-28(s0)
   10260:	00078593          	mv	a1,a5
   10264:	0001e7b7          	lui	a5,0x1e
   10268:	29078513          	addi	a0,a5,656 # 1e290 <__clzdi2+0x44>
   1026c:	4a0000ef          	jal	1070c <printf>
   10270:	00000793          	li	a5,0
   10274:	00078513          	mv	a0,a5
   10278:	01813083          	ld	ra,24(sp)
   1027c:	01013403          	ld	s0,16(sp)
   10280:	02010113          	addi	sp,sp,32
   10284:	00008067          	ret

0000000000010288 <__fp_lock>:
   10288:	00000513          	li	a0,0
   1028c:	00008067          	ret

0000000000010290 <stdio_exit_handler>:
   10290:	00020637          	lui	a2,0x20
   10294:	000155b7          	lui	a1,0x15
   10298:	00020537          	lui	a0,0x20
   1029c:	b0060613          	addi	a2,a2,-1280 # 1fb00 <__sglue>
   102a0:	a1458593          	addi	a1,a1,-1516 # 14a14 <_fclose_r>
   102a4:	b1850513          	addi	a0,a0,-1256 # 1fb18 <_impure_data>
   102a8:	34c0006f          	j	105f4 <_fwalk_sglue>

00000000000102ac <cleanup_stdio>:
   102ac:	00853583          	ld	a1,8(a0)
   102b0:	ff010113          	addi	sp,sp,-16
   102b4:	00813023          	sd	s0,0(sp)
   102b8:	00113423          	sd	ra,8(sp)
   102bc:	2b018793          	addi	a5,gp,688 # 20728 <__sf>
   102c0:	00050413          	mv	s0,a0
   102c4:	00f58463          	beq	a1,a5,102cc <cleanup_stdio+0x20>
   102c8:	74c040ef          	jal	14a14 <_fclose_r>
   102cc:	01043583          	ld	a1,16(s0)
   102d0:	36018793          	addi	a5,gp,864 # 207d8 <__sf+0xb0>
   102d4:	00f58663          	beq	a1,a5,102e0 <cleanup_stdio+0x34>
   102d8:	00040513          	mv	a0,s0
   102dc:	738040ef          	jal	14a14 <_fclose_r>
   102e0:	01843583          	ld	a1,24(s0)
   102e4:	41018793          	addi	a5,gp,1040 # 20888 <__sf+0x160>
   102e8:	00f58c63          	beq	a1,a5,10300 <cleanup_stdio+0x54>
   102ec:	00040513          	mv	a0,s0
   102f0:	00013403          	ld	s0,0(sp)
   102f4:	00813083          	ld	ra,8(sp)
   102f8:	01010113          	addi	sp,sp,16
   102fc:	7180406f          	j	14a14 <_fclose_r>
   10300:	00813083          	ld	ra,8(sp)
   10304:	00013403          	ld	s0,0(sp)
   10308:	01010113          	addi	sp,sp,16
   1030c:	00008067          	ret

0000000000010310 <__fp_unlock>:
   10310:	00000513          	li	a0,0
   10314:	00008067          	ret

0000000000010318 <global_stdio_init.part.0>:
   10318:	fd010113          	addi	sp,sp,-48
   1031c:	000107b7          	lui	a5,0x10
   10320:	02813023          	sd	s0,32(sp)
   10324:	29078793          	addi	a5,a5,656 # 10290 <stdio_exit_handler>
   10328:	2b018413          	addi	s0,gp,688 # 20728 <__sf>
   1032c:	02113423          	sd	ra,40(sp)
   10330:	00913c23          	sd	s1,24(sp)
   10334:	01213823          	sd	s2,16(sp)
   10338:	01313423          	sd	s3,8(sp)
   1033c:	01413023          	sd	s4,0(sp)
   10340:	22f1bc23          	sd	a5,568(gp) # 206b0 <__stdio_exit_handler>
   10344:	00800613          	li	a2,8
   10348:	00400793          	li	a5,4
   1034c:	00000593          	li	a1,0
   10350:	35418513          	addi	a0,gp,852 # 207cc <__sf+0xa4>
   10354:	00f42823          	sw	a5,16(s0)
   10358:	00043023          	sd	zero,0(s0)
   1035c:	00043423          	sd	zero,8(s0)
   10360:	0a042623          	sw	zero,172(s0)
   10364:	00043c23          	sd	zero,24(s0)
   10368:	02042023          	sw	zero,32(s0)
   1036c:	02042423          	sw	zero,40(s0)
   10370:	04d000ef          	jal	10bbc <memset>
   10374:	00010a37          	lui	s4,0x10
   10378:	000109b7          	lui	s3,0x10
   1037c:	00011937          	lui	s2,0x11
   10380:	000114b7          	lui	s1,0x11
   10384:	000107b7          	lui	a5,0x10
   10388:	758a0a13          	addi	s4,s4,1880 # 10758 <__sread>
   1038c:	7bc98993          	addi	s3,s3,1980 # 107bc <__swrite>
   10390:	84490913          	addi	s2,s2,-1980 # 10844 <__sseek>
   10394:	8a848493          	addi	s1,s1,-1880 # 108a8 <__sclose>
   10398:	00978793          	addi	a5,a5,9 # 10009 <exit-0x117>
   1039c:	00800613          	li	a2,8
   103a0:	00000593          	li	a1,0
   103a4:	40418513          	addi	a0,gp,1028 # 2087c <__sf+0x154>
   103a8:	0cf42023          	sw	a5,192(s0)
   103ac:	03443c23          	sd	s4,56(s0)
   103b0:	05343023          	sd	s3,64(s0)
   103b4:	05243423          	sd	s2,72(s0)
   103b8:	04943823          	sd	s1,80(s0)
   103bc:	02843823          	sd	s0,48(s0)
   103c0:	0a043823          	sd	zero,176(s0)
   103c4:	0a043c23          	sd	zero,184(s0)
   103c8:	14042e23          	sw	zero,348(s0)
   103cc:	0c043423          	sd	zero,200(s0)
   103d0:	0c042823          	sw	zero,208(s0)
   103d4:	0c042c23          	sw	zero,216(s0)
   103d8:	7e4000ef          	jal	10bbc <memset>
   103dc:	000207b7          	lui	a5,0x20
   103e0:	01278793          	addi	a5,a5,18 # 20012 <__malloc_av_+0x3a2>
   103e4:	36018713          	addi	a4,gp,864 # 207d8 <__sf+0xb0>
   103e8:	4b418513          	addi	a0,gp,1204 # 2092c <__sf+0x204>
   103ec:	00800613          	li	a2,8
   103f0:	00000593          	li	a1,0
   103f4:	0f443423          	sd	s4,232(s0)
   103f8:	0f343823          	sd	s3,240(s0)
   103fc:	0f243c23          	sd	s2,248(s0)
   10400:	10943023          	sd	s1,256(s0)
   10404:	16f42823          	sw	a5,368(s0)
   10408:	16043023          	sd	zero,352(s0)
   1040c:	16043423          	sd	zero,360(s0)
   10410:	20042623          	sw	zero,524(s0)
   10414:	16043c23          	sd	zero,376(s0)
   10418:	18042023          	sw	zero,384(s0)
   1041c:	18042423          	sw	zero,392(s0)
   10420:	0ee43023          	sd	a4,224(s0)
   10424:	798000ef          	jal	10bbc <memset>
   10428:	41018793          	addi	a5,gp,1040 # 20888 <__sf+0x160>
   1042c:	19443c23          	sd	s4,408(s0)
   10430:	1b343023          	sd	s3,416(s0)
   10434:	1b243423          	sd	s2,424(s0)
   10438:	1a943823          	sd	s1,432(s0)
   1043c:	02813083          	ld	ra,40(sp)
   10440:	18f43823          	sd	a5,400(s0)
   10444:	02013403          	ld	s0,32(sp)
   10448:	01813483          	ld	s1,24(sp)
   1044c:	01013903          	ld	s2,16(sp)
   10450:	00813983          	ld	s3,8(sp)
   10454:	00013a03          	ld	s4,0(sp)
   10458:	03010113          	addi	sp,sp,48
   1045c:	00008067          	ret

0000000000010460 <__sfp>:
   10460:	2381b783          	ld	a5,568(gp) # 206b0 <__stdio_exit_handler>
   10464:	fd010113          	addi	sp,sp,-48
   10468:	00913c23          	sd	s1,24(sp)
   1046c:	02113423          	sd	ra,40(sp)
   10470:	02813023          	sd	s0,32(sp)
   10474:	00050493          	mv	s1,a0
   10478:	10078463          	beqz	a5,10580 <__sfp+0x120>
   1047c:	000206b7          	lui	a3,0x20
   10480:	b0068693          	addi	a3,a3,-1280 # 1fb00 <__sglue>
   10484:	0086a703          	lw	a4,8(a3)
   10488:	08e05c63          	blez	a4,10520 <__sfp+0xc0>
   1048c:	02071713          	slli	a4,a4,0x20
   10490:	02075713          	srli	a4,a4,0x20
   10494:	00171793          	slli	a5,a4,0x1
   10498:	00e787b3          	add	a5,a5,a4
   1049c:	0106b403          	ld	s0,16(a3)
   104a0:	00279793          	slli	a5,a5,0x2
   104a4:	40e787b3          	sub	a5,a5,a4
   104a8:	00479793          	slli	a5,a5,0x4
   104ac:	00f407b3          	add	a5,s0,a5
   104b0:	00c0006f          	j	104bc <__sfp+0x5c>
   104b4:	0b040413          	addi	s0,s0,176
   104b8:	06f40463          	beq	s0,a5,10520 <__sfp+0xc0>
   104bc:	01041703          	lh	a4,16(s0)
   104c0:	fe071ae3          	bnez	a4,104b4 <__sfp+0x54>
   104c4:	ffff07b7          	lui	a5,0xffff0
   104c8:	00178793          	addi	a5,a5,1 # ffffffffffff0001 <__BSS_END__+0xfffffffffffcf389>
   104cc:	00f42823          	sw	a5,16(s0)
   104d0:	0a042623          	sw	zero,172(s0)
   104d4:	00043023          	sd	zero,0(s0)
   104d8:	00043423          	sd	zero,8(s0)
   104dc:	00043c23          	sd	zero,24(s0)
   104e0:	02042023          	sw	zero,32(s0)
   104e4:	02042423          	sw	zero,40(s0)
   104e8:	00800613          	li	a2,8
   104ec:	00000593          	li	a1,0
   104f0:	0a440513          	addi	a0,s0,164
   104f4:	6c8000ef          	jal	10bbc <memset>
   104f8:	04043c23          	sd	zero,88(s0)
   104fc:	06042023          	sw	zero,96(s0)
   10500:	06043c23          	sd	zero,120(s0)
   10504:	08042023          	sw	zero,128(s0)
   10508:	02813083          	ld	ra,40(sp)
   1050c:	00040513          	mv	a0,s0
   10510:	02013403          	ld	s0,32(sp)
   10514:	01813483          	ld	s1,24(sp)
   10518:	03010113          	addi	sp,sp,48
   1051c:	00008067          	ret
   10520:	0006b403          	ld	s0,0(a3)
   10524:	00040663          	beqz	s0,10530 <__sfp+0xd0>
   10528:	00040693          	mv	a3,s0
   1052c:	f59ff06f          	j	10484 <__sfp+0x24>
   10530:	2d800593          	li	a1,728
   10534:	00048513          	mv	a0,s1
   10538:	00d13423          	sd	a3,8(sp)
   1053c:	4d1000ef          	jal	1120c <_malloc_r>
   10540:	00813683          	ld	a3,8(sp)
   10544:	00050413          	mv	s0,a0
   10548:	04050063          	beqz	a0,10588 <__sfp+0x128>
   1054c:	00400793          	li	a5,4
   10550:	00f52423          	sw	a5,8(a0)
   10554:	01850513          	addi	a0,a0,24
   10558:	00043023          	sd	zero,0(s0)
   1055c:	00a43823          	sd	a0,16(s0)
   10560:	2c000613          	li	a2,704
   10564:	00000593          	li	a1,0
   10568:	00d13423          	sd	a3,8(sp)
   1056c:	650000ef          	jal	10bbc <memset>
   10570:	00813683          	ld	a3,8(sp)
   10574:	0086b023          	sd	s0,0(a3)
   10578:	00040693          	mv	a3,s0
   1057c:	f09ff06f          	j	10484 <__sfp+0x24>
   10580:	d99ff0ef          	jal	10318 <global_stdio_init.part.0>
   10584:	ef9ff06f          	j	1047c <__sfp+0x1c>
   10588:	0006b023          	sd	zero,0(a3)
   1058c:	00c00793          	li	a5,12
   10590:	00f4a023          	sw	a5,0(s1)
   10594:	f75ff06f          	j	10508 <__sfp+0xa8>

0000000000010598 <__sinit>:
   10598:	04853783          	ld	a5,72(a0)
   1059c:	00078463          	beqz	a5,105a4 <__sinit+0xc>
   105a0:	00008067          	ret
   105a4:	000107b7          	lui	a5,0x10
   105a8:	2381b703          	ld	a4,568(gp) # 206b0 <__stdio_exit_handler>
   105ac:	2ac78793          	addi	a5,a5,684 # 102ac <cleanup_stdio>
   105b0:	04f53423          	sd	a5,72(a0)
   105b4:	fe0716e3          	bnez	a4,105a0 <__sinit+0x8>
   105b8:	d61ff06f          	j	10318 <global_stdio_init.part.0>

00000000000105bc <__sfp_lock_acquire>:
   105bc:	00008067          	ret

00000000000105c0 <__sfp_lock_release>:
   105c0:	00008067          	ret

00000000000105c4 <__fp_lock_all>:
   105c4:	00020637          	lui	a2,0x20
   105c8:	000105b7          	lui	a1,0x10
   105cc:	b0060613          	addi	a2,a2,-1280 # 1fb00 <__sglue>
   105d0:	28858593          	addi	a1,a1,648 # 10288 <__fp_lock>
   105d4:	00000513          	li	a0,0
   105d8:	01c0006f          	j	105f4 <_fwalk_sglue>

00000000000105dc <__fp_unlock_all>:
   105dc:	00020637          	lui	a2,0x20
   105e0:	000105b7          	lui	a1,0x10
   105e4:	b0060613          	addi	a2,a2,-1280 # 1fb00 <__sglue>
   105e8:	31058593          	addi	a1,a1,784 # 10310 <__fp_unlock>
   105ec:	00000513          	li	a0,0
   105f0:	0040006f          	j	105f4 <_fwalk_sglue>

00000000000105f4 <_fwalk_sglue>:
   105f4:	fb010113          	addi	sp,sp,-80
   105f8:	03213823          	sd	s2,48(sp)
   105fc:	03313423          	sd	s3,40(sp)
   10600:	03413023          	sd	s4,32(sp)
   10604:	01513c23          	sd	s5,24(sp)
   10608:	01613823          	sd	s6,16(sp)
   1060c:	01713423          	sd	s7,8(sp)
   10610:	04113423          	sd	ra,72(sp)
   10614:	04813023          	sd	s0,64(sp)
   10618:	02913c23          	sd	s1,56(sp)
   1061c:	00060913          	mv	s2,a2
   10620:	00050a13          	mv	s4,a0
   10624:	00058a93          	mv	s5,a1
   10628:	00000b13          	li	s6,0
   1062c:	00100b93          	li	s7,1
   10630:	fff00993          	li	s3,-1
   10634:	00892783          	lw	a5,8(s2)
   10638:	04f05a63          	blez	a5,1068c <_fwalk_sglue+0x98>
   1063c:	02079793          	slli	a5,a5,0x20
   10640:	0207d793          	srli	a5,a5,0x20
   10644:	00179493          	slli	s1,a5,0x1
   10648:	00f484b3          	add	s1,s1,a5
   1064c:	01093403          	ld	s0,16(s2)
   10650:	00249493          	slli	s1,s1,0x2
   10654:	40f484b3          	sub	s1,s1,a5
   10658:	00449493          	slli	s1,s1,0x4
   1065c:	009404b3          	add	s1,s0,s1
   10660:	01045783          	lhu	a5,16(s0)
   10664:	02fbf063          	bgeu	s7,a5,10684 <_fwalk_sglue+0x90>
   10668:	01241783          	lh	a5,18(s0)
   1066c:	00040593          	mv	a1,s0
   10670:	000a0513          	mv	a0,s4
   10674:	01378863          	beq	a5,s3,10684 <_fwalk_sglue+0x90>
   10678:	000a80e7          	jalr	s5
   1067c:	01656b33          	or	s6,a0,s6
   10680:	000b0b1b          	sext.w	s6,s6
   10684:	0b040413          	addi	s0,s0,176
   10688:	fc941ce3          	bne	s0,s1,10660 <_fwalk_sglue+0x6c>
   1068c:	00093903          	ld	s2,0(s2)
   10690:	fa0912e3          	bnez	s2,10634 <_fwalk_sglue+0x40>
   10694:	04813083          	ld	ra,72(sp)
   10698:	04013403          	ld	s0,64(sp)
   1069c:	03813483          	ld	s1,56(sp)
   106a0:	03013903          	ld	s2,48(sp)
   106a4:	02813983          	ld	s3,40(sp)
   106a8:	02013a03          	ld	s4,32(sp)
   106ac:	01813a83          	ld	s5,24(sp)
   106b0:	00813b83          	ld	s7,8(sp)
   106b4:	000b0513          	mv	a0,s6
   106b8:	01013b03          	ld	s6,16(sp)
   106bc:	05010113          	addi	sp,sp,80
   106c0:	00008067          	ret

00000000000106c4 <_printf_r>:
   106c4:	fb010113          	addi	sp,sp,-80
   106c8:	00058e13          	mv	t3,a1
   106cc:	01053583          	ld	a1,16(a0)
   106d0:	02010313          	addi	t1,sp,32
   106d4:	02c13023          	sd	a2,32(sp)
   106d8:	02d13423          	sd	a3,40(sp)
   106dc:	000e0613          	mv	a2,t3
   106e0:	00030693          	mv	a3,t1
   106e4:	00113c23          	sd	ra,24(sp)
   106e8:	02e13823          	sd	a4,48(sp)
   106ec:	02f13c23          	sd	a5,56(sp)
   106f0:	05013023          	sd	a6,64(sp)
   106f4:	05113423          	sd	a7,72(sp)
   106f8:	00613423          	sd	t1,8(sp)
   106fc:	3fc010ef          	jal	11af8 <_vfprintf_r>
   10700:	01813083          	ld	ra,24(sp)
   10704:	05010113          	addi	sp,sp,80
   10708:	00008067          	ret

000000000001070c <printf>:
   1070c:	2201b303          	ld	t1,544(gp) # 20698 <_impure_ptr>
   10710:	fa010113          	addi	sp,sp,-96
   10714:	02c13823          	sd	a2,48(sp)
   10718:	02d13c23          	sd	a3,56(sp)
   1071c:	02b13423          	sd	a1,40(sp)
   10720:	04e13023          	sd	a4,64(sp)
   10724:	04f13423          	sd	a5,72(sp)
   10728:	05013823          	sd	a6,80(sp)
   1072c:	05113c23          	sd	a7,88(sp)
   10730:	01033583          	ld	a1,16(t1) # 10220 <main+0x4>
   10734:	02810693          	addi	a3,sp,40
   10738:	00050613          	mv	a2,a0
   1073c:	00030513          	mv	a0,t1
   10740:	00113c23          	sd	ra,24(sp)
   10744:	00d13423          	sd	a3,8(sp)
   10748:	3b0010ef          	jal	11af8 <_vfprintf_r>
   1074c:	01813083          	ld	ra,24(sp)
   10750:	06010113          	addi	sp,sp,96
   10754:	00008067          	ret

0000000000010758 <__sread>:
   10758:	ff010113          	addi	sp,sp,-16
   1075c:	00813023          	sd	s0,0(sp)
   10760:	00058413          	mv	s0,a1
   10764:	01259583          	lh	a1,18(a1)
   10768:	00113423          	sd	ra,8(sp)
   1076c:	2ec000ef          	jal	10a58 <_read_r>
   10770:	02054063          	bltz	a0,10790 <__sread+0x38>
   10774:	09043783          	ld	a5,144(s0)
   10778:	00813083          	ld	ra,8(sp)
   1077c:	00a787b3          	add	a5,a5,a0
   10780:	08f43823          	sd	a5,144(s0)
   10784:	00013403          	ld	s0,0(sp)
   10788:	01010113          	addi	sp,sp,16
   1078c:	00008067          	ret
   10790:	01045783          	lhu	a5,16(s0)
   10794:	fffff737          	lui	a4,0xfffff
   10798:	fff70713          	addi	a4,a4,-1 # ffffffffffffefff <__BSS_END__+0xfffffffffffde387>
   1079c:	00e7f7b3          	and	a5,a5,a4
   107a0:	00813083          	ld	ra,8(sp)
   107a4:	00f41823          	sh	a5,16(s0)
   107a8:	00013403          	ld	s0,0(sp)
   107ac:	01010113          	addi	sp,sp,16
   107b0:	00008067          	ret

00000000000107b4 <__seofread>:
   107b4:	00000513          	li	a0,0
   107b8:	00008067          	ret

00000000000107bc <__swrite>:
   107bc:	01059783          	lh	a5,16(a1)
   107c0:	fd010113          	addi	sp,sp,-48
   107c4:	00068313          	mv	t1,a3
   107c8:	02113423          	sd	ra,40(sp)
   107cc:	1007f693          	andi	a3,a5,256
   107d0:	00058713          	mv	a4,a1
   107d4:	00060893          	mv	a7,a2
   107d8:	00050813          	mv	a6,a0
   107dc:	02069863          	bnez	a3,1080c <__swrite+0x50>
   107e0:	fffff6b7          	lui	a3,0xfffff
   107e4:	fff68693          	addi	a3,a3,-1 # ffffffffffffefff <__BSS_END__+0xfffffffffffde387>
   107e8:	02813083          	ld	ra,40(sp)
   107ec:	00d7f7b3          	and	a5,a5,a3
   107f0:	01271583          	lh	a1,18(a4)
   107f4:	00f71823          	sh	a5,16(a4)
   107f8:	00030693          	mv	a3,t1
   107fc:	00088613          	mv	a2,a7
   10800:	00080513          	mv	a0,a6
   10804:	03010113          	addi	sp,sp,48
   10808:	2b80006f          	j	10ac0 <_write_r>
   1080c:	01259583          	lh	a1,18(a1)
   10810:	00c13823          	sd	a2,16(sp)
   10814:	00200693          	li	a3,2
   10818:	00000613          	li	a2,0
   1081c:	00613c23          	sd	t1,24(sp)
   10820:	00e13023          	sd	a4,0(sp)
   10824:	00a13423          	sd	a0,8(sp)
   10828:	1c8000ef          	jal	109f0 <_lseek_r>
   1082c:	00013703          	ld	a4,0(sp)
   10830:	01813303          	ld	t1,24(sp)
   10834:	01013883          	ld	a7,16(sp)
   10838:	01071783          	lh	a5,16(a4)
   1083c:	00813803          	ld	a6,8(sp)
   10840:	fa1ff06f          	j	107e0 <__swrite+0x24>

0000000000010844 <__sseek>:
   10844:	ff010113          	addi	sp,sp,-16
   10848:	00813023          	sd	s0,0(sp)
   1084c:	00058413          	mv	s0,a1
   10850:	01259583          	lh	a1,18(a1)
   10854:	00113423          	sd	ra,8(sp)
   10858:	198000ef          	jal	109f0 <_lseek_r>
   1085c:	fff00713          	li	a4,-1
   10860:	01041783          	lh	a5,16(s0)
   10864:	02e50263          	beq	a0,a4,10888 <__sseek+0x44>
   10868:	00001737          	lui	a4,0x1
   1086c:	00e7e7b3          	or	a5,a5,a4
   10870:	00813083          	ld	ra,8(sp)
   10874:	08a43823          	sd	a0,144(s0)
   10878:	00f41823          	sh	a5,16(s0)
   1087c:	00013403          	ld	s0,0(sp)
   10880:	01010113          	addi	sp,sp,16
   10884:	00008067          	ret
   10888:	80050713          	addi	a4,a0,-2048
   1088c:	80070713          	addi	a4,a4,-2048 # 800 <exit-0xf920>
   10890:	00e7f7b3          	and	a5,a5,a4
   10894:	00813083          	ld	ra,8(sp)
   10898:	00f41823          	sh	a5,16(s0)
   1089c:	00013403          	ld	s0,0(sp)
   108a0:	01010113          	addi	sp,sp,16
   108a4:	00008067          	ret

00000000000108a8 <__sclose>:
   108a8:	01259583          	lh	a1,18(a1)
   108ac:	0040006f          	j	108b0 <_close_r>

00000000000108b0 <_close_r>:
   108b0:	fe010113          	addi	sp,sp,-32
   108b4:	00813823          	sd	s0,16(sp)
   108b8:	00913423          	sd	s1,8(sp)
   108bc:	00050493          	mv	s1,a0
   108c0:	00058513          	mv	a0,a1
   108c4:	00113c23          	sd	ra,24(sp)
   108c8:	2401a023          	sw	zero,576(gp) # 206b8 <errno>
   108cc:	7a50a0ef          	jal	1b870 <_close>
   108d0:	fff00793          	li	a5,-1
   108d4:	00f50c63          	beq	a0,a5,108ec <_close_r+0x3c>
   108d8:	01813083          	ld	ra,24(sp)
   108dc:	01013403          	ld	s0,16(sp)
   108e0:	00813483          	ld	s1,8(sp)
   108e4:	02010113          	addi	sp,sp,32
   108e8:	00008067          	ret
   108ec:	2401a783          	lw	a5,576(gp) # 206b8 <errno>
   108f0:	fe0784e3          	beqz	a5,108d8 <_close_r+0x28>
   108f4:	01813083          	ld	ra,24(sp)
   108f8:	01013403          	ld	s0,16(sp)
   108fc:	00f4a023          	sw	a5,0(s1)
   10900:	00813483          	ld	s1,8(sp)
   10904:	02010113          	addi	sp,sp,32
   10908:	00008067          	ret

000000000001090c <_reclaim_reent>:
   1090c:	2201b783          	ld	a5,544(gp) # 20698 <_impure_ptr>
   10910:	0ca78e63          	beq	a5,a0,109ec <_reclaim_reent+0xe0>
   10914:	06853583          	ld	a1,104(a0)
   10918:	fd010113          	addi	sp,sp,-48
   1091c:	00913c23          	sd	s1,24(sp)
   10920:	02113423          	sd	ra,40(sp)
   10924:	02813023          	sd	s0,32(sp)
   10928:	00050493          	mv	s1,a0
   1092c:	04058863          	beqz	a1,1097c <_reclaim_reent+0x70>
   10930:	01213823          	sd	s2,16(sp)
   10934:	01313423          	sd	s3,8(sp)
   10938:	00000913          	li	s2,0
   1093c:	20000993          	li	s3,512
   10940:	012587b3          	add	a5,a1,s2
   10944:	0007b403          	ld	s0,0(a5)
   10948:	00040e63          	beqz	s0,10964 <_reclaim_reent+0x58>
   1094c:	00040593          	mv	a1,s0
   10950:	00043403          	ld	s0,0(s0)
   10954:	00048513          	mv	a0,s1
   10958:	5b0000ef          	jal	10f08 <_free_r>
   1095c:	fe0418e3          	bnez	s0,1094c <_reclaim_reent+0x40>
   10960:	0684b583          	ld	a1,104(s1)
   10964:	00890913          	addi	s2,s2,8
   10968:	fd391ce3          	bne	s2,s3,10940 <_reclaim_reent+0x34>
   1096c:	00048513          	mv	a0,s1
   10970:	598000ef          	jal	10f08 <_free_r>
   10974:	01013903          	ld	s2,16(sp)
   10978:	00813983          	ld	s3,8(sp)
   1097c:	0504b583          	ld	a1,80(s1)
   10980:	00058663          	beqz	a1,1098c <_reclaim_reent+0x80>
   10984:	00048513          	mv	a0,s1
   10988:	580000ef          	jal	10f08 <_free_r>
   1098c:	0604b403          	ld	s0,96(s1)
   10990:	00040c63          	beqz	s0,109a8 <_reclaim_reent+0x9c>
   10994:	00040593          	mv	a1,s0
   10998:	00043403          	ld	s0,0(s0)
   1099c:	00048513          	mv	a0,s1
   109a0:	568000ef          	jal	10f08 <_free_r>
   109a4:	fe0418e3          	bnez	s0,10994 <_reclaim_reent+0x88>
   109a8:	0784b583          	ld	a1,120(s1)
   109ac:	00058663          	beqz	a1,109b8 <_reclaim_reent+0xac>
   109b0:	00048513          	mv	a0,s1
   109b4:	554000ef          	jal	10f08 <_free_r>
   109b8:	0484b783          	ld	a5,72(s1)
   109bc:	00078e63          	beqz	a5,109d8 <_reclaim_reent+0xcc>
   109c0:	02013403          	ld	s0,32(sp)
   109c4:	02813083          	ld	ra,40(sp)
   109c8:	00048513          	mv	a0,s1
   109cc:	01813483          	ld	s1,24(sp)
   109d0:	03010113          	addi	sp,sp,48
   109d4:	00078067          	jr	a5
   109d8:	02813083          	ld	ra,40(sp)
   109dc:	02013403          	ld	s0,32(sp)
   109e0:	01813483          	ld	s1,24(sp)
   109e4:	03010113          	addi	sp,sp,48
   109e8:	00008067          	ret
   109ec:	00008067          	ret

00000000000109f0 <_lseek_r>:
   109f0:	fe010113          	addi	sp,sp,-32
   109f4:	00058793          	mv	a5,a1
   109f8:	00813823          	sd	s0,16(sp)
   109fc:	00913423          	sd	s1,8(sp)
   10a00:	00060593          	mv	a1,a2
   10a04:	00050493          	mv	s1,a0
   10a08:	00068613          	mv	a2,a3
   10a0c:	00078513          	mv	a0,a5
   10a10:	00113c23          	sd	ra,24(sp)
   10a14:	2401a023          	sw	zero,576(gp) # 206b8 <errno>
   10a18:	79d0a0ef          	jal	1b9b4 <_lseek>
   10a1c:	fff00793          	li	a5,-1
   10a20:	00f50c63          	beq	a0,a5,10a38 <_lseek_r+0x48>
   10a24:	01813083          	ld	ra,24(sp)
   10a28:	01013403          	ld	s0,16(sp)
   10a2c:	00813483          	ld	s1,8(sp)
   10a30:	02010113          	addi	sp,sp,32
   10a34:	00008067          	ret
   10a38:	2401a783          	lw	a5,576(gp) # 206b8 <errno>
   10a3c:	fe0784e3          	beqz	a5,10a24 <_lseek_r+0x34>
   10a40:	01813083          	ld	ra,24(sp)
   10a44:	01013403          	ld	s0,16(sp)
   10a48:	00f4a023          	sw	a5,0(s1)
   10a4c:	00813483          	ld	s1,8(sp)
   10a50:	02010113          	addi	sp,sp,32
   10a54:	00008067          	ret

0000000000010a58 <_read_r>:
   10a58:	fe010113          	addi	sp,sp,-32
   10a5c:	00058793          	mv	a5,a1
   10a60:	00813823          	sd	s0,16(sp)
   10a64:	00913423          	sd	s1,8(sp)
   10a68:	00060593          	mv	a1,a2
   10a6c:	00050493          	mv	s1,a0
   10a70:	00068613          	mv	a2,a3
   10a74:	00078513          	mv	a0,a5
   10a78:	00113c23          	sd	ra,24(sp)
   10a7c:	2401a023          	sw	zero,576(gp) # 206b8 <errno>
   10a80:	7750a0ef          	jal	1b9f4 <_read>
   10a84:	fff00793          	li	a5,-1
   10a88:	00f50c63          	beq	a0,a5,10aa0 <_read_r+0x48>
   10a8c:	01813083          	ld	ra,24(sp)
   10a90:	01013403          	ld	s0,16(sp)
   10a94:	00813483          	ld	s1,8(sp)
   10a98:	02010113          	addi	sp,sp,32
   10a9c:	00008067          	ret
   10aa0:	2401a783          	lw	a5,576(gp) # 206b8 <errno>
   10aa4:	fe0784e3          	beqz	a5,10a8c <_read_r+0x34>
   10aa8:	01813083          	ld	ra,24(sp)
   10aac:	01013403          	ld	s0,16(sp)
   10ab0:	00f4a023          	sw	a5,0(s1)
   10ab4:	00813483          	ld	s1,8(sp)
   10ab8:	02010113          	addi	sp,sp,32
   10abc:	00008067          	ret

0000000000010ac0 <_write_r>:
   10ac0:	fe010113          	addi	sp,sp,-32
   10ac4:	00058793          	mv	a5,a1
   10ac8:	00813823          	sd	s0,16(sp)
   10acc:	00913423          	sd	s1,8(sp)
   10ad0:	00060593          	mv	a1,a2
   10ad4:	00050493          	mv	s1,a0
   10ad8:	00068613          	mv	a2,a3
   10adc:	00078513          	mv	a0,a5
   10ae0:	00113c23          	sd	ra,24(sp)
   10ae4:	2401a023          	sw	zero,576(gp) # 206b8 <errno>
   10ae8:	7c50a0ef          	jal	1baac <_write>
   10aec:	fff00793          	li	a5,-1
   10af0:	00f50c63          	beq	a0,a5,10b08 <_write_r+0x48>
   10af4:	01813083          	ld	ra,24(sp)
   10af8:	01013403          	ld	s0,16(sp)
   10afc:	00813483          	ld	s1,8(sp)
   10b00:	02010113          	addi	sp,sp,32
   10b04:	00008067          	ret
   10b08:	2401a783          	lw	a5,576(gp) # 206b8 <errno>
   10b0c:	fe0784e3          	beqz	a5,10af4 <_write_r+0x34>
   10b10:	01813083          	ld	ra,24(sp)
   10b14:	01013403          	ld	s0,16(sp)
   10b18:	00f4a023          	sw	a5,0(s1)
   10b1c:	00813483          	ld	s1,8(sp)
   10b20:	02010113          	addi	sp,sp,32
   10b24:	00008067          	ret

0000000000010b28 <__libc_init_array>:
   10b28:	fe010113          	addi	sp,sp,-32
   10b2c:	00813823          	sd	s0,16(sp)
   10b30:	01213023          	sd	s2,0(sp)
   10b34:	00020437          	lui	s0,0x20
   10b38:	00020937          	lui	s2,0x20
   10b3c:	00113c23          	sd	ra,24(sp)
   10b40:	00913423          	sd	s1,8(sp)
   10b44:	ae490913          	addi	s2,s2,-1308 # 1fae4 <__preinit_array_end>
   10b48:	ae440413          	addi	s0,s0,-1308 # 1fae4 <__preinit_array_end>
   10b4c:	02890263          	beq	s2,s0,10b70 <__libc_init_array+0x48>
   10b50:	40890933          	sub	s2,s2,s0
   10b54:	40395913          	srai	s2,s2,0x3
   10b58:	00000493          	li	s1,0
   10b5c:	00043783          	ld	a5,0(s0)
   10b60:	00148493          	addi	s1,s1,1
   10b64:	00840413          	addi	s0,s0,8
   10b68:	000780e7          	jalr	a5
   10b6c:	ff24e8e3          	bltu	s1,s2,10b5c <__libc_init_array+0x34>
   10b70:	00020937          	lui	s2,0x20
   10b74:	00020437          	lui	s0,0x20
   10b78:	af890913          	addi	s2,s2,-1288 # 1faf8 <__do_global_dtors_aux_fini_array_entry>
   10b7c:	ae840413          	addi	s0,s0,-1304 # 1fae8 <__init_array_start>
   10b80:	02890263          	beq	s2,s0,10ba4 <__libc_init_array+0x7c>
   10b84:	40890933          	sub	s2,s2,s0
   10b88:	40395913          	srai	s2,s2,0x3
   10b8c:	00000493          	li	s1,0
   10b90:	00043783          	ld	a5,0(s0)
   10b94:	00148493          	addi	s1,s1,1
   10b98:	00840413          	addi	s0,s0,8
   10b9c:	000780e7          	jalr	a5
   10ba0:	ff24e8e3          	bltu	s1,s2,10b90 <__libc_init_array+0x68>
   10ba4:	01813083          	ld	ra,24(sp)
   10ba8:	01013403          	ld	s0,16(sp)
   10bac:	00813483          	ld	s1,8(sp)
   10bb0:	00013903          	ld	s2,0(sp)
   10bb4:	02010113          	addi	sp,sp,32
   10bb8:	00008067          	ret

0000000000010bbc <memset>:
   10bbc:	00f00313          	li	t1,15
   10bc0:	00050713          	mv	a4,a0
   10bc4:	02c37a63          	bgeu	t1,a2,10bf8 <memset+0x3c>
   10bc8:	00f77793          	andi	a5,a4,15
   10bcc:	0a079063          	bnez	a5,10c6c <memset+0xb0>
   10bd0:	06059e63          	bnez	a1,10c4c <memset+0x90>
   10bd4:	ff067693          	andi	a3,a2,-16
   10bd8:	00f67613          	andi	a2,a2,15
   10bdc:	00e686b3          	add	a3,a3,a4
   10be0:	00b73023          	sd	a1,0(a4)
   10be4:	00b73423          	sd	a1,8(a4)
   10be8:	01070713          	addi	a4,a4,16
   10bec:	fed76ae3          	bltu	a4,a3,10be0 <memset+0x24>
   10bf0:	00061463          	bnez	a2,10bf8 <memset+0x3c>
   10bf4:	00008067          	ret
   10bf8:	40c306b3          	sub	a3,t1,a2
   10bfc:	00269693          	slli	a3,a3,0x2
   10c00:	00000297          	auipc	t0,0x0
   10c04:	005686b3          	add	a3,a3,t0
   10c08:	00c68067          	jr	12(a3)
   10c0c:	00b70723          	sb	a1,14(a4)
   10c10:	00b706a3          	sb	a1,13(a4)
   10c14:	00b70623          	sb	a1,12(a4)
   10c18:	00b705a3          	sb	a1,11(a4)
   10c1c:	00b70523          	sb	a1,10(a4)
   10c20:	00b704a3          	sb	a1,9(a4)
   10c24:	00b70423          	sb	a1,8(a4)
   10c28:	00b703a3          	sb	a1,7(a4)
   10c2c:	00b70323          	sb	a1,6(a4)
   10c30:	00b702a3          	sb	a1,5(a4)
   10c34:	00b70223          	sb	a1,4(a4)
   10c38:	00b701a3          	sb	a1,3(a4)
   10c3c:	00b70123          	sb	a1,2(a4)
   10c40:	00b700a3          	sb	a1,1(a4)
   10c44:	00b70023          	sb	a1,0(a4)
   10c48:	00008067          	ret
   10c4c:	0ff5f593          	zext.b	a1,a1
   10c50:	00859693          	slli	a3,a1,0x8
   10c54:	00d5e5b3          	or	a1,a1,a3
   10c58:	01059693          	slli	a3,a1,0x10
   10c5c:	00d5e5b3          	or	a1,a1,a3
   10c60:	02059693          	slli	a3,a1,0x20
   10c64:	00d5e5b3          	or	a1,a1,a3
   10c68:	f6dff06f          	j	10bd4 <memset+0x18>
   10c6c:	00279693          	slli	a3,a5,0x2
   10c70:	00000297          	auipc	t0,0x0
   10c74:	005686b3          	add	a3,a3,t0
   10c78:	00008293          	mv	t0,ra
   10c7c:	f98680e7          	jalr	-104(a3)
   10c80:	00028093          	mv	ra,t0
   10c84:	ff078793          	addi	a5,a5,-16
   10c88:	40f70733          	sub	a4,a4,a5
   10c8c:	00f60633          	add	a2,a2,a5
   10c90:	f6c374e3          	bgeu	t1,a2,10bf8 <memset+0x3c>
   10c94:	f3dff06f          	j	10bd0 <memset+0x14>

0000000000010c98 <__call_exitprocs>:
   10c98:	fb010113          	addi	sp,sp,-80
   10c9c:	03413023          	sd	s4,32(sp)
   10ca0:	03213823          	sd	s2,48(sp)
   10ca4:	2481b903          	ld	s2,584(gp) # 206c0 <__atexit>
   10ca8:	04113423          	sd	ra,72(sp)
   10cac:	06090e63          	beqz	s2,10d28 <__call_exitprocs+0x90>
   10cb0:	03313423          	sd	s3,40(sp)
   10cb4:	01513c23          	sd	s5,24(sp)
   10cb8:	01613823          	sd	s6,16(sp)
   10cbc:	01713423          	sd	s7,8(sp)
   10cc0:	04813023          	sd	s0,64(sp)
   10cc4:	02913c23          	sd	s1,56(sp)
   10cc8:	01813023          	sd	s8,0(sp)
   10ccc:	00050b13          	mv	s6,a0
   10cd0:	00058b93          	mv	s7,a1
   10cd4:	fff00993          	li	s3,-1
   10cd8:	00100a93          	li	s5,1
   10cdc:	00892403          	lw	s0,8(s2)
   10ce0:	fff4041b          	addiw	s0,s0,-1
   10ce4:	02044463          	bltz	s0,10d0c <__call_exitprocs+0x74>
   10ce8:	01090493          	addi	s1,s2,16
   10cec:	00341793          	slli	a5,s0,0x3
   10cf0:	00f484b3          	add	s1,s1,a5
   10cf4:	040b8463          	beqz	s7,10d3c <__call_exitprocs+0xa4>
   10cf8:	2004b783          	ld	a5,512(s1)
   10cfc:	05778063          	beq	a5,s7,10d3c <__call_exitprocs+0xa4>
   10d00:	fff4041b          	addiw	s0,s0,-1
   10d04:	ff848493          	addi	s1,s1,-8
   10d08:	ff3418e3          	bne	s0,s3,10cf8 <__call_exitprocs+0x60>
   10d0c:	04013403          	ld	s0,64(sp)
   10d10:	03813483          	ld	s1,56(sp)
   10d14:	02813983          	ld	s3,40(sp)
   10d18:	01813a83          	ld	s5,24(sp)
   10d1c:	01013b03          	ld	s6,16(sp)
   10d20:	00813b83          	ld	s7,8(sp)
   10d24:	00013c03          	ld	s8,0(sp)
   10d28:	04813083          	ld	ra,72(sp)
   10d2c:	03013903          	ld	s2,48(sp)
   10d30:	02013a03          	ld	s4,32(sp)
   10d34:	05010113          	addi	sp,sp,80
   10d38:	00008067          	ret
   10d3c:	00892783          	lw	a5,8(s2)
   10d40:	0004b683          	ld	a3,0(s1)
   10d44:	fff7879b          	addiw	a5,a5,-1
   10d48:	06878a63          	beq	a5,s0,10dbc <__call_exitprocs+0x124>
   10d4c:	0004b023          	sd	zero,0(s1)
   10d50:	02068663          	beqz	a3,10d7c <__call_exitprocs+0xe4>
   10d54:	31092783          	lw	a5,784(s2)
   10d58:	008a973b          	sllw	a4,s5,s0
   10d5c:	00892c03          	lw	s8,8(s2)
   10d60:	00e7f7b3          	and	a5,a5,a4
   10d64:	02079463          	bnez	a5,10d8c <__call_exitprocs+0xf4>
   10d68:	000680e7          	jalr	a3
   10d6c:	00892703          	lw	a4,8(s2)
   10d70:	2481b783          	ld	a5,584(gp) # 206c0 <__atexit>
   10d74:	03871e63          	bne	a4,s8,10db0 <__call_exitprocs+0x118>
   10d78:	03279c63          	bne	a5,s2,10db0 <__call_exitprocs+0x118>
   10d7c:	fff4041b          	addiw	s0,s0,-1
   10d80:	ff848493          	addi	s1,s1,-8
   10d84:	f73418e3          	bne	s0,s3,10cf4 <__call_exitprocs+0x5c>
   10d88:	f85ff06f          	j	10d0c <__call_exitprocs+0x74>
   10d8c:	31492783          	lw	a5,788(s2)
   10d90:	1004b583          	ld	a1,256(s1)
   10d94:	00f77733          	and	a4,a4,a5
   10d98:	02071663          	bnez	a4,10dc4 <__call_exitprocs+0x12c>
   10d9c:	000b0513          	mv	a0,s6
   10da0:	000680e7          	jalr	a3
   10da4:	00892703          	lw	a4,8(s2)
   10da8:	2481b783          	ld	a5,584(gp) # 206c0 <__atexit>
   10dac:	fd8706e3          	beq	a4,s8,10d78 <__call_exitprocs+0xe0>
   10db0:	f4078ee3          	beqz	a5,10d0c <__call_exitprocs+0x74>
   10db4:	00078913          	mv	s2,a5
   10db8:	f25ff06f          	j	10cdc <__call_exitprocs+0x44>
   10dbc:	00892423          	sw	s0,8(s2)
   10dc0:	f91ff06f          	j	10d50 <__call_exitprocs+0xb8>
   10dc4:	00058513          	mv	a0,a1
   10dc8:	000680e7          	jalr	a3
   10dcc:	fa1ff06f          	j	10d6c <__call_exitprocs+0xd4>

0000000000010dd0 <atexit>:
   10dd0:	00050593          	mv	a1,a0
   10dd4:	00000693          	li	a3,0
   10dd8:	00000613          	li	a2,0
   10ddc:	00000513          	li	a0,0
   10de0:	54d0406f          	j	15b2c <__register_exitproc>

0000000000010de4 <_malloc_trim_r>:
   10de4:	fd010113          	addi	sp,sp,-48
   10de8:	01213823          	sd	s2,16(sp)
   10dec:	00020937          	lui	s2,0x20
   10df0:	02813023          	sd	s0,32(sp)
   10df4:	00913c23          	sd	s1,24(sp)
   10df8:	01313423          	sd	s3,8(sp)
   10dfc:	00058413          	mv	s0,a1
   10e00:	02113423          	sd	ra,40(sp)
   10e04:	00050993          	mv	s3,a0
   10e08:	c7090913          	addi	s2,s2,-912 # 1fc70 <__malloc_av_>
   10e0c:	4e5000ef          	jal	11af0 <__malloc_lock>
   10e10:	01093783          	ld	a5,16(s2)
   10e14:	00001737          	lui	a4,0x1
   10e18:	0087b483          	ld	s1,8(a5)
   10e1c:	ffc4f493          	andi	s1,s1,-4
   10e20:	7ff48793          	addi	a5,s1,2047
   10e24:	7e078793          	addi	a5,a5,2016
   10e28:	40878433          	sub	s0,a5,s0
   10e2c:	00c45413          	srli	s0,s0,0xc
   10e30:	fff40413          	addi	s0,s0,-1
   10e34:	00c41413          	slli	s0,s0,0xc
   10e38:	00e44e63          	blt	s0,a4,10e54 <_malloc_trim_r+0x70>
   10e3c:	00000593          	li	a1,0
   10e40:	00098513          	mv	a0,s3
   10e44:	00d040ef          	jal	15650 <_sbrk_r>
   10e48:	01093783          	ld	a5,16(s2)
   10e4c:	009787b3          	add	a5,a5,s1
   10e50:	02f50663          	beq	a0,a5,10e7c <_malloc_trim_r+0x98>
   10e54:	00098513          	mv	a0,s3
   10e58:	49d000ef          	jal	11af4 <__malloc_unlock>
   10e5c:	02813083          	ld	ra,40(sp)
   10e60:	02013403          	ld	s0,32(sp)
   10e64:	01813483          	ld	s1,24(sp)
   10e68:	01013903          	ld	s2,16(sp)
   10e6c:	00813983          	ld	s3,8(sp)
   10e70:	00000513          	li	a0,0
   10e74:	03010113          	addi	sp,sp,48
   10e78:	00008067          	ret
   10e7c:	408005b3          	neg	a1,s0
   10e80:	00098513          	mv	a0,s3
   10e84:	7cc040ef          	jal	15650 <_sbrk_r>
   10e88:	fff00793          	li	a5,-1
   10e8c:	04f50463          	beq	a0,a5,10ed4 <_malloc_trim_r+0xf0>
   10e90:	01093683          	ld	a3,16(s2)
   10e94:	4c01a783          	lw	a5,1216(gp) # 20938 <__malloc_current_mallinfo>
   10e98:	408484b3          	sub	s1,s1,s0
   10e9c:	0014e493          	ori	s1,s1,1
   10ea0:	00098513          	mv	a0,s3
   10ea4:	408787bb          	subw	a5,a5,s0
   10ea8:	0096b423          	sd	s1,8(a3)
   10eac:	4cf1a023          	sw	a5,1216(gp) # 20938 <__malloc_current_mallinfo>
   10eb0:	445000ef          	jal	11af4 <__malloc_unlock>
   10eb4:	02813083          	ld	ra,40(sp)
   10eb8:	02013403          	ld	s0,32(sp)
   10ebc:	01813483          	ld	s1,24(sp)
   10ec0:	01013903          	ld	s2,16(sp)
   10ec4:	00813983          	ld	s3,8(sp)
   10ec8:	00100513          	li	a0,1
   10ecc:	03010113          	addi	sp,sp,48
   10ed0:	00008067          	ret
   10ed4:	00000593          	li	a1,0
   10ed8:	00098513          	mv	a0,s3
   10edc:	774040ef          	jal	15650 <_sbrk_r>
   10ee0:	01093703          	ld	a4,16(s2)
   10ee4:	01f00693          	li	a3,31
   10ee8:	40e507b3          	sub	a5,a0,a4
   10eec:	f6f6d4e3          	bge	a3,a5,10e54 <_malloc_trim_r+0x70>
   10ef0:	2281b603          	ld	a2,552(gp) # 206a0 <__malloc_sbrk_base>
   10ef4:	0017e793          	ori	a5,a5,1
   10ef8:	40c50533          	sub	a0,a0,a2
   10efc:	00f73423          	sd	a5,8(a4) # 1008 <exit-0xf118>
   10f00:	4ca1a023          	sw	a0,1216(gp) # 20938 <__malloc_current_mallinfo>
   10f04:	f51ff06f          	j	10e54 <_malloc_trim_r+0x70>

0000000000010f08 <_free_r>:
   10f08:	12058863          	beqz	a1,11038 <_free_r+0x130>
   10f0c:	fe010113          	addi	sp,sp,-32
   10f10:	00813823          	sd	s0,16(sp)
   10f14:	00b13423          	sd	a1,8(sp)
   10f18:	00050413          	mv	s0,a0
   10f1c:	00113c23          	sd	ra,24(sp)
   10f20:	3d1000ef          	jal	11af0 <__malloc_lock>
   10f24:	00813583          	ld	a1,8(sp)
   10f28:	00020837          	lui	a6,0x20
   10f2c:	c7080813          	addi	a6,a6,-912 # 1fc70 <__malloc_av_>
   10f30:	ff85b503          	ld	a0,-8(a1)
   10f34:	ff058713          	addi	a4,a1,-16
   10f38:	01083883          	ld	a7,16(a6)
   10f3c:	ffe57793          	andi	a5,a0,-2
   10f40:	00f70633          	add	a2,a4,a5
   10f44:	00863683          	ld	a3,8(a2)
   10f48:	00157313          	andi	t1,a0,1
   10f4c:	ffc6f693          	andi	a3,a3,-4
   10f50:	18c88e63          	beq	a7,a2,110ec <_free_r+0x1e4>
   10f54:	00d63423          	sd	a3,8(a2)
   10f58:	00d608b3          	add	a7,a2,a3
   10f5c:	0088b883          	ld	a7,8(a7)
   10f60:	0018f893          	andi	a7,a7,1
   10f64:	08031e63          	bnez	t1,11000 <_free_r+0xf8>
   10f68:	ff05b303          	ld	t1,-16(a1)
   10f6c:	000205b7          	lui	a1,0x20
   10f70:	c8058593          	addi	a1,a1,-896 # 1fc80 <__malloc_av_+0x10>
   10f74:	40670733          	sub	a4,a4,t1
   10f78:	01073503          	ld	a0,16(a4)
   10f7c:	006787b3          	add	a5,a5,t1
   10f80:	14b50063          	beq	a0,a1,110c0 <_free_r+0x1b8>
   10f84:	01873303          	ld	t1,24(a4)
   10f88:	00653c23          	sd	t1,24(a0)
   10f8c:	00a33823          	sd	a0,16(t1)
   10f90:	1a088263          	beqz	a7,11134 <_free_r+0x22c>
   10f94:	0017e693          	ori	a3,a5,1
   10f98:	00d73423          	sd	a3,8(a4)
   10f9c:	00f63023          	sd	a5,0(a2)
   10fa0:	1ff00693          	li	a3,511
   10fa4:	0af6e663          	bltu	a3,a5,11050 <_free_r+0x148>
   10fa8:	0037d793          	srli	a5,a5,0x3
   10fac:	00179693          	slli	a3,a5,0x1
   10fb0:	0026869b          	addiw	a3,a3,2
   10fb4:	00369693          	slli	a3,a3,0x3
   10fb8:	00883503          	ld	a0,8(a6)
   10fbc:	00d806b3          	add	a3,a6,a3
   10fc0:	0006b583          	ld	a1,0(a3)
   10fc4:	4027d61b          	sraiw	a2,a5,0x2
   10fc8:	00100793          	li	a5,1
   10fcc:	00c797b3          	sll	a5,a5,a2
   10fd0:	00a7e7b3          	or	a5,a5,a0
   10fd4:	ff068613          	addi	a2,a3,-16
   10fd8:	00b73823          	sd	a1,16(a4)
   10fdc:	00c73c23          	sd	a2,24(a4)
   10fe0:	00f83423          	sd	a5,8(a6)
   10fe4:	00e6b023          	sd	a4,0(a3)
   10fe8:	00e5bc23          	sd	a4,24(a1)
   10fec:	00040513          	mv	a0,s0
   10ff0:	01013403          	ld	s0,16(sp)
   10ff4:	01813083          	ld	ra,24(sp)
   10ff8:	02010113          	addi	sp,sp,32
   10ffc:	2f90006f          	j	11af4 <__malloc_unlock>
   11000:	02089e63          	bnez	a7,1103c <_free_r+0x134>
   11004:	000205b7          	lui	a1,0x20
   11008:	00d787b3          	add	a5,a5,a3
   1100c:	c8058593          	addi	a1,a1,-896 # 1fc80 <__malloc_av_+0x10>
   11010:	01063683          	ld	a3,16(a2)
   11014:	0017e893          	ori	a7,a5,1
   11018:	00f70533          	add	a0,a4,a5
   1101c:	16b68663          	beq	a3,a1,11188 <_free_r+0x280>
   11020:	01863603          	ld	a2,24(a2)
   11024:	00c6bc23          	sd	a2,24(a3)
   11028:	00d63823          	sd	a3,16(a2)
   1102c:	01173423          	sd	a7,8(a4)
   11030:	00f53023          	sd	a5,0(a0)
   11034:	f6dff06f          	j	10fa0 <_free_r+0x98>
   11038:	00008067          	ret
   1103c:	00156513          	ori	a0,a0,1
   11040:	fea5bc23          	sd	a0,-8(a1)
   11044:	00f63023          	sd	a5,0(a2)
   11048:	1ff00693          	li	a3,511
   1104c:	f4f6fee3          	bgeu	a3,a5,10fa8 <_free_r+0xa0>
   11050:	0097d693          	srli	a3,a5,0x9
   11054:	00400613          	li	a2,4
   11058:	0ed66263          	bltu	a2,a3,1113c <_free_r+0x234>
   1105c:	0067d693          	srli	a3,a5,0x6
   11060:	00169593          	slli	a1,a3,0x1
   11064:	0725859b          	addiw	a1,a1,114
   11068:	00359593          	slli	a1,a1,0x3
   1106c:	0386861b          	addiw	a2,a3,56
   11070:	00b805b3          	add	a1,a6,a1
   11074:	0005b683          	ld	a3,0(a1)
   11078:	ff058593          	addi	a1,a1,-16
   1107c:	00d59863          	bne	a1,a3,1108c <_free_r+0x184>
   11080:	1240006f          	j	111a4 <_free_r+0x29c>
   11084:	0106b683          	ld	a3,16(a3)
   11088:	00d58863          	beq	a1,a3,11098 <_free_r+0x190>
   1108c:	0086b603          	ld	a2,8(a3)
   11090:	ffc67613          	andi	a2,a2,-4
   11094:	fec7e8e3          	bltu	a5,a2,11084 <_free_r+0x17c>
   11098:	0186b583          	ld	a1,24(a3)
   1109c:	00b73c23          	sd	a1,24(a4)
   110a0:	00d73823          	sd	a3,16(a4)
   110a4:	00040513          	mv	a0,s0
   110a8:	01013403          	ld	s0,16(sp)
   110ac:	01813083          	ld	ra,24(sp)
   110b0:	00e5b823          	sd	a4,16(a1)
   110b4:	00e6bc23          	sd	a4,24(a3)
   110b8:	02010113          	addi	sp,sp,32
   110bc:	2390006f          	j	11af4 <__malloc_unlock>
   110c0:	0a089263          	bnez	a7,11164 <_free_r+0x25c>
   110c4:	01863583          	ld	a1,24(a2)
   110c8:	01063603          	ld	a2,16(a2)
   110cc:	00f686b3          	add	a3,a3,a5
   110d0:	0016e793          	ori	a5,a3,1
   110d4:	00b63c23          	sd	a1,24(a2)
   110d8:	00c5b823          	sd	a2,16(a1)
   110dc:	00f73423          	sd	a5,8(a4)
   110e0:	00d70733          	add	a4,a4,a3
   110e4:	00d73023          	sd	a3,0(a4)
   110e8:	f05ff06f          	j	10fec <_free_r+0xe4>
   110ec:	00d786b3          	add	a3,a5,a3
   110f0:	02031063          	bnez	t1,11110 <_free_r+0x208>
   110f4:	ff05b783          	ld	a5,-16(a1)
   110f8:	40f70733          	sub	a4,a4,a5
   110fc:	01073603          	ld	a2,16(a4)
   11100:	00f686b3          	add	a3,a3,a5
   11104:	01873783          	ld	a5,24(a4)
   11108:	00f63c23          	sd	a5,24(a2)
   1110c:	00c7b823          	sd	a2,16(a5)
   11110:	0016e613          	ori	a2,a3,1
   11114:	2301b783          	ld	a5,560(gp) # 206a8 <__malloc_trim_threshold>
   11118:	00c73423          	sd	a2,8(a4)
   1111c:	00e83823          	sd	a4,16(a6)
   11120:	ecf6e6e3          	bltu	a3,a5,10fec <_free_r+0xe4>
   11124:	2601b583          	ld	a1,608(gp) # 206d8 <__malloc_top_pad>
   11128:	00040513          	mv	a0,s0
   1112c:	cb9ff0ef          	jal	10de4 <_malloc_trim_r>
   11130:	ebdff06f          	j	10fec <_free_r+0xe4>
   11134:	00d787b3          	add	a5,a5,a3
   11138:	ed9ff06f          	j	11010 <_free_r+0x108>
   1113c:	01400613          	li	a2,20
   11140:	02d67a63          	bgeu	a2,a3,11174 <_free_r+0x26c>
   11144:	05400613          	li	a2,84
   11148:	06d66c63          	bltu	a2,a3,111c0 <_free_r+0x2b8>
   1114c:	00c7d693          	srli	a3,a5,0xc
   11150:	00169593          	slli	a1,a3,0x1
   11154:	0de5859b          	addiw	a1,a1,222
   11158:	00359593          	slli	a1,a1,0x3
   1115c:	06e6861b          	addiw	a2,a3,110
   11160:	f11ff06f          	j	11070 <_free_r+0x168>
   11164:	0017e693          	ori	a3,a5,1
   11168:	00d73423          	sd	a3,8(a4)
   1116c:	00f63023          	sd	a5,0(a2)
   11170:	e7dff06f          	j	10fec <_free_r+0xe4>
   11174:	00169593          	slli	a1,a3,0x1
   11178:	0b85859b          	addiw	a1,a1,184
   1117c:	00359593          	slli	a1,a1,0x3
   11180:	05b6861b          	addiw	a2,a3,91
   11184:	eedff06f          	j	11070 <_free_r+0x168>
   11188:	02e83423          	sd	a4,40(a6)
   1118c:	02e83023          	sd	a4,32(a6)
   11190:	00b73c23          	sd	a1,24(a4)
   11194:	00b73823          	sd	a1,16(a4)
   11198:	01173423          	sd	a7,8(a4)
   1119c:	00f53023          	sd	a5,0(a0)
   111a0:	e4dff06f          	j	10fec <_free_r+0xe4>
   111a4:	00883503          	ld	a0,8(a6)
   111a8:	4026561b          	sraiw	a2,a2,0x2
   111ac:	00100793          	li	a5,1
   111b0:	00c797b3          	sll	a5,a5,a2
   111b4:	00a7e7b3          	or	a5,a5,a0
   111b8:	00f83423          	sd	a5,8(a6)
   111bc:	ee1ff06f          	j	1109c <_free_r+0x194>
   111c0:	15400613          	li	a2,340
   111c4:	00d66e63          	bltu	a2,a3,111e0 <_free_r+0x2d8>
   111c8:	00f7d693          	srli	a3,a5,0xf
   111cc:	00169593          	slli	a1,a3,0x1
   111d0:	0f05859b          	addiw	a1,a1,240
   111d4:	00359593          	slli	a1,a1,0x3
   111d8:	0776861b          	addiw	a2,a3,119
   111dc:	e95ff06f          	j	11070 <_free_r+0x168>
   111e0:	55400613          	li	a2,1364
   111e4:	00d66e63          	bltu	a2,a3,11200 <_free_r+0x2f8>
   111e8:	0127d693          	srli	a3,a5,0x12
   111ec:	00169593          	slli	a1,a3,0x1
   111f0:	0fa5859b          	addiw	a1,a1,250
   111f4:	00359593          	slli	a1,a1,0x3
   111f8:	07c6861b          	addiw	a2,a3,124
   111fc:	e75ff06f          	j	11070 <_free_r+0x168>
   11200:	7f000593          	li	a1,2032
   11204:	07e00613          	li	a2,126
   11208:	e69ff06f          	j	11070 <_free_r+0x168>

000000000001120c <_malloc_r>:
   1120c:	fa010113          	addi	sp,sp,-96
   11210:	04813823          	sd	s0,80(sp)
   11214:	04113c23          	sd	ra,88(sp)
   11218:	01758713          	addi	a4,a1,23
   1121c:	02e00793          	li	a5,46
   11220:	00050413          	mv	s0,a0
   11224:	08e7ee63          	bltu	a5,a4,112c0 <_malloc_r+0xb4>
   11228:	02000713          	li	a4,32
   1122c:	06b76c63          	bltu	a4,a1,112a4 <_malloc_r+0x98>
   11230:	0c1000ef          	jal	11af0 <__malloc_lock>
   11234:	02000713          	li	a4,32
   11238:	05000693          	li	a3,80
   1123c:	00400893          	li	a7,4
   11240:	00020837          	lui	a6,0x20
   11244:	c7080813          	addi	a6,a6,-912 # 1fc70 <__malloc_av_>
   11248:	00d806b3          	add	a3,a6,a3
   1124c:	0086b783          	ld	a5,8(a3)
   11250:	ff068613          	addi	a2,a3,-16
   11254:	48c78063          	beq	a5,a2,116d4 <_malloc_r+0x4c8>
   11258:	0087b703          	ld	a4,8(a5)
   1125c:	0187b603          	ld	a2,24(a5)
   11260:	0107b583          	ld	a1,16(a5)
   11264:	ffc77713          	andi	a4,a4,-4
   11268:	00e78733          	add	a4,a5,a4
   1126c:	00873683          	ld	a3,8(a4)
   11270:	00c5bc23          	sd	a2,24(a1)
   11274:	00b63823          	sd	a1,16(a2)
   11278:	0016e693          	ori	a3,a3,1
   1127c:	00040513          	mv	a0,s0
   11280:	00d73423          	sd	a3,8(a4)
   11284:	00f13423          	sd	a5,8(sp)
   11288:	06d000ef          	jal	11af4 <__malloc_unlock>
   1128c:	00813783          	ld	a5,8(sp)
   11290:	05813083          	ld	ra,88(sp)
   11294:	05013403          	ld	s0,80(sp)
   11298:	01078513          	addi	a0,a5,16
   1129c:	06010113          	addi	sp,sp,96
   112a0:	00008067          	ret
   112a4:	00c00793          	li	a5,12
   112a8:	00f42023          	sw	a5,0(s0)
   112ac:	00000513          	li	a0,0
   112b0:	05813083          	ld	ra,88(sp)
   112b4:	05013403          	ld	s0,80(sp)
   112b8:	06010113          	addi	sp,sp,96
   112bc:	00008067          	ret
   112c0:	00100793          	li	a5,1
   112c4:	ff077713          	andi	a4,a4,-16
   112c8:	01f79793          	slli	a5,a5,0x1f
   112cc:	fcf77ce3          	bgeu	a4,a5,112a4 <_malloc_r+0x98>
   112d0:	fcb76ae3          	bltu	a4,a1,112a4 <_malloc_r+0x98>
   112d4:	00e13423          	sd	a4,8(sp)
   112d8:	019000ef          	jal	11af0 <__malloc_lock>
   112dc:	00813703          	ld	a4,8(sp)
   112e0:	1f700793          	li	a5,503
   112e4:	4ee7fa63          	bgeu	a5,a4,117d8 <_malloc_r+0x5cc>
   112e8:	00975793          	srli	a5,a4,0x9
   112ec:	18078a63          	beqz	a5,11480 <_malloc_r+0x274>
   112f0:	00400693          	li	a3,4
   112f4:	44f6ea63          	bltu	a3,a5,11748 <_malloc_r+0x53c>
   112f8:	00675793          	srli	a5,a4,0x6
   112fc:	0397889b          	addiw	a7,a5,57
   11300:	0018951b          	slliw	a0,a7,0x1
   11304:	03878e1b          	addiw	t3,a5,56
   11308:	00351513          	slli	a0,a0,0x3
   1130c:	00020837          	lui	a6,0x20
   11310:	c7080813          	addi	a6,a6,-912 # 1fc70 <__malloc_av_>
   11314:	00a80533          	add	a0,a6,a0
   11318:	00853783          	ld	a5,8(a0)
   1131c:	ff050513          	addi	a0,a0,-16
   11320:	02f50863          	beq	a0,a5,11350 <_malloc_r+0x144>
   11324:	01f00313          	li	t1,31
   11328:	0140006f          	j	1133c <_malloc_r+0x130>
   1132c:	0187b583          	ld	a1,24(a5)
   11330:	36065263          	bgez	a2,11694 <_malloc_r+0x488>
   11334:	00b50e63          	beq	a0,a1,11350 <_malloc_r+0x144>
   11338:	00058793          	mv	a5,a1
   1133c:	0087b683          	ld	a3,8(a5)
   11340:	ffc6f693          	andi	a3,a3,-4
   11344:	40e68633          	sub	a2,a3,a4
   11348:	fec352e3          	bge	t1,a2,1132c <_malloc_r+0x120>
   1134c:	000e0893          	mv	a7,t3
   11350:	02083783          	ld	a5,32(a6)
   11354:	00020e37          	lui	t3,0x20
   11358:	c80e0e13          	addi	t3,t3,-896 # 1fc80 <__malloc_av_+0x10>
   1135c:	2fc78a63          	beq	a5,t3,11650 <_malloc_r+0x444>
   11360:	0087b303          	ld	t1,8(a5)
   11364:	01f00613          	li	a2,31
   11368:	ffc37313          	andi	t1,t1,-4
   1136c:	40e306b3          	sub	a3,t1,a4
   11370:	4ad64463          	blt	a2,a3,11818 <_malloc_r+0x60c>
   11374:	03c83423          	sd	t3,40(a6)
   11378:	03c83023          	sd	t3,32(a6)
   1137c:	4606da63          	bgez	a3,117f0 <_malloc_r+0x5e4>
   11380:	1ff00693          	li	a3,511
   11384:	00883583          	ld	a1,8(a6)
   11388:	3466ee63          	bltu	a3,t1,116e4 <_malloc_r+0x4d8>
   1138c:	00335313          	srli	t1,t1,0x3
   11390:	00131693          	slli	a3,t1,0x1
   11394:	0026869b          	addiw	a3,a3,2
   11398:	00369693          	slli	a3,a3,0x3
   1139c:	00d806b3          	add	a3,a6,a3
   113a0:	0006b503          	ld	a0,0(a3)
   113a4:	4023531b          	sraiw	t1,t1,0x2
   113a8:	00100613          	li	a2,1
   113ac:	00661633          	sll	a2,a2,t1
   113b0:	00c5e5b3          	or	a1,a1,a2
   113b4:	ff068613          	addi	a2,a3,-16
   113b8:	00a7b823          	sd	a0,16(a5)
   113bc:	00c7bc23          	sd	a2,24(a5)
   113c0:	00b83423          	sd	a1,8(a6)
   113c4:	00f6b023          	sd	a5,0(a3)
   113c8:	00f53c23          	sd	a5,24(a0)
   113cc:	4028d79b          	sraiw	a5,a7,0x2
   113d0:	00100513          	li	a0,1
   113d4:	00f51533          	sll	a0,a0,a5
   113d8:	0aa5ec63          	bltu	a1,a0,11490 <_malloc_r+0x284>
   113dc:	00b577b3          	and	a5,a0,a1
   113e0:	02079463          	bnez	a5,11408 <_malloc_r+0x1fc>
   113e4:	00151513          	slli	a0,a0,0x1
   113e8:	ffc8f893          	andi	a7,a7,-4
   113ec:	00b577b3          	and	a5,a0,a1
   113f0:	0048889b          	addiw	a7,a7,4
   113f4:	00079a63          	bnez	a5,11408 <_malloc_r+0x1fc>
   113f8:	00151513          	slli	a0,a0,0x1
   113fc:	00b577b3          	and	a5,a0,a1
   11400:	0048889b          	addiw	a7,a7,4
   11404:	fe078ae3          	beqz	a5,113f8 <_malloc_r+0x1ec>
   11408:	01f00e93          	li	t4,31
   1140c:	00189f13          	slli	t5,a7,0x1
   11410:	002f0f1b          	addiw	t5,t5,2
   11414:	003f1f13          	slli	t5,t5,0x3
   11418:	ff0f0f13          	addi	t5,t5,-16
   1141c:	01e80f33          	add	t5,a6,t5
   11420:	000f0313          	mv	t1,t5
   11424:	01833683          	ld	a3,24(t1)
   11428:	00088f93          	mv	t6,a7
   1142c:	34d30263          	beq	t1,a3,11770 <_malloc_r+0x564>
   11430:	0086b603          	ld	a2,8(a3)
   11434:	00068793          	mv	a5,a3
   11438:	0186b683          	ld	a3,24(a3)
   1143c:	ffc67613          	andi	a2,a2,-4
   11440:	40e605b3          	sub	a1,a2,a4
   11444:	34bec263          	blt	t4,a1,11788 <_malloc_r+0x57c>
   11448:	fe05c2e3          	bltz	a1,1142c <_malloc_r+0x220>
   1144c:	00c78633          	add	a2,a5,a2
   11450:	00863703          	ld	a4,8(a2)
   11454:	0107b583          	ld	a1,16(a5)
   11458:	00040513          	mv	a0,s0
   1145c:	00176713          	ori	a4,a4,1
   11460:	00e63423          	sd	a4,8(a2)
   11464:	00d5bc23          	sd	a3,24(a1)
   11468:	00b6b823          	sd	a1,16(a3)
   1146c:	00f13423          	sd	a5,8(sp)
   11470:	684000ef          	jal	11af4 <__malloc_unlock>
   11474:	00813783          	ld	a5,8(sp)
   11478:	01078513          	addi	a0,a5,16
   1147c:	e35ff06f          	j	112b0 <_malloc_r+0xa4>
   11480:	40000513          	li	a0,1024
   11484:	04000893          	li	a7,64
   11488:	03f00e13          	li	t3,63
   1148c:	e81ff06f          	j	1130c <_malloc_r+0x100>
   11490:	01083783          	ld	a5,16(a6)
   11494:	0087b683          	ld	a3,8(a5)
   11498:	ffc6f893          	andi	a7,a3,-4
   1149c:	40e88633          	sub	a2,a7,a4
   114a0:	00e8e663          	bltu	a7,a4,114ac <_malloc_r+0x2a0>
   114a4:	02062693          	slti	a3,a2,32
   114a8:	1a068863          	beqz	a3,11658 <_malloc_r+0x44c>
   114ac:	2601b583          	ld	a1,608(gp) # 206d8 <__malloc_top_pad>
   114b0:	2281b603          	ld	a2,552(gp) # 206a0 <__malloc_sbrk_base>
   114b4:	fff00693          	li	a3,-1
   114b8:	00b705b3          	add	a1,a4,a1
   114bc:	44d60663          	beq	a2,a3,11908 <_malloc_r+0x6fc>
   114c0:	000016b7          	lui	a3,0x1
   114c4:	01f68693          	addi	a3,a3,31 # 101f <exit-0xf101>
   114c8:	00d585b3          	add	a1,a1,a3
   114cc:	fffff6b7          	lui	a3,0xfffff
   114d0:	00d5f5b3          	and	a1,a1,a3
   114d4:	00040513          	mv	a0,s0
   114d8:	03013423          	sd	a6,40(sp)
   114dc:	02f13023          	sd	a5,32(sp)
   114e0:	00e13c23          	sd	a4,24(sp)
   114e4:	01113823          	sd	a7,16(sp)
   114e8:	00b13423          	sd	a1,8(sp)
   114ec:	164040ef          	jal	15650 <_sbrk_r>
   114f0:	fff00693          	li	a3,-1
   114f4:	00813583          	ld	a1,8(sp)
   114f8:	01013883          	ld	a7,16(sp)
   114fc:	01813703          	ld	a4,24(sp)
   11500:	02013783          	ld	a5,32(sp)
   11504:	02813803          	ld	a6,40(sp)
   11508:	00050313          	mv	t1,a0
   1150c:	36d50663          	beq	a0,a3,11878 <_malloc_r+0x66c>
   11510:	011786b3          	add	a3,a5,a7
   11514:	36d56063          	bltu	a0,a3,11874 <_malloc_r+0x668>
   11518:	4c018e13          	addi	t3,gp,1216 # 20938 <__malloc_current_mallinfo>
   1151c:	000e2603          	lw	a2,0(t3)
   11520:	00b6063b          	addw	a2,a2,a1
   11524:	00ce2023          	sw	a2,0(t3)
   11528:	00060513          	mv	a0,a2
   1152c:	4a668c63          	beq	a3,t1,119e4 <_malloc_r+0x7d8>
   11530:	2281bf03          	ld	t5,552(gp) # 206a0 <__malloc_sbrk_base>
   11534:	fff00613          	li	a2,-1
   11538:	4ccf0463          	beq	t5,a2,11a00 <_malloc_r+0x7f4>
   1153c:	40d306b3          	sub	a3,t1,a3
   11540:	00a686bb          	addw	a3,a3,a0
   11544:	00de2023          	sw	a3,0(t3)
   11548:	00f37e93          	andi	t4,t1,15
   1154c:	3c0e8e63          	beqz	t4,11928 <_malloc_r+0x71c>
   11550:	ff037313          	andi	t1,t1,-16
   11554:	000016b7          	lui	a3,0x1
   11558:	01030313          	addi	t1,t1,16
   1155c:	01068693          	addi	a3,a3,16 # 1010 <exit-0xf110>
   11560:	00b30633          	add	a2,t1,a1
   11564:	41d685b3          	sub	a1,a3,t4
   11568:	40c585b3          	sub	a1,a1,a2
   1156c:	03459593          	slli	a1,a1,0x34
   11570:	0345d593          	srli	a1,a1,0x34
   11574:	00040513          	mv	a0,s0
   11578:	05c13023          	sd	t3,64(sp)
   1157c:	03013c23          	sd	a6,56(sp)
   11580:	02f13823          	sd	a5,48(sp)
   11584:	02e13423          	sd	a4,40(sp)
   11588:	03113023          	sd	a7,32(sp)
   1158c:	00613c23          	sd	t1,24(sp)
   11590:	01d13823          	sd	t4,16(sp)
   11594:	00c13423          	sd	a2,8(sp)
   11598:	04b13423          	sd	a1,72(sp)
   1159c:	0b4040ef          	jal	15650 <_sbrk_r>
   115a0:	00050693          	mv	a3,a0
   115a4:	fff00513          	li	a0,-1
   115a8:	00813603          	ld	a2,8(sp)
   115ac:	01013e83          	ld	t4,16(sp)
   115b0:	01813303          	ld	t1,24(sp)
   115b4:	02013883          	ld	a7,32(sp)
   115b8:	02813703          	ld	a4,40(sp)
   115bc:	03013783          	ld	a5,48(sp)
   115c0:	03813803          	ld	a6,56(sp)
   115c4:	04013e03          	ld	t3,64(sp)
   115c8:	48a68663          	beq	a3,a0,11a54 <_malloc_r+0x848>
   115cc:	04813583          	ld	a1,72(sp)
   115d0:	0005851b          	sext.w	a0,a1
   115d4:	000e2603          	lw	a2,0(t3)
   115d8:	406686b3          	sub	a3,a3,t1
   115dc:	00b686b3          	add	a3,a3,a1
   115e0:	0016e693          	ori	a3,a3,1
   115e4:	00683823          	sd	t1,16(a6)
   115e8:	00a6063b          	addw	a2,a2,a0
   115ec:	00d33423          	sd	a3,8(t1)
   115f0:	00ce2023          	sw	a2,0(t3)
   115f4:	03078e63          	beq	a5,a6,11630 <_malloc_r+0x424>
   115f8:	01f00513          	li	a0,31
   115fc:	41157663          	bgeu	a0,a7,11a08 <_malloc_r+0x7fc>
   11600:	0087b583          	ld	a1,8(a5)
   11604:	fe888693          	addi	a3,a7,-24
   11608:	ff06f693          	andi	a3,a3,-16
   1160c:	0015f593          	andi	a1,a1,1
   11610:	00d5e5b3          	or	a1,a1,a3
   11614:	00b7b423          	sd	a1,8(a5)
   11618:	00900893          	li	a7,9
   1161c:	00d785b3          	add	a1,a5,a3
   11620:	0115b423          	sd	a7,8(a1)
   11624:	0115b823          	sd	a7,16(a1)
   11628:	44d56863          	bltu	a0,a3,11a78 <_malloc_r+0x86c>
   1162c:	00833683          	ld	a3,8(t1)
   11630:	2581b583          	ld	a1,600(gp) # 206d0 <__malloc_max_sbrked_mem>
   11634:	00c5f463          	bgeu	a1,a2,1163c <_malloc_r+0x430>
   11638:	24c1bc23          	sd	a2,600(gp) # 206d0 <__malloc_max_sbrked_mem>
   1163c:	2501b583          	ld	a1,592(gp) # 206c8 <__malloc_max_total_mem>
   11640:	00c5f463          	bgeu	a1,a2,11648 <_malloc_r+0x43c>
   11644:	24c1b823          	sd	a2,592(gp) # 206c8 <__malloc_max_total_mem>
   11648:	00030793          	mv	a5,t1
   1164c:	2340006f          	j	11880 <_malloc_r+0x674>
   11650:	00883583          	ld	a1,8(a6)
   11654:	d79ff06f          	j	113cc <_malloc_r+0x1c0>
   11658:	00176693          	ori	a3,a4,1
   1165c:	00d7b423          	sd	a3,8(a5)
   11660:	00e78733          	add	a4,a5,a4
   11664:	00166613          	ori	a2,a2,1
   11668:	00e83823          	sd	a4,16(a6)
   1166c:	00040513          	mv	a0,s0
   11670:	00c73423          	sd	a2,8(a4)
   11674:	00f13423          	sd	a5,8(sp)
   11678:	47c000ef          	jal	11af4 <__malloc_unlock>
   1167c:	00813783          	ld	a5,8(sp)
   11680:	05813083          	ld	ra,88(sp)
   11684:	05013403          	ld	s0,80(sp)
   11688:	01078513          	addi	a0,a5,16
   1168c:	06010113          	addi	sp,sp,96
   11690:	00008067          	ret
   11694:	0107b603          	ld	a2,16(a5)
   11698:	00d786b3          	add	a3,a5,a3
   1169c:	0086b703          	ld	a4,8(a3)
   116a0:	00b63c23          	sd	a1,24(a2)
   116a4:	00c5b823          	sd	a2,16(a1)
   116a8:	00176713          	ori	a4,a4,1
   116ac:	00040513          	mv	a0,s0
   116b0:	00e6b423          	sd	a4,8(a3)
   116b4:	00f13423          	sd	a5,8(sp)
   116b8:	43c000ef          	jal	11af4 <__malloc_unlock>
   116bc:	00813783          	ld	a5,8(sp)
   116c0:	05813083          	ld	ra,88(sp)
   116c4:	05013403          	ld	s0,80(sp)
   116c8:	01078513          	addi	a0,a5,16
   116cc:	06010113          	addi	sp,sp,96
   116d0:	00008067          	ret
   116d4:	0186b783          	ld	a5,24(a3)
   116d8:	0028889b          	addiw	a7,a7,2
   116dc:	c6f68ae3          	beq	a3,a5,11350 <_malloc_r+0x144>
   116e0:	b79ff06f          	j	11258 <_malloc_r+0x4c>
   116e4:	00935693          	srli	a3,t1,0x9
   116e8:	00400613          	li	a2,4
   116ec:	16d67863          	bgeu	a2,a3,1185c <_malloc_r+0x650>
   116f0:	01400613          	li	a2,20
   116f4:	28d66e63          	bltu	a2,a3,11990 <_malloc_r+0x784>
   116f8:	00169513          	slli	a0,a3,0x1
   116fc:	0b85051b          	addiw	a0,a0,184
   11700:	00351513          	slli	a0,a0,0x3
   11704:	05b6861b          	addiw	a2,a3,91
   11708:	00a80533          	add	a0,a6,a0
   1170c:	00053683          	ld	a3,0(a0)
   11710:	ff050513          	addi	a0,a0,-16
   11714:	00d51863          	bne	a0,a3,11724 <_malloc_r+0x518>
   11718:	1f80006f          	j	11910 <_malloc_r+0x704>
   1171c:	0106b683          	ld	a3,16(a3)
   11720:	00d50863          	beq	a0,a3,11730 <_malloc_r+0x524>
   11724:	0086b603          	ld	a2,8(a3)
   11728:	ffc67613          	andi	a2,a2,-4
   1172c:	fec368e3          	bltu	t1,a2,1171c <_malloc_r+0x510>
   11730:	0186b503          	ld	a0,24(a3)
   11734:	00a7bc23          	sd	a0,24(a5)
   11738:	00d7b823          	sd	a3,16(a5)
   1173c:	00f53823          	sd	a5,16(a0)
   11740:	00f6bc23          	sd	a5,24(a3)
   11744:	c89ff06f          	j	113cc <_malloc_r+0x1c0>
   11748:	01400693          	li	a3,20
   1174c:	14f6fa63          	bgeu	a3,a5,118a0 <_malloc_r+0x694>
   11750:	05400693          	li	a3,84
   11754:	24f6ee63          	bltu	a3,a5,119b0 <_malloc_r+0x7a4>
   11758:	00c75793          	srli	a5,a4,0xc
   1175c:	06f7889b          	addiw	a7,a5,111
   11760:	0018951b          	slliw	a0,a7,0x1
   11764:	06e78e1b          	addiw	t3,a5,110
   11768:	00351513          	slli	a0,a0,0x3
   1176c:	ba1ff06f          	j	1130c <_malloc_r+0x100>
   11770:	001f8f9b          	addiw	t6,t6,1
   11774:	003ff793          	andi	a5,t6,3
   11778:	01030313          	addi	t1,t1,16
   1177c:	14078263          	beqz	a5,118c0 <_malloc_r+0x6b4>
   11780:	01833683          	ld	a3,24(t1)
   11784:	ca9ff06f          	j	1142c <_malloc_r+0x220>
   11788:	0107b503          	ld	a0,16(a5)
   1178c:	00176893          	ori	a7,a4,1
   11790:	0117b423          	sd	a7,8(a5)
   11794:	00d53c23          	sd	a3,24(a0)
   11798:	00a6b823          	sd	a0,16(a3)
   1179c:	00e78733          	add	a4,a5,a4
   117a0:	02e83423          	sd	a4,40(a6)
   117a4:	02e83023          	sd	a4,32(a6)
   117a8:	0015e693          	ori	a3,a1,1
   117ac:	00c78633          	add	a2,a5,a2
   117b0:	01c73c23          	sd	t3,24(a4)
   117b4:	01c73823          	sd	t3,16(a4)
   117b8:	00d73423          	sd	a3,8(a4)
   117bc:	00040513          	mv	a0,s0
   117c0:	00b63023          	sd	a1,0(a2)
   117c4:	00f13423          	sd	a5,8(sp)
   117c8:	32c000ef          	jal	11af4 <__malloc_unlock>
   117cc:	00813783          	ld	a5,8(sp)
   117d0:	01078513          	addi	a0,a5,16
   117d4:	addff06f          	j	112b0 <_malloc_r+0xa4>
   117d8:	00375893          	srli	a7,a4,0x3
   117dc:	00189693          	slli	a3,a7,0x1
   117e0:	0026869b          	addiw	a3,a3,2
   117e4:	00369693          	slli	a3,a3,0x3
   117e8:	0008889b          	sext.w	a7,a7
   117ec:	a55ff06f          	j	11240 <_malloc_r+0x34>
   117f0:	00678333          	add	t1,a5,t1
   117f4:	00833703          	ld	a4,8(t1)
   117f8:	00040513          	mv	a0,s0
   117fc:	00f13423          	sd	a5,8(sp)
   11800:	00176713          	ori	a4,a4,1
   11804:	00e33423          	sd	a4,8(t1)
   11808:	2ec000ef          	jal	11af4 <__malloc_unlock>
   1180c:	00813783          	ld	a5,8(sp)
   11810:	01078513          	addi	a0,a5,16
   11814:	a9dff06f          	j	112b0 <_malloc_r+0xa4>
   11818:	00176613          	ori	a2,a4,1
   1181c:	00c7b423          	sd	a2,8(a5)
   11820:	00e78733          	add	a4,a5,a4
   11824:	02e83423          	sd	a4,40(a6)
   11828:	02e83023          	sd	a4,32(a6)
   1182c:	0016e613          	ori	a2,a3,1
   11830:	00678333          	add	t1,a5,t1
   11834:	01c73c23          	sd	t3,24(a4)
   11838:	01c73823          	sd	t3,16(a4)
   1183c:	00c73423          	sd	a2,8(a4)
   11840:	00040513          	mv	a0,s0
   11844:	00d33023          	sd	a3,0(t1)
   11848:	00f13423          	sd	a5,8(sp)
   1184c:	2a8000ef          	jal	11af4 <__malloc_unlock>
   11850:	00813783          	ld	a5,8(sp)
   11854:	01078513          	addi	a0,a5,16
   11858:	a59ff06f          	j	112b0 <_malloc_r+0xa4>
   1185c:	00635693          	srli	a3,t1,0x6
   11860:	00169513          	slli	a0,a3,0x1
   11864:	0725051b          	addiw	a0,a0,114
   11868:	00351513          	slli	a0,a0,0x3
   1186c:	0386861b          	addiw	a2,a3,56
   11870:	e99ff06f          	j	11708 <_malloc_r+0x4fc>
   11874:	15078e63          	beq	a5,a6,119d0 <_malloc_r+0x7c4>
   11878:	01083783          	ld	a5,16(a6)
   1187c:	0087b683          	ld	a3,8(a5)
   11880:	ffc6f693          	andi	a3,a3,-4
   11884:	40e68633          	sub	a2,a3,a4
   11888:	00e6e663          	bltu	a3,a4,11894 <_malloc_r+0x688>
   1188c:	02062693          	slti	a3,a2,32
   11890:	dc0684e3          	beqz	a3,11658 <_malloc_r+0x44c>
   11894:	00040513          	mv	a0,s0
   11898:	25c000ef          	jal	11af4 <__malloc_unlock>
   1189c:	a11ff06f          	j	112ac <_malloc_r+0xa0>
   118a0:	05c7889b          	addiw	a7,a5,92
   118a4:	0018951b          	slliw	a0,a7,0x1
   118a8:	05b78e1b          	addiw	t3,a5,91
   118ac:	00351513          	slli	a0,a0,0x3
   118b0:	a5dff06f          	j	1130c <_malloc_r+0x100>
   118b4:	010f3783          	ld	a5,16(t5)
   118b8:	fff8889b          	addiw	a7,a7,-1
   118bc:	23e79663          	bne	a5,t5,11ae8 <_malloc_r+0x8dc>
   118c0:	0038f793          	andi	a5,a7,3
   118c4:	ff0f0f13          	addi	t5,t5,-16
   118c8:	fe0796e3          	bnez	a5,118b4 <_malloc_r+0x6a8>
   118cc:	00883683          	ld	a3,8(a6)
   118d0:	fff54793          	not	a5,a0
   118d4:	00d7f7b3          	and	a5,a5,a3
   118d8:	00f83423          	sd	a5,8(a6)
   118dc:	00151513          	slli	a0,a0,0x1
   118e0:	fff50693          	addi	a3,a0,-1
   118e4:	baf6f6e3          	bgeu	a3,a5,11490 <_malloc_r+0x284>
   118e8:	00f576b3          	and	a3,a0,a5
   118ec:	00069a63          	bnez	a3,11900 <_malloc_r+0x6f4>
   118f0:	00151513          	slli	a0,a0,0x1
   118f4:	00f576b3          	and	a3,a0,a5
   118f8:	004f8f9b          	addiw	t6,t6,4
   118fc:	fe068ae3          	beqz	a3,118f0 <_malloc_r+0x6e4>
   11900:	000f8893          	mv	a7,t6
   11904:	b09ff06f          	j	1140c <_malloc_r+0x200>
   11908:	02058593          	addi	a1,a1,32
   1190c:	bc9ff06f          	j	114d4 <_malloc_r+0x2c8>
   11910:	4026561b          	sraiw	a2,a2,0x2
   11914:	00100313          	li	t1,1
   11918:	00c31633          	sll	a2,t1,a2
   1191c:	00c5e5b3          	or	a1,a1,a2
   11920:	00b83423          	sd	a1,8(a6)
   11924:	e11ff06f          	j	11734 <_malloc_r+0x528>
   11928:	00b30633          	add	a2,t1,a1
   1192c:	40c005b3          	neg	a1,a2
   11930:	03459593          	slli	a1,a1,0x34
   11934:	0345d593          	srli	a1,a1,0x34
   11938:	00040513          	mv	a0,s0
   1193c:	03c13c23          	sd	t3,56(sp)
   11940:	03013823          	sd	a6,48(sp)
   11944:	02f13423          	sd	a5,40(sp)
   11948:	02e13023          	sd	a4,32(sp)
   1194c:	01113c23          	sd	a7,24(sp)
   11950:	00613823          	sd	t1,16(sp)
   11954:	00c13423          	sd	a2,8(sp)
   11958:	04b13023          	sd	a1,64(sp)
   1195c:	4f5030ef          	jal	15650 <_sbrk_r>
   11960:	00050693          	mv	a3,a0
   11964:	fff00513          	li	a0,-1
   11968:	01013303          	ld	t1,16(sp)
   1196c:	01813883          	ld	a7,24(sp)
   11970:	02013703          	ld	a4,32(sp)
   11974:	02813783          	ld	a5,40(sp)
   11978:	03013803          	ld	a6,48(sp)
   1197c:	03813e03          	ld	t3,56(sp)
   11980:	0ea68463          	beq	a3,a0,11a68 <_malloc_r+0x85c>
   11984:	04013583          	ld	a1,64(sp)
   11988:	0005851b          	sext.w	a0,a1
   1198c:	c49ff06f          	j	115d4 <_malloc_r+0x3c8>
   11990:	05400613          	li	a2,84
   11994:	08d66063          	bltu	a2,a3,11a14 <_malloc_r+0x808>
   11998:	00c35693          	srli	a3,t1,0xc
   1199c:	00169513          	slli	a0,a3,0x1
   119a0:	0de5051b          	addiw	a0,a0,222
   119a4:	00351513          	slli	a0,a0,0x3
   119a8:	06e6861b          	addiw	a2,a3,110
   119ac:	d5dff06f          	j	11708 <_malloc_r+0x4fc>
   119b0:	15400693          	li	a3,340
   119b4:	08f6e063          	bltu	a3,a5,11a34 <_malloc_r+0x828>
   119b8:	00f75793          	srli	a5,a4,0xf
   119bc:	0787889b          	addiw	a7,a5,120
   119c0:	0018951b          	slliw	a0,a7,0x1
   119c4:	07778e1b          	addiw	t3,a5,119
   119c8:	00351513          	slli	a0,a0,0x3
   119cc:	941ff06f          	j	1130c <_malloc_r+0x100>
   119d0:	4c018e13          	addi	t3,gp,1216 # 20938 <__malloc_current_mallinfo>
   119d4:	000e2503          	lw	a0,0(t3)
   119d8:	00b5053b          	addw	a0,a0,a1
   119dc:	00ae2023          	sw	a0,0(t3)
   119e0:	b51ff06f          	j	11530 <_malloc_r+0x324>
   119e4:	03431f13          	slli	t5,t1,0x34
   119e8:	b40f14e3          	bnez	t5,11530 <_malloc_r+0x324>
   119ec:	01083303          	ld	t1,16(a6)
   119f0:	00b885b3          	add	a1,a7,a1
   119f4:	0015e693          	ori	a3,a1,1
   119f8:	00d33423          	sd	a3,8(t1)
   119fc:	c35ff06f          	j	11630 <_malloc_r+0x424>
   11a00:	2261b423          	sd	t1,552(gp) # 206a0 <__malloc_sbrk_base>
   11a04:	b45ff06f          	j	11548 <_malloc_r+0x33c>
   11a08:	00100793          	li	a5,1
   11a0c:	00f33423          	sd	a5,8(t1)
   11a10:	e85ff06f          	j	11894 <_malloc_r+0x688>
   11a14:	15400613          	li	a2,340
   11a18:	08d66a63          	bltu	a2,a3,11aac <_malloc_r+0x8a0>
   11a1c:	00f35693          	srli	a3,t1,0xf
   11a20:	00169513          	slli	a0,a3,0x1
   11a24:	0f05051b          	addiw	a0,a0,240
   11a28:	00351513          	slli	a0,a0,0x3
   11a2c:	0776861b          	addiw	a2,a3,119
   11a30:	cd9ff06f          	j	11708 <_malloc_r+0x4fc>
   11a34:	55400693          	li	a3,1364
   11a38:	08f6ea63          	bltu	a3,a5,11acc <_malloc_r+0x8c0>
   11a3c:	01275793          	srli	a5,a4,0x12
   11a40:	07d7889b          	addiw	a7,a5,125
   11a44:	0018951b          	slliw	a0,a7,0x1
   11a48:	07c78e1b          	addiw	t3,a5,124
   11a4c:	00351513          	slli	a0,a0,0x3
   11a50:	8bdff06f          	j	1130c <_malloc_r+0x100>
   11a54:	ff0e8e93          	addi	t4,t4,-16
   11a58:	01d606b3          	add	a3,a2,t4
   11a5c:	00000513          	li	a0,0
   11a60:	00000593          	li	a1,0
   11a64:	b71ff06f          	j	115d4 <_malloc_r+0x3c8>
   11a68:	00813683          	ld	a3,8(sp)
   11a6c:	00000593          	li	a1,0
   11a70:	00000513          	li	a0,0
   11a74:	b61ff06f          	j	115d4 <_malloc_r+0x3c8>
   11a78:	01078593          	addi	a1,a5,16
   11a7c:	00040513          	mv	a0,s0
   11a80:	01c13c23          	sd	t3,24(sp)
   11a84:	01013823          	sd	a6,16(sp)
   11a88:	00e13423          	sd	a4,8(sp)
   11a8c:	c7cff0ef          	jal	10f08 <_free_r>
   11a90:	01013803          	ld	a6,16(sp)
   11a94:	01813e03          	ld	t3,24(sp)
   11a98:	00813703          	ld	a4,8(sp)
   11a9c:	01083303          	ld	t1,16(a6)
   11aa0:	000e2603          	lw	a2,0(t3)
   11aa4:	00833683          	ld	a3,8(t1)
   11aa8:	b89ff06f          	j	11630 <_malloc_r+0x424>
   11aac:	55400613          	li	a2,1364
   11ab0:	02d66663          	bltu	a2,a3,11adc <_malloc_r+0x8d0>
   11ab4:	01235693          	srli	a3,t1,0x12
   11ab8:	00169513          	slli	a0,a3,0x1
   11abc:	0fa5051b          	addiw	a0,a0,250
   11ac0:	00351513          	slli	a0,a0,0x3
   11ac4:	07c6861b          	addiw	a2,a3,124
   11ac8:	c41ff06f          	j	11708 <_malloc_r+0x4fc>
   11acc:	7f000513          	li	a0,2032
   11ad0:	07f00893          	li	a7,127
   11ad4:	07e00e13          	li	t3,126
   11ad8:	835ff06f          	j	1130c <_malloc_r+0x100>
   11adc:	7f000513          	li	a0,2032
   11ae0:	07e00613          	li	a2,126
   11ae4:	c25ff06f          	j	11708 <_malloc_r+0x4fc>
   11ae8:	00883783          	ld	a5,8(a6)
   11aec:	df1ff06f          	j	118dc <_malloc_r+0x6d0>

0000000000011af0 <__malloc_lock>:
   11af0:	00008067          	ret

0000000000011af4 <__malloc_unlock>:
   11af4:	00008067          	ret

0000000000011af8 <_vfprintf_r>:
   11af8:	db010113          	addi	sp,sp,-592
   11afc:	24113423          	sd	ra,584(sp)
   11b00:	24813023          	sd	s0,576(sp)
   11b04:	22913c23          	sd	s1,568(sp)
   11b08:	21613823          	sd	s6,528(sp)
   11b0c:	00d13c23          	sd	a3,24(sp)
   11b10:	00060b13          	mv	s6,a2
   11b14:	00058493          	mv	s1,a1
   11b18:	00050413          	mv	s0,a0
   11b1c:	00a13023          	sd	a0,0(sp)
   11b20:	321030ef          	jal	15640 <_localeconv_r>
   11b24:	00053703          	ld	a4,0(a0)
   11b28:	00070513          	mv	a0,a4
   11b2c:	04e13823          	sd	a4,80(sp)
   11b30:	629030ef          	jal	15958 <strlen>
   11b34:	04a13423          	sd	a0,72(sp)
   11b38:	0c013823          	sd	zero,208(sp)
   11b3c:	0c013c23          	sd	zero,216(sp)
   11b40:	00040863          	beqz	s0,11b50 <_vfprintf_r+0x58>
   11b44:	04843783          	ld	a5,72(s0)
   11b48:	00079463          	bnez	a5,11b50 <_vfprintf_r+0x58>
   11b4c:	4450106f          	j	13790 <_vfprintf_r+0x1c98>
   11b50:	01049783          	lh	a5,16(s1)
   11b54:	0ac4a703          	lw	a4,172(s1)
   11b58:	00002637          	lui	a2,0x2
   11b5c:	03279693          	slli	a3,a5,0x32
   11b60:	3606c263          	bltz	a3,11ec4 <_vfprintf_r+0x3cc>
   11b64:	ffffe6b7          	lui	a3,0xffffe
   11b68:	00c7e7b3          	or	a5,a5,a2
   11b6c:	fff68693          	addi	a3,a3,-1 # ffffffffffffdfff <__BSS_END__+0xfffffffffffdd387>
   11b70:	00d77733          	and	a4,a4,a3
   11b74:	00f49823          	sh	a5,16(s1)
   11b78:	0107979b          	slliw	a5,a5,0x10
   11b7c:	4107d79b          	sraiw	a5,a5,0x10
   11b80:	0ae4a623          	sw	a4,172(s1)
   11b84:	0087f713          	andi	a4,a5,8
   11b88:	2c070c63          	beqz	a4,11e60 <_vfprintf_r+0x368>
   11b8c:	0184b703          	ld	a4,24(s1)
   11b90:	2c070863          	beqz	a4,11e60 <_vfprintf_r+0x368>
   11b94:	01a7f793          	andi	a5,a5,26
   11b98:	00a00713          	li	a4,10
   11b9c:	2ee78263          	beq	a5,a4,11e80 <_vfprintf_r+0x388>
   11ba0:	0001e7b7          	lui	a5,0x1e
   11ba4:	23313423          	sd	s3,552(sp)
   11ba8:	23413023          	sd	s4,544(sp)
   11bac:	16010993          	addi	s3,sp,352
   11bb0:	0001ea37          	lui	s4,0x1e
   11bb4:	42878793          	addi	a5,a5,1064 # 1e428 <__clzdi2+0x1dc>
   11bb8:	21713423          	sd	s7,520(sp)
   11bbc:	1f913c23          	sd	s9,504(sp)
   11bc0:	23213823          	sd	s2,560(sp)
   11bc4:	21513c23          	sd	s5,536(sp)
   11bc8:	21813023          	sd	s8,512(sp)
   11bcc:	1fa13823          	sd	s10,496(sp)
   11bd0:	1fb13423          	sd	s11,488(sp)
   11bd4:	0e013823          	sd	zero,240(sp)
   11bd8:	0e012423          	sw	zero,232(sp)
   11bdc:	0f313023          	sd	s3,224(sp)
   11be0:	00098b93          	mv	s7,s3
   11be4:	02f13423          	sd	a5,40(sp)
   11be8:	598a0a13          	addi	s4,s4,1432 # 1e598 <zeroes.0>
   11bec:	02013823          	sd	zero,48(sp)
   11bf0:	04013c23          	sd	zero,88(sp)
   11bf4:	06013423          	sd	zero,104(sp)
   11bf8:	08013023          	sd	zero,128(sp)
   11bfc:	06013023          	sd	zero,96(sp)
   11c00:	00013823          	sd	zero,16(sp)
   11c04:	01000413          	li	s0,16
   11c08:	000b0c93          	mv	s9,s6
   11c0c:	00913423          	sd	s1,8(sp)
   11c10:	000cc703          	lbu	a4,0(s9)
   11c14:	000c8913          	mv	s2,s9
   11c18:	fdb70793          	addi	a5,a4,-37
   11c1c:	0007069b          	sext.w	a3,a4
   11c20:	06078463          	beqz	a5,11c88 <_vfprintf_r+0x190>
   11c24:	06068263          	beqz	a3,11c88 <_vfprintf_r+0x190>
   11c28:	00090a93          	mv	s5,s2
   11c2c:	00194703          	lbu	a4,1(s2)
   11c30:	00190913          	addi	s2,s2,1
   11c34:	0007079b          	sext.w	a5,a4
   11c38:	00070663          	beqz	a4,11c44 <_vfprintf_r+0x14c>
   11c3c:	fdb78793          	addi	a5,a5,-37
   11c40:	fe0794e3          	bnez	a5,11c28 <_vfprintf_r+0x130>
   11c44:	41990b3b          	subw	s6,s2,s9
   11c48:	040b0063          	beqz	s6,11c88 <_vfprintf_r+0x190>
   11c4c:	0f013703          	ld	a4,240(sp)
   11c50:	0e812783          	lw	a5,232(sp)
   11c54:	019bb023          	sd	s9,0(s7)
   11c58:	01670733          	add	a4,a4,s6
   11c5c:	0017879b          	addiw	a5,a5,1
   11c60:	016bb423          	sd	s6,8(s7)
   11c64:	0ee13823          	sd	a4,240(sp)
   11c68:	0ef12423          	sw	a5,232(sp)
   11c6c:	00700713          	li	a4,7
   11c70:	010b8b93          	addi	s7,s7,16
   11c74:	22f74863          	blt	a4,a5,11ea4 <_vfprintf_r+0x3ac>
   11c78:	01013783          	ld	a5,16(sp)
   11c7c:	001ac703          	lbu	a4,1(s5)
   11c80:	016787bb          	addw	a5,a5,s6
   11c84:	00f13823          	sd	a5,16(sp)
   11c88:	00071463          	bnez	a4,11c90 <_vfprintf_r+0x198>
   11c8c:	3e90106f          	j	13874 <_vfprintf_r+0x1d7c>
   11c90:	00194303          	lbu	t1,1(s2)
   11c94:	00190c93          	addi	s9,s2,1
   11c98:	0a0103a3          	sb	zero,167(sp)
   11c9c:	fff00a93          	li	s5,-1
   11ca0:	00000d13          	li	s10,0
   11ca4:	05a00913          	li	s2,90
   11ca8:	00000493          	li	s1,0
   11cac:	001c8c93          	addi	s9,s9,1
   11cb0:	0003031b          	sext.w	t1,t1
   11cb4:	fe03079b          	addiw	a5,t1,-32
   11cb8:	04f96a63          	bltu	s2,a5,11d0c <_vfprintf_r+0x214>
   11cbc:	02079713          	slli	a4,a5,0x20
   11cc0:	01e75793          	srli	a5,a4,0x1e
   11cc4:	02813703          	ld	a4,40(sp)
   11cc8:	00e787b3          	add	a5,a5,a4
   11ccc:	0007a783          	lw	a5,0(a5)
   11cd0:	00078067          	jr	a5
   11cd4:	00000d13          	li	s10,0
   11cd8:	00900693          	li	a3,9
   11cdc:	002d179b          	slliw	a5,s10,0x2
   11ce0:	001c8c93          	addi	s9,s9,1
   11ce4:	01a78d3b          	addw	s10,a5,s10
   11ce8:	fffcc783          	lbu	a5,-1(s9)
   11cec:	fd03031b          	addiw	t1,t1,-48
   11cf0:	001d1d1b          	slliw	s10,s10,0x1
   11cf4:	fd07871b          	addiw	a4,a5,-48
   11cf8:	01a30d3b          	addw	s10,t1,s10
   11cfc:	0007831b          	sext.w	t1,a5
   11d00:	fce6fee3          	bgeu	a3,a4,11cdc <_vfprintf_r+0x1e4>
   11d04:	fe03079b          	addiw	a5,t1,-32
   11d08:	faf97ae3          	bgeu	s2,a5,11cbc <_vfprintf_r+0x1c4>
   11d0c:	00048e13          	mv	t3,s1
   11d10:	00031463          	bnez	t1,11d18 <_vfprintf_r+0x220>
   11d14:	3610106f          	j	13874 <_vfprintf_r+0x1d7c>
   11d18:	00100b13          	li	s6,1
   11d1c:	0e610c23          	sb	t1,248(sp)
   11d20:	0a0103a3          	sb	zero,167(sp)
   11d24:	000b0813          	mv	a6,s6
   11d28:	02013023          	sd	zero,32(sp)
   11d2c:	00000a93          	li	s5,0
   11d30:	04013023          	sd	zero,64(sp)
   11d34:	02013c23          	sd	zero,56(sp)
   11d38:	00000493          	li	s1,0
   11d3c:	0f810d93          	addi	s11,sp,248
   11d40:	0f013903          	ld	s2,240(sp)
   11d44:	084e7293          	andi	t0,t3,132
   11d48:	00090593          	mv	a1,s2
   11d4c:	20028ce3          	beqz	t0,12764 <_vfprintf_r+0xc6c>
   11d50:	0a714703          	lbu	a4,167(sp)
   11d54:	06070863          	beqz	a4,11dc4 <_vfprintf_r+0x2cc>
   11d58:	0e812603          	lw	a2,232(sp)
   11d5c:	00000393          	li	t2,0
   11d60:	0a710713          	addi	a4,sp,167
   11d64:	00ebb023          	sd	a4,0(s7)
   11d68:	00190913          	addi	s2,s2,1
   11d6c:	00100713          	li	a4,1
   11d70:	0016061b          	addiw	a2,a2,1 # 2001 <exit-0xe11f>
   11d74:	00ebb423          	sd	a4,8(s7)
   11d78:	0f213823          	sd	s2,240(sp)
   11d7c:	0ec12423          	sw	a2,232(sp)
   11d80:	00700713          	li	a4,7
   11d84:	010b8b93          	addi	s7,s7,16
   11d88:	40c74863          	blt	a4,a2,12198 <_vfprintf_r+0x6a0>
   11d8c:	02038c63          	beqz	t2,11dc4 <_vfprintf_r+0x2cc>
   11d90:	0e812603          	lw	a2,232(sp)
   11d94:	0a810713          	addi	a4,sp,168
   11d98:	00ebb023          	sd	a4,0(s7)
   11d9c:	00290913          	addi	s2,s2,2
   11da0:	00200713          	li	a4,2
   11da4:	0016061b          	addiw	a2,a2,1
   11da8:	00ebb423          	sd	a4,8(s7)
   11dac:	0f213823          	sd	s2,240(sp)
   11db0:	0ec12423          	sw	a2,232(sp)
   11db4:	00700713          	li	a4,7
   11db8:	010b8b93          	addi	s7,s7,16
   11dbc:	00c75463          	bge	a4,a2,11dc4 <_vfprintf_r+0x2cc>
   11dc0:	7e50006f          	j	12da4 <_vfprintf_r+0x12ac>
   11dc4:	08000713          	li	a4,128
   11dc8:	50e284e3          	beq	t0,a4,12ad0 <_vfprintf_r+0xfd8>
   11dcc:	416a8abb          	subw	s5,s5,s6
   11dd0:	1b5046e3          	bgtz	s5,1277c <_vfprintf_r+0xc84>
   11dd4:	100e7713          	andi	a4,t3,256
   11dd8:	2a071ce3          	bnez	a4,12890 <_vfprintf_r+0xd98>
   11ddc:	0e812783          	lw	a5,232(sp)
   11de0:	01690933          	add	s2,s2,s6
   11de4:	0f213823          	sd	s2,240(sp)
   11de8:	0017879b          	addiw	a5,a5,1
   11dec:	01bbb023          	sd	s11,0(s7)
   11df0:	016bb423          	sd	s6,8(s7)
   11df4:	00700713          	li	a4,7
   11df8:	0ef12423          	sw	a5,232(sp)
   11dfc:	48f74863          	blt	a4,a5,1228c <_vfprintf_r+0x794>
   11e00:	010b8b93          	addi	s7,s7,16
   11e04:	004e7f13          	andi	t5,t3,4
   11e08:	000f0863          	beqz	t5,11e18 <_vfprintf_r+0x320>
   11e0c:	410d0abb          	subw	s5,s10,a6
   11e10:	01505463          	blez	s5,11e18 <_vfprintf_r+0x320>
   11e14:	7d10006f          	j	12de4 <_vfprintf_r+0x12ec>
   11e18:	000d0793          	mv	a5,s10
   11e1c:	010d5463          	bge	s10,a6,11e24 <_vfprintf_r+0x32c>
   11e20:	00080793          	mv	a5,a6
   11e24:	01013703          	ld	a4,16(sp)
   11e28:	00e787bb          	addw	a5,a5,a4
   11e2c:	00f13823          	sd	a5,16(sp)
   11e30:	5a091ce3          	bnez	s2,12be8 <_vfprintf_r+0x10f0>
   11e34:	02013783          	ld	a5,32(sp)
   11e38:	0e012423          	sw	zero,232(sp)
   11e3c:	00078863          	beqz	a5,11e4c <_vfprintf_r+0x354>
   11e40:	02013583          	ld	a1,32(sp)
   11e44:	00013503          	ld	a0,0(sp)
   11e48:	8c0ff0ef          	jal	10f08 <_free_r>
   11e4c:	00098b93          	mv	s7,s3
   11e50:	dc1ff06f          	j	11c10 <_vfprintf_r+0x118>
   11e54:	000cc303          	lbu	t1,0(s9)
   11e58:	0104e493          	ori	s1,s1,16
   11e5c:	e51ff06f          	j	11cac <_vfprintf_r+0x1b4>
   11e60:	00013503          	ld	a0,0(sp)
   11e64:	00048593          	mv	a1,s1
   11e68:	4f0030ef          	jal	15358 <__swsetup_r>
   11e6c:	06051063          	bnez	a0,11ecc <_vfprintf_r+0x3d4>
   11e70:	01049783          	lh	a5,16(s1)
   11e74:	00a00713          	li	a4,10
   11e78:	01a7f793          	andi	a5,a5,26
   11e7c:	d2e792e3          	bne	a5,a4,11ba0 <_vfprintf_r+0xa8>
   11e80:	01249783          	lh	a5,18(s1)
   11e84:	d007cee3          	bltz	a5,11ba0 <_vfprintf_r+0xa8>
   11e88:	01813683          	ld	a3,24(sp)
   11e8c:	00013503          	ld	a0,0(sp)
   11e90:	000b0613          	mv	a2,s6
   11e94:	00048593          	mv	a1,s1
   11e98:	281020ef          	jal	14918 <__sbprintf>
   11e9c:	00a13823          	sd	a0,16(sp)
   11ea0:	5a50006f          	j	12c44 <_vfprintf_r+0x114c>
   11ea4:	00813583          	ld	a1,8(sp)
   11ea8:	00013503          	ld	a0,0(sp)
   11eac:	0e010613          	addi	a2,sp,224
   11eb0:	329020ef          	jal	149d8 <__sprint_r>
   11eb4:	00050463          	beqz	a0,11ebc <_vfprintf_r+0x3c4>
   11eb8:	70c0206f          	j	145c4 <_vfprintf_r+0x2acc>
   11ebc:	00098b93          	mv	s7,s3
   11ec0:	db9ff06f          	j	11c78 <_vfprintf_r+0x180>
   11ec4:	03271693          	slli	a3,a4,0x32
   11ec8:	ca06dee3          	bgez	a3,11b84 <_vfprintf_r+0x8c>
   11ecc:	fff00793          	li	a5,-1
   11ed0:	00f13823          	sd	a5,16(sp)
   11ed4:	5710006f          	j	12c44 <_vfprintf_r+0x114c>
   11ed8:	0084f793          	andi	a5,s1,8
   11edc:	00048e13          	mv	t3,s1
   11ee0:	00078463          	beqz	a5,11ee8 <_vfprintf_r+0x3f0>
   11ee4:	4bc0106f          	j	133a0 <_vfprintf_r+0x18a8>
   11ee8:	01813783          	ld	a5,24(sp)
   11eec:	02613023          	sd	t1,32(sp)
   11ef0:	02913c23          	sd	s1,56(sp)
   11ef4:	0007b503          	ld	a0,0(a5)
   11ef8:	1400c0ef          	jal	1e038 <__extenddftf2>
   11efc:	01813783          	ld	a5,24(sp)
   11f00:	03813e03          	ld	t3,56(sp)
   11f04:	02013303          	ld	t1,32(sp)
   11f08:	00878793          	addi	a5,a5,8
   11f0c:	00f13c23          	sd	a5,24(sp)
   11f10:	0ca13823          	sd	a0,208(sp)
   11f14:	0d010513          	addi	a0,sp,208
   11f18:	03c13c23          	sd	t3,56(sp)
   11f1c:	02613023          	sd	t1,32(sp)
   11f20:	0cb13c23          	sd	a1,216(sp)
   11f24:	6dd030ef          	jal	15e00 <_ldcheck>
   11f28:	0aa12823          	sw	a0,176(sp)
   11f2c:	00200793          	li	a5,2
   11f30:	02013303          	ld	t1,32(sp)
   11f34:	03813e03          	ld	t3,56(sp)
   11f38:	00f51463          	bne	a0,a5,11f40 <_vfprintf_r+0x448>
   11f3c:	0d50106f          	j	13810 <_vfprintf_r+0x1d18>
   11f40:	00100793          	li	a5,1
   11f44:	00f51463          	bne	a0,a5,11f4c <_vfprintf_r+0x454>
   11f48:	2490106f          	j	13990 <_vfprintf_r+0x1e98>
   11f4c:	fdf37913          	andi	s2,t1,-33
   11f50:	04100793          	li	a5,65
   11f54:	00f90463          	beq	s2,a5,11f5c <_vfprintf_r+0x464>
   11f58:	1f50106f          	j	1394c <_vfprintf_r+0x1e54>
   11f5c:	03000793          	li	a5,48
   11f60:	0af10423          	sb	a5,168(sp)
   11f64:	06100713          	li	a4,97
   11f68:	05800793          	li	a5,88
   11f6c:	00e31463          	bne	t1,a4,11f74 <_vfprintf_r+0x47c>
   11f70:	7c10106f          	j	13f30 <_vfprintf_r+0x2438>
   11f74:	0af104a3          	sb	a5,169(sp)
   11f78:	06300793          	li	a5,99
   11f7c:	0157d463          	bge	a5,s5,11f84 <_vfprintf_r+0x48c>
   11f80:	7b90106f          	j	13f38 <_vfprintf_r+0x2440>
   11f84:	0d813583          	ld	a1,216(sp)
   11f88:	0d013503          	ld	a0,208(sp)
   11f8c:	0005d463          	bgez	a1,11f94 <_vfprintf_r+0x49c>
   11f90:	6140206f          	j	145a4 <_vfprintf_r+0x2aac>
   11f94:	06013823          	sd	zero,112(sp)
   11f98:	02013023          	sd	zero,32(sp)
   11f9c:	0f810d93          	addi	s11,sp,248
   11fa0:	002e6793          	ori	a5,t3,2
   11fa4:	0b010613          	addi	a2,sp,176
   11fa8:	02613823          	sd	t1,48(sp)
   11fac:	02f13c23          	sd	a5,56(sp)
   11fb0:	27d030ef          	jal	15a2c <frexpl>
   11fb4:	00fff6b7          	lui	a3,0xfff
   11fb8:	02669693          	slli	a3,a3,0x26
   11fbc:	00000613          	li	a2,0
   11fc0:	0740b0ef          	jal	1d034 <__multf3>
   11fc4:	00000613          	li	a2,0
   11fc8:	00000693          	li	a3,0
   11fcc:	00050493          	mv	s1,a0
   11fd0:	00058913          	mv	s2,a1
   11fd4:	5ed0a0ef          	jal	1cdc0 <__eqtf2>
   11fd8:	03013303          	ld	t1,48(sp)
   11fdc:	00051663          	bnez	a0,11fe8 <_vfprintf_r+0x4f0>
   11fe0:	00100713          	li	a4,1
   11fe4:	0ae12823          	sw	a4,176(sp)
   11fe8:	06100713          	li	a4,97
   11fec:	00e31463          	bne	t1,a4,11ff4 <_vfprintf_r+0x4fc>
   11ff0:	78c0206f          	j	1477c <_vfprintf_r+0x2c84>
   11ff4:	0001e737          	lui	a4,0x1e
   11ff8:	2e070793          	addi	a5,a4,736 # 1e2e0 <__clzdi2+0x94>
   11ffc:	02f13823          	sd	a5,48(sp)
   12000:	05713023          	sd	s7,64(sp)
   12004:	05913c23          	sd	s9,88(sp)
   12008:	03013b83          	ld	s7,48(sp)
   1200c:	000d8b13          	mv	s6,s11
   12010:	00030c93          	mv	s9,t1
   12014:	01c0006f          	j	12030 <_vfprintf_r+0x538>
   12018:	00000613          	li	a2,0
   1201c:	00000693          	li	a3,0
   12020:	5a10a0ef          	jal	1cdc0 <__eqtf2>
   12024:	00051463          	bnez	a0,1202c <_vfprintf_r+0x534>
   12028:	7140206f          	j	1473c <_vfprintf_r+0x2c44>
   1202c:	fffa8a9b          	addiw	s5,s5,-1
   12030:	040036b7          	lui	a3,0x4003
   12034:	02469693          	slli	a3,a3,0x24
   12038:	00000613          	li	a2,0
   1203c:	00048513          	mv	a0,s1
   12040:	00090593          	mv	a1,s2
   12044:	7f10a0ef          	jal	1d034 <__multf3>
   12048:	00058493          	mv	s1,a1
   1204c:	00050913          	mv	s2,a0
   12050:	6f50b0ef          	jal	1df44 <__fixtfsi>
   12054:	00050c1b          	sext.w	s8,a0
   12058:	000c0513          	mv	a0,s8
   1205c:	7550b0ef          	jal	1dfb0 <__floatsitf>
   12060:	00050613          	mv	a2,a0
   12064:	00058693          	mv	a3,a1
   12068:	00090513          	mv	a0,s2
   1206c:	00048593          	mv	a1,s1
   12070:	6dc0b0ef          	jal	1d74c <__subtf3>
   12074:	018b86b3          	add	a3,s7,s8
   12078:	0006c683          	lbu	a3,0(a3) # 4003000 <__BSS_END__+0x3fe2388>
   1207c:	000b0613          	mv	a2,s6
   12080:	00050493          	mv	s1,a0
   12084:	00db0023          	sb	a3,0(s6)
   12088:	001b0b13          	addi	s6,s6,1
   1208c:	00058913          	mv	s2,a1
   12090:	f80a94e3          	bnez	s5,12018 <_vfprintf_r+0x520>
   12094:	01fff6b7          	lui	a3,0x1fff
   12098:	000b0793          	mv	a5,s6
   1209c:	00060493          	mv	s1,a2
   120a0:	02569693          	slli	a3,a3,0x25
   120a4:	00000613          	li	a2,0
   120a8:	04013b83          	ld	s7,64(sp)
   120ac:	000c0b13          	mv	s6,s8
   120b0:	05913023          	sd	s9,64(sp)
   120b4:	00050a93          	mv	s5,a0
   120b8:	00078c13          	mv	s8,a5
   120bc:	5a10a0ef          	jal	1ce5c <__getf2>
   120c0:	05813c83          	ld	s9,88(sp)
   120c4:	04013303          	ld	t1,64(sp)
   120c8:	02a04663          	bgtz	a0,120f4 <_vfprintf_r+0x5fc>
   120cc:	01fff6b7          	lui	a3,0x1fff
   120d0:	000a8513          	mv	a0,s5
   120d4:	00090593          	mv	a1,s2
   120d8:	02569693          	slli	a3,a3,0x25
   120dc:	00000613          	li	a2,0
   120e0:	4e10a0ef          	jal	1cdc0 <__eqtf2>
   120e4:	04013303          	ld	t1,64(sp)
   120e8:	04051c63          	bnez	a0,12140 <_vfprintf_r+0x648>
   120ec:	001b7713          	andi	a4,s6,1
   120f0:	04070863          	beqz	a4,12140 <_vfprintf_r+0x648>
   120f4:	03013783          	ld	a5,48(sp)
   120f8:	0c913423          	sd	s1,200(sp)
   120fc:	fffc4683          	lbu	a3,-1(s8)
   12100:	00f7c603          	lbu	a2,15(a5)
   12104:	000c0713          	mv	a4,s8
   12108:	02d61063          	bne	a2,a3,12128 <_vfprintf_r+0x630>
   1210c:	03000593          	li	a1,48
   12110:	feb70fa3          	sb	a1,-1(a4)
   12114:	0c813703          	ld	a4,200(sp)
   12118:	fff70793          	addi	a5,a4,-1
   1211c:	0cf13423          	sd	a5,200(sp)
   12120:	fff74683          	lbu	a3,-1(a4)
   12124:	fec686e3          	beq	a3,a2,12110 <_vfprintf_r+0x618>
   12128:	03900613          	li	a2,57
   1212c:	00c69463          	bne	a3,a2,12134 <_vfprintf_r+0x63c>
   12130:	7480206f          	j	14878 <_vfprintf_r+0x2d80>
   12134:	0016869b          	addiw	a3,a3,1 # 1fff001 <__BSS_END__+0x1fde389>
   12138:	0ff6f693          	zext.b	a3,a3
   1213c:	fed70fa3          	sb	a3,-1(a4)
   12140:	0b012703          	lw	a4,176(sp)
   12144:	00f3069b          	addiw	a3,t1,15
   12148:	41bc07bb          	subw	a5,s8,s11
   1214c:	fff70a9b          	addiw	s5,a4,-1
   12150:	0ad10c23          	sb	a3,184(sp)
   12154:	0b512823          	sw	s5,176(sp)
   12158:	02f13823          	sd	a5,48(sp)
   1215c:	000ad463          	bgez	s5,12164 <_vfprintf_r+0x66c>
   12160:	6bc0206f          	j	1481c <_vfprintf_r+0x2d24>
   12164:	02b00713          	li	a4,43
   12168:	0ae10ca3          	sb	a4,185(sp)
   1216c:	00900713          	li	a4,9
   12170:	01575463          	bge	a4,s5,12178 <_vfprintf_r+0x680>
   12174:	6f90106f          	j	1406c <_vfprintf_r+0x2574>
   12178:	0ba10713          	addi	a4,sp,186
   1217c:	1e010793          	addi	a5,sp,480
   12180:	030a869b          	addiw	a3,s5,48
   12184:	00d70023          	sb	a3,0(a4)
   12188:	40f70733          	sub	a4,a4,a5
   1218c:	1297079b          	addiw	a5,a4,297
   12190:	04f13c23          	sd	a5,88(sp)
   12194:	7650106f          	j	140f8 <_vfprintf_r+0x2600>
   12198:	00813583          	ld	a1,8(sp)
   1219c:	00013503          	ld	a0,0(sp)
   121a0:	0e010613          	addi	a2,sp,224
   121a4:	09013c23          	sd	a6,152(sp)
   121a8:	09c13823          	sd	t3,144(sp)
   121ac:	08613423          	sd	t1,136(sp)
   121b0:	06513c23          	sd	t0,120(sp)
   121b4:	06713823          	sd	t2,112(sp)
   121b8:	021020ef          	jal	149d8 <__sprint_r>
   121bc:	240510e3          	bnez	a0,12bfc <_vfprintf_r+0x1104>
   121c0:	0f013903          	ld	s2,240(sp)
   121c4:	09813803          	ld	a6,152(sp)
   121c8:	09013e03          	ld	t3,144(sp)
   121cc:	08813303          	ld	t1,136(sp)
   121d0:	07813283          	ld	t0,120(sp)
   121d4:	07013383          	ld	t2,112(sp)
   121d8:	00098b93          	mv	s7,s3
   121dc:	bb1ff06f          	j	11d8c <_vfprintf_r+0x294>
   121e0:	0e812703          	lw	a4,232(sp)
   121e4:	0001e6b7          	lui	a3,0x1e
   121e8:	30068693          	addi	a3,a3,768 # 1e300 <__clzdi2+0xb4>
   121ec:	00dbb023          	sd	a3,0(s7)
   121f0:	00190913          	addi	s2,s2,1
   121f4:	00100693          	li	a3,1
   121f8:	0017071b          	addiw	a4,a4,1
   121fc:	00dbb423          	sd	a3,8(s7)
   12200:	0f213823          	sd	s2,240(sp)
   12204:	0ee12423          	sw	a4,232(sp)
   12208:	00700693          	li	a3,7
   1220c:	010b8b93          	addi	s7,s7,16
   12210:	00e6d463          	bge	a3,a4,12218 <_vfprintf_r+0x720>
   12214:	7ad0106f          	j	141c0 <_vfprintf_r+0x26c8>
   12218:	03013783          	ld	a5,48(sp)
   1221c:	00c7e733          	or	a4,a5,a2
   12220:	00071463          	bnez	a4,12228 <_vfprintf_r+0x730>
   12224:	2950106f          	j	13cb8 <_vfprintf_r+0x21c0>
   12228:	04813783          	ld	a5,72(sp)
   1222c:	0e812703          	lw	a4,232(sp)
   12230:	00700693          	li	a3,7
   12234:	01278933          	add	s2,a5,s2
   12238:	05013783          	ld	a5,80(sp)
   1223c:	0017071b          	addiw	a4,a4,1
   12240:	0f213823          	sd	s2,240(sp)
   12244:	00fbb023          	sd	a5,0(s7)
   12248:	04813783          	ld	a5,72(sp)
   1224c:	0ee12423          	sw	a4,232(sp)
   12250:	010b8b93          	addi	s7,s7,16
   12254:	fefbbc23          	sd	a5,-8(s7)
   12258:	00e6d463          	bge	a3,a4,12260 <_vfprintf_r+0x768>
   1225c:	2990106f          	j	13cf4 <_vfprintf_r+0x21fc>
   12260:	00065463          	bgez	a2,12268 <_vfprintf_r+0x770>
   12264:	1a40206f          	j	14408 <_vfprintf_r+0x2910>
   12268:	03013783          	ld	a5,48(sp)
   1226c:	0017071b          	addiw	a4,a4,1
   12270:	0ee12423          	sw	a4,232(sp)
   12274:	01278933          	add	s2,a5,s2
   12278:	00fbb423          	sd	a5,8(s7)
   1227c:	0f213823          	sd	s2,240(sp)
   12280:	01bbb023          	sd	s11,0(s7)
   12284:	00700793          	li	a5,7
   12288:	b6e7dce3          	bge	a5,a4,11e00 <_vfprintf_r+0x308>
   1228c:	00813583          	ld	a1,8(sp)
   12290:	00013503          	ld	a0,0(sp)
   12294:	0e010613          	addi	a2,sp,224
   12298:	05013023          	sd	a6,64(sp)
   1229c:	03c13c23          	sd	t3,56(sp)
   122a0:	738020ef          	jal	149d8 <__sprint_r>
   122a4:	14051ce3          	bnez	a0,12bfc <_vfprintf_r+0x1104>
   122a8:	0f013903          	ld	s2,240(sp)
   122ac:	03813e03          	ld	t3,56(sp)
   122b0:	04013803          	ld	a6,64(sp)
   122b4:	00098b93          	mv	s7,s3
   122b8:	b4dff06f          	j	11e04 <_vfprintf_r+0x30c>
   122bc:	01813783          	ld	a5,24(sp)
   122c0:	00048e13          	mv	t3,s1
   122c4:	00100b13          	li	s6,1
   122c8:	0007a783          	lw	a5,0(a5)
   122cc:	0a0103a3          	sb	zero,167(sp)
   122d0:	0ef10c23          	sb	a5,248(sp)
   122d4:	01813783          	ld	a5,24(sp)
   122d8:	00878793          	addi	a5,a5,8
   122dc:	00f13c23          	sd	a5,24(sp)
   122e0:	a45ff06f          	j	11d24 <_vfprintf_r+0x22c>
   122e4:	01813783          	ld	a5,24(sp)
   122e8:	0a0103a3          	sb	zero,167(sp)
   122ec:	00048e13          	mv	t3,s1
   122f0:	0007bd83          	ld	s11,0(a5)
   122f4:	00878493          	addi	s1,a5,8
   122f8:	000d9463          	bnez	s11,12300 <_vfprintf_r+0x808>
   122fc:	2800106f          	j	1357c <_vfprintf_r+0x1a84>
   12300:	000ad463          	bgez	s5,12308 <_vfprintf_r+0x810>
   12304:	5900106f          	j	13894 <_vfprintf_r+0x1d9c>
   12308:	000a8613          	mv	a2,s5
   1230c:	00000593          	li	a1,0
   12310:	000d8513          	mv	a0,s11
   12314:	03c13c23          	sd	t3,56(sp)
   12318:	00613c23          	sd	t1,24(sp)
   1231c:	1a0030ef          	jal	154bc <memchr>
   12320:	02a13023          	sd	a0,32(sp)
   12324:	0a714703          	lbu	a4,167(sp)
   12328:	01813303          	ld	t1,24(sp)
   1232c:	03813e03          	ld	t3,56(sp)
   12330:	00051463          	bnez	a0,12338 <_vfprintf_r+0x840>
   12334:	0000206f          	j	14334 <_vfprintf_r+0x283c>
   12338:	41b50b3b          	subw	s6,a0,s11
   1233c:	000b0693          	mv	a3,s6
   12340:	000b5463          	bgez	s6,12348 <_vfprintf_r+0x850>
   12344:	27d0106f          	j	13dc0 <_vfprintf_r+0x22c8>
   12348:	0006881b          	sext.w	a6,a3
   1234c:	00070463          	beqz	a4,12354 <_vfprintf_r+0x85c>
   12350:	0016881b          	addiw	a6,a3,1
   12354:	00913c23          	sd	s1,24(sp)
   12358:	2400106f          	j	13598 <_vfprintf_r+0x1aa0>
   1235c:	01813703          	ld	a4,24(sp)
   12360:	0204f793          	andi	a5,s1,32
   12364:	00048e13          	mv	t3,s1
   12368:	00870613          	addi	a2,a4,8
   1236c:	0c079263          	bnez	a5,12430 <_vfprintf_r+0x938>
   12370:	0104f793          	andi	a5,s1,16
   12374:	00078463          	beqz	a5,1237c <_vfprintf_r+0x884>
   12378:	1140206f          	j	1448c <_vfprintf_r+0x2994>
   1237c:	01813703          	ld	a4,24(sp)
   12380:	0404f793          	andi	a5,s1,64
   12384:	00072703          	lw	a4,0(a4)
   12388:	00079463          	bnez	a5,12390 <_vfprintf_r+0x898>
   1238c:	55c0106f          	j	138e8 <_vfprintf_r+0x1df0>
   12390:	0107171b          	slliw	a4,a4,0x10
   12394:	4107571b          	sraiw	a4,a4,0x10
   12398:	00c13c23          	sd	a2,24(sp)
   1239c:	00070793          	mv	a5,a4
   123a0:	0a07c263          	bltz	a5,12444 <_vfprintf_r+0x94c>
   123a4:	0a0aca63          	bltz	s5,12458 <_vfprintf_r+0x960>
   123a8:	f7fe7e13          	andi	t3,t3,-129
   123ac:	0a071663          	bnez	a4,12458 <_vfprintf_r+0x960>
   123b0:	0a0a9463          	bnez	s5,12458 <_vfprintf_r+0x960>
   123b4:	0a714503          	lbu	a0,167(sp)
   123b8:	00051463          	bnez	a0,123c0 <_vfprintf_r+0x8c8>
   123bc:	5700106f          	j	1392c <_vfprintf_r+0x1e34>
   123c0:	00000813          	li	a6,0
   123c4:	00000493          	li	s1,0
   123c8:	02013023          	sd	zero,32(sp)
   123cc:	00000b13          	li	s6,0
   123d0:	00000a93          	li	s5,0
   123d4:	15c10d93          	addi	s11,sp,348
   123d8:	0018081b          	addiw	a6,a6,1
   123dc:	00049463          	bnez	s1,123e4 <_vfprintf_r+0x8ec>
   123e0:	4cc0206f          	j	148ac <_vfprintf_r+0x2db4>
   123e4:	0f013903          	ld	s2,240(sp)
   123e8:	0e812603          	lw	a2,232(sp)
   123ec:	084e7293          	andi	t0,t3,132
   123f0:	0028081b          	addiw	a6,a6,2
   123f4:	00090593          	mv	a1,s2
   123f8:	00060693          	mv	a3,a2
   123fc:	060282e3          	beqz	t0,12c60 <_vfprintf_r+0x1168>
   12400:	04013023          	sd	zero,64(sp)
   12404:	02013c23          	sd	zero,56(sp)
   12408:	00000493          	li	s1,0
   1240c:	980504e3          	beqz	a0,11d94 <_vfprintf_r+0x29c>
   12410:	00200393          	li	t2,2
   12414:	94dff06f          	j	11d60 <_vfprintf_r+0x268>
   12418:	0204f793          	andi	a5,s1,32
   1241c:	0104ef13          	ori	t5,s1,16
   12420:	70078ce3          	beqz	a5,13338 <_vfprintf_r+0x1840>
   12424:	01813783          	ld	a5,24(sp)
   12428:	000f0e13          	mv	t3,t5
   1242c:	00878613          	addi	a2,a5,8
   12430:	01813783          	ld	a5,24(sp)
   12434:	00c13c23          	sd	a2,24(sp)
   12438:	0007b783          	ld	a5,0(a5)
   1243c:	00078713          	mv	a4,a5
   12440:	f607d2e3          	bgez	a5,123a4 <_vfprintf_r+0x8ac>
   12444:	02d00793          	li	a5,45
   12448:	0af103a3          	sb	a5,167(sp)
   1244c:	40e00733          	neg	a4,a4
   12450:	000ac463          	bltz	s5,12458 <_vfprintf_r+0x960>
   12454:	f7fe7e13          	andi	t3,t3,-129
   12458:	00900793          	li	a5,9
   1245c:	14e7e863          	bltu	a5,a4,125ac <_vfprintf_r+0xab4>
   12460:	0307071b          	addiw	a4,a4,48
   12464:	14e10da3          	sb	a4,347(sp)
   12468:	000a881b          	sext.w	a6,s5
   1246c:	75505ae3          	blez	s5,133c0 <_vfprintf_r+0x18c8>
   12470:	0a714503          	lbu	a0,167(sp)
   12474:	00000493          	li	s1,0
   12478:	00100b13          	li	s6,1
   1247c:	15b10d93          	addi	s11,sp,347
   12480:	02013023          	sd	zero,32(sp)
   12484:	f4050ce3          	beqz	a0,123dc <_vfprintf_r+0x8e4>
   12488:	0018081b          	addiw	a6,a6,1
   1248c:	f51ff06f          	j	123dc <_vfprintf_r+0x8e4>
   12490:	01813783          	ld	a5,24(sp)
   12494:	0007ad03          	lw	s10,0(a5)
   12498:	620d56e3          	bgez	s10,132c4 <_vfprintf_r+0x17cc>
   1249c:	01813783          	ld	a5,24(sp)
   124a0:	41a00d3b          	negw	s10,s10
   124a4:	00878793          	addi	a5,a5,8
   124a8:	00f13c23          	sd	a5,24(sp)
   124ac:	000cc303          	lbu	t1,0(s9)
   124b0:	0044e493          	ori	s1,s1,4
   124b4:	ff8ff06f          	j	11cac <_vfprintf_r+0x1b4>
   124b8:	02b00793          	li	a5,43
   124bc:	000cc303          	lbu	t1,0(s9)
   124c0:	0af103a3          	sb	a5,167(sp)
   124c4:	fe8ff06f          	j	11cac <_vfprintf_r+0x1b4>
   124c8:	000cc303          	lbu	t1,0(s9)
   124cc:	0804e493          	ori	s1,s1,128
   124d0:	fdcff06f          	j	11cac <_vfprintf_r+0x1b4>
   124d4:	000cc303          	lbu	t1,0(s9)
   124d8:	02a00793          	li	a5,42
   124dc:	001c8613          	addi	a2,s9,1
   124e0:	00f31463          	bne	t1,a5,124e8 <_vfprintf_r+0x9f0>
   124e4:	2a80206f          	j	1478c <_vfprintf_r+0x2c94>
   124e8:	fd03071b          	addiw	a4,t1,-48
   124ec:	00900593          	li	a1,9
   124f0:	00000693          	li	a3,0
   124f4:	00060c93          	mv	s9,a2
   124f8:	00000a93          	li	s5,0
   124fc:	fae5ec63          	bltu	a1,a4,11cb4 <_vfprintf_r+0x1bc>
   12500:	0026979b          	slliw	a5,a3,0x2
   12504:	00064303          	lbu	t1,0(a2)
   12508:	00d787bb          	addw	a5,a5,a3
   1250c:	0017979b          	slliw	a5,a5,0x1
   12510:	00e786bb          	addw	a3,a5,a4
   12514:	fd03071b          	addiw	a4,t1,-48
   12518:	00160613          	addi	a2,a2,1
   1251c:	fee5f2e3          	bgeu	a1,a4,12500 <_vfprintf_r+0xa08>
   12520:	00068a9b          	sext.w	s5,a3
   12524:	7806cae3          	bltz	a3,134b8 <_vfprintf_r+0x19c0>
   12528:	00060c93          	mv	s9,a2
   1252c:	f88ff06f          	j	11cb4 <_vfprintf_r+0x1bc>
   12530:	0204f793          	andi	a5,s1,32
   12534:	0104ef13          	ori	t5,s1,16
   12538:	04079263          	bnez	a5,1257c <_vfprintf_r+0xa84>
   1253c:	01813783          	ld	a5,24(sp)
   12540:	01813703          	ld	a4,24(sp)
   12544:	0a0103a3          	sb	zero,167(sp)
   12548:	00878793          	addi	a5,a5,8
   1254c:	00073703          	ld	a4,0(a4)
   12550:	680ac4e3          	bltz	s5,133d8 <_vfprintf_r+0x18e0>
   12554:	00f13c23          	sd	a5,24(sp)
   12558:	f7ff7e13          	andi	t3,t5,-129
   1255c:	ee071ee3          	bnez	a4,12458 <_vfprintf_r+0x960>
   12560:	ee0a9ce3          	bnez	s5,12458 <_vfprintf_r+0x960>
   12564:	00000493          	li	s1,0
   12568:	4b00006f          	j	12a18 <_vfprintf_r+0xf20>
   1256c:	0204f793          	andi	a5,s1,32
   12570:	00048e13          	mv	t3,s1
   12574:	5e0782e3          	beqz	a5,13358 <_vfprintf_r+0x1860>
   12578:	00048f13          	mv	t5,s1
   1257c:	01813783          	ld	a5,24(sp)
   12580:	01813703          	ld	a4,24(sp)
   12584:	0a0103a3          	sb	zero,167(sp)
   12588:	00878793          	addi	a5,a5,8
   1258c:	00073703          	ld	a4,0(a4)
   12590:	640ac4e3          	bltz	s5,133d8 <_vfprintf_r+0x18e0>
   12594:	00f13c23          	sd	a5,24(sp)
   12598:	f7ff7e13          	andi	t3,t5,-129
   1259c:	ea0a9ee3          	bnez	s5,12458 <_vfprintf_r+0x960>
   125a0:	ea071ce3          	bnez	a4,12458 <_vfprintf_r+0x960>
   125a4:	00000493          	li	s1,0
   125a8:	4700006f          	j	12a18 <_vfprintf_r+0xf20>
   125ac:	15c10b13          	addi	s6,sp,348
   125b0:	000b0913          	mv	s2,s6
   125b4:	05513023          	sd	s5,64(sp)
   125b8:	07613823          	sd	s6,112(sp)
   125bc:	400e7c13          	andi	s8,t3,1024
   125c0:	06813b03          	ld	s6,104(sp)
   125c4:	00000493          	li	s1,0
   125c8:	03713023          	sd	s7,32(sp)
   125cc:	02613823          	sd	t1,48(sp)
   125d0:	03c13c23          	sd	t3,56(sp)
   125d4:	00070a93          	mv	s5,a4
   125d8:	0240006f          	j	125fc <_vfprintf_r+0xb04>
   125dc:	000a8513          	mv	a0,s5
   125e0:	00a00593          	li	a1,10
   125e4:	3b10b0ef          	jal	1e194 <__hidden___udivdi3>
   125e8:	000a8b93          	mv	s7,s5
   125ec:	00900793          	li	a5,9
   125f0:	000d8913          	mv	s2,s11
   125f4:	00050a93          	mv	s5,a0
   125f8:	0577f063          	bgeu	a5,s7,12638 <_vfprintf_r+0xb40>
   125fc:	00a00593          	li	a1,10
   12600:	000a8513          	mv	a0,s5
   12604:	3d90b0ef          	jal	1e1dc <__umoddi3>
   12608:	0305051b          	addiw	a0,a0,48
   1260c:	fea90fa3          	sb	a0,-1(s2)
   12610:	fff90d93          	addi	s11,s2,-1
   12614:	0014849b          	addiw	s1,s1,1
   12618:	fc0c02e3          	beqz	s8,125dc <_vfprintf_r+0xae4>
   1261c:	000b4783          	lbu	a5,0(s6)
   12620:	f0178713          	addi	a4,a5,-255
   12624:	fa070ce3          	beqz	a4,125dc <_vfprintf_r+0xae4>
   12628:	fa979ae3          	bne	a5,s1,125dc <_vfprintf_r+0xae4>
   1262c:	00900793          	li	a5,9
   12630:	0157f463          	bgeu	a5,s5,12638 <_vfprintf_r+0xb40>
   12634:	52d0106f          	j	14360 <_vfprintf_r+0x2868>
   12638:	07613423          	sd	s6,104(sp)
   1263c:	07013b03          	ld	s6,112(sp)
   12640:	04013a83          	ld	s5,64(sp)
   12644:	03013303          	ld	t1,48(sp)
   12648:	41bb0b3b          	subw	s6,s6,s11
   1264c:	02913823          	sd	s1,48(sp)
   12650:	02013b83          	ld	s7,32(sp)
   12654:	03813e03          	ld	t3,56(sp)
   12658:	000a881b          	sext.w	a6,s5
   1265c:	016ad463          	bge	s5,s6,12664 <_vfprintf_r+0xb6c>
   12660:	000b081b          	sext.w	a6,s6
   12664:	0a714503          	lbu	a0,167(sp)
   12668:	00000493          	li	s1,0
   1266c:	02013023          	sd	zero,32(sp)
   12670:	e15ff06f          	j	12484 <_vfprintf_r+0x98c>
   12674:	00013b03          	ld	s6,0(sp)
   12678:	000b0513          	mv	a0,s6
   1267c:	7c5020ef          	jal	15640 <_localeconv_r>
   12680:	00853783          	ld	a5,8(a0)
   12684:	00078513          	mv	a0,a5
   12688:	06f13023          	sd	a5,96(sp)
   1268c:	2cc030ef          	jal	15958 <strlen>
   12690:	00050793          	mv	a5,a0
   12694:	000b0513          	mv	a0,s6
   12698:	08f13023          	sd	a5,128(sp)
   1269c:	00078b13          	mv	s6,a5
   126a0:	7a1020ef          	jal	15640 <_localeconv_r>
   126a4:	01053703          	ld	a4,16(a0)
   126a8:	000cc303          	lbu	t1,0(s9)
   126ac:	06e13423          	sd	a4,104(sp)
   126b0:	de0b0e63          	beqz	s6,11cac <_vfprintf_r+0x1b4>
   126b4:	de070c63          	beqz	a4,11cac <_vfprintf_r+0x1b4>
   126b8:	00074783          	lbu	a5,0(a4)
   126bc:	de078863          	beqz	a5,11cac <_vfprintf_r+0x1b4>
   126c0:	4004e493          	ori	s1,s1,1024
   126c4:	de8ff06f          	j	11cac <_vfprintf_r+0x1b4>
   126c8:	000cc303          	lbu	t1,0(s9)
   126cc:	0014e493          	ori	s1,s1,1
   126d0:	ddcff06f          	j	11cac <_vfprintf_r+0x1b4>
   126d4:	0a714783          	lbu	a5,167(sp)
   126d8:	000cc303          	lbu	t1,0(s9)
   126dc:	dc079863          	bnez	a5,11cac <_vfprintf_r+0x1b4>
   126e0:	02000793          	li	a5,32
   126e4:	0af103a3          	sb	a5,167(sp)
   126e8:	dc4ff06f          	j	11cac <_vfprintf_r+0x1b4>
   126ec:	000cc303          	lbu	t1,0(s9)
   126f0:	0084e493          	ori	s1,s1,8
   126f4:	db8ff06f          	j	11cac <_vfprintf_r+0x1b4>
   126f8:	01813783          	ld	a5,24(sp)
   126fc:	0104e813          	ori	a6,s1,16
   12700:	00878613          	addi	a2,a5,8
   12704:	01813783          	ld	a5,24(sp)
   12708:	0007b683          	ld	a3,0(a5)
   1270c:	00c13c23          	sd	a2,24(sp)
   12710:	0a0103a3          	sb	zero,167(sp)
   12714:	bff87e13          	andi	t3,a6,-1025
   12718:	780ace63          	bltz	s5,12eb4 <_vfprintf_r+0x13bc>
   1271c:	b7f87e13          	andi	t3,a6,-1153
   12720:	780a9a63          	bnez	s5,12eb4 <_vfprintf_r+0x13bc>
   12724:	78069863          	bnez	a3,12eb4 <_vfprintf_r+0x13bc>
   12728:	00187813          	andi	a6,a6,1
   1272c:	280804e3          	beqz	a6,131b4 <_vfprintf_r+0x16bc>
   12730:	0f013903          	ld	s2,240(sp)
   12734:	03000793          	li	a5,48
   12738:	14f10da3          	sb	a5,347(sp)
   1273c:	02013023          	sd	zero,32(sp)
   12740:	04013023          	sd	zero,64(sp)
   12744:	02013c23          	sd	zero,56(sp)
   12748:	084e7293          	andi	t0,t3,132
   1274c:	00080b13          	mv	s6,a6
   12750:	00000a93          	li	s5,0
   12754:	00000493          	li	s1,0
   12758:	15b10d93          	addi	s11,sp,347
   1275c:	00090593          	mv	a1,s2
   12760:	de029863          	bnez	t0,11d50 <_vfprintf_r+0x258>
   12764:	410d073b          	subw	a4,s10,a6
   12768:	22e04ee3          	bgtz	a4,131a4 <_vfprintf_r+0x16ac>
   1276c:	0a714703          	lbu	a4,167(sp)
   12770:	de071463          	bnez	a4,11d58 <_vfprintf_r+0x260>
   12774:	416a8abb          	subw	s5,s5,s6
   12778:	e5505e63          	blez	s5,11dd4 <_vfprintf_r+0x2dc>
   1277c:	0001e6b7          	lui	a3,0x1e
   12780:	0e812603          	lw	a2,232(sp)
   12784:	59868693          	addi	a3,a3,1432 # 1e598 <zeroes.0>
   12788:	0b545463          	bge	s0,s5,12830 <_vfprintf_r+0xd38>
   1278c:	00048593          	mv	a1,s1
   12790:	000b8793          	mv	a5,s7
   12794:	000a8493          	mv	s1,s5
   12798:	00090693          	mv	a3,s2
   1279c:	00700713          	li	a4,7
   127a0:	00030c13          	mv	s8,t1
   127a4:	07c13823          	sd	t3,112(sp)
   127a8:	000a0b93          	mv	s7,s4
   127ac:	00080913          	mv	s2,a6
   127b0:	00058a93          	mv	s5,a1
   127b4:	00c0006f          	j	127c0 <_vfprintf_r+0xcc8>
   127b8:	ff04849b          	addiw	s1,s1,-16
   127bc:	04945863          	bge	s0,s1,1280c <_vfprintf_r+0xd14>
   127c0:	01068693          	addi	a3,a3,16
   127c4:	0016061b          	addiw	a2,a2,1
   127c8:	0147b023          	sd	s4,0(a5)
   127cc:	0087b423          	sd	s0,8(a5)
   127d0:	0ed13823          	sd	a3,240(sp)
   127d4:	0ec12423          	sw	a2,232(sp)
   127d8:	01078793          	addi	a5,a5,16
   127dc:	fcc75ee3          	bge	a4,a2,127b8 <_vfprintf_r+0xcc0>
   127e0:	00813583          	ld	a1,8(sp)
   127e4:	00013503          	ld	a0,0(sp)
   127e8:	0e010613          	addi	a2,sp,224
   127ec:	1ec020ef          	jal	149d8 <__sprint_r>
   127f0:	40051663          	bnez	a0,12bfc <_vfprintf_r+0x1104>
   127f4:	ff04849b          	addiw	s1,s1,-16
   127f8:	0f013683          	ld	a3,240(sp)
   127fc:	0e812603          	lw	a2,232(sp)
   12800:	00098793          	mv	a5,s3
   12804:	00700713          	li	a4,7
   12808:	fa944ce3          	blt	s0,s1,127c0 <_vfprintf_r+0xcc8>
   1280c:	07013e03          	ld	t3,112(sp)
   12810:	000a8713          	mv	a4,s5
   12814:	00090813          	mv	a6,s2
   12818:	00048a93          	mv	s5,s1
   1281c:	00068913          	mv	s2,a3
   12820:	000c0313          	mv	t1,s8
   12824:	000b8693          	mv	a3,s7
   12828:	00070493          	mv	s1,a4
   1282c:	00078b93          	mv	s7,a5
   12830:	01590933          	add	s2,s2,s5
   12834:	0016061b          	addiw	a2,a2,1
   12838:	00dbb023          	sd	a3,0(s7)
   1283c:	015bb423          	sd	s5,8(s7)
   12840:	0f213823          	sd	s2,240(sp)
   12844:	0ec12423          	sw	a2,232(sp)
   12848:	00700713          	li	a4,7
   1284c:	010b8b93          	addi	s7,s7,16
   12850:	d8c75263          	bge	a4,a2,11dd4 <_vfprintf_r+0x2dc>
   12854:	00813583          	ld	a1,8(sp)
   12858:	00013503          	ld	a0,0(sp)
   1285c:	0e010613          	addi	a2,sp,224
   12860:	09013423          	sd	a6,136(sp)
   12864:	07c13c23          	sd	t3,120(sp)
   12868:	06613823          	sd	t1,112(sp)
   1286c:	16c020ef          	jal	149d8 <__sprint_r>
   12870:	38051663          	bnez	a0,12bfc <_vfprintf_r+0x1104>
   12874:	07813e03          	ld	t3,120(sp)
   12878:	0f013903          	ld	s2,240(sp)
   1287c:	08813803          	ld	a6,136(sp)
   12880:	100e7713          	andi	a4,t3,256
   12884:	07013303          	ld	t1,112(sp)
   12888:	00098b93          	mv	s7,s3
   1288c:	d4070863          	beqz	a4,11ddc <_vfprintf_r+0x2e4>
   12890:	06500713          	li	a4,101
   12894:	3e675663          	bge	a4,t1,12c80 <_vfprintf_r+0x1188>
   12898:	0d013503          	ld	a0,208(sp)
   1289c:	0d813583          	ld	a1,216(sp)
   128a0:	00000613          	li	a2,0
   128a4:	00000693          	li	a3,0
   128a8:	07013c23          	sd	a6,120(sp)
   128ac:	07c13823          	sd	t3,112(sp)
   128b0:	5100a0ef          	jal	1cdc0 <__eqtf2>
   128b4:	07013e03          	ld	t3,112(sp)
   128b8:	07813803          	ld	a6,120(sp)
   128bc:	64051863          	bnez	a0,12f0c <_vfprintf_r+0x1414>
   128c0:	0e812783          	lw	a5,232(sp)
   128c4:	0001e737          	lui	a4,0x1e
   128c8:	30070713          	addi	a4,a4,768 # 1e300 <__clzdi2+0xb4>
   128cc:	00ebb023          	sd	a4,0(s7)
   128d0:	00190913          	addi	s2,s2,1
   128d4:	00100713          	li	a4,1
   128d8:	0017879b          	addiw	a5,a5,1
   128dc:	00ebb423          	sd	a4,8(s7)
   128e0:	0f213823          	sd	s2,240(sp)
   128e4:	0ef12423          	sw	a5,232(sp)
   128e8:	00700713          	li	a4,7
   128ec:	010b8b93          	addi	s7,s7,16
   128f0:	6af746e3          	blt	a4,a5,1379c <_vfprintf_r+0x1ca4>
   128f4:	0b012783          	lw	a5,176(sp)
   128f8:	03013703          	ld	a4,48(sp)
   128fc:	1ae7dce3          	bge	a5,a4,132b4 <_vfprintf_r+0x17bc>
   12900:	04813703          	ld	a4,72(sp)
   12904:	0e812783          	lw	a5,232(sp)
   12908:	010b8b93          	addi	s7,s7,16
   1290c:	00e90933          	add	s2,s2,a4
   12910:	05013703          	ld	a4,80(sp)
   12914:	0017879b          	addiw	a5,a5,1
   12918:	0f213823          	sd	s2,240(sp)
   1291c:	feebb823          	sd	a4,-16(s7)
   12920:	04813703          	ld	a4,72(sp)
   12924:	0ef12423          	sw	a5,232(sp)
   12928:	feebbc23          	sd	a4,-8(s7)
   1292c:	00700713          	li	a4,7
   12930:	3af742e3          	blt	a4,a5,134d4 <_vfprintf_r+0x19dc>
   12934:	03013783          	ld	a5,48(sp)
   12938:	fff78a9b          	addiw	s5,a5,-1
   1293c:	cd505463          	blez	s5,11e04 <_vfprintf_r+0x30c>
   12940:	01000b13          	li	s6,16
   12944:	0e812783          	lw	a5,232(sp)
   12948:	0001e6b7          	lui	a3,0x1e
   1294c:	015b4463          	blt	s6,s5,12954 <_vfprintf_r+0xe5c>
   12950:	0690106f          	j	141b8 <_vfprintf_r+0x26c0>
   12954:	000a8493          	mv	s1,s5
   12958:	00090713          	mv	a4,s2
   1295c:	00700d93          	li	s11,7
   12960:	00080a93          	mv	s5,a6
   12964:	000e0913          	mv	s2,t3
   12968:	59868c13          	addi	s8,a3,1432 # 1e598 <zeroes.0>
   1296c:	00c0006f          	j	12978 <_vfprintf_r+0xe80>
   12970:	ff04849b          	addiw	s1,s1,-16
   12974:	669b50e3          	bge	s6,s1,137d4 <_vfprintf_r+0x1cdc>
   12978:	01070713          	addi	a4,a4,16
   1297c:	0017879b          	addiw	a5,a5,1
   12980:	018bb023          	sd	s8,0(s7)
   12984:	016bb423          	sd	s6,8(s7)
   12988:	0ee13823          	sd	a4,240(sp)
   1298c:	0ef12423          	sw	a5,232(sp)
   12990:	010b8b93          	addi	s7,s7,16
   12994:	fcfddee3          	bge	s11,a5,12970 <_vfprintf_r+0xe78>
   12998:	00813583          	ld	a1,8(sp)
   1299c:	00013503          	ld	a0,0(sp)
   129a0:	0e010613          	addi	a2,sp,224
   129a4:	034020ef          	jal	149d8 <__sprint_r>
   129a8:	24051a63          	bnez	a0,12bfc <_vfprintf_r+0x1104>
   129ac:	0f013703          	ld	a4,240(sp)
   129b0:	0e812783          	lw	a5,232(sp)
   129b4:	00098b93          	mv	s7,s3
   129b8:	fb9ff06f          	j	12970 <_vfprintf_r+0xe78>
   129bc:	000cc303          	lbu	t1,0(s9)
   129c0:	06800793          	li	a5,104
   129c4:	34f300e3          	beq	t1,a5,13504 <_vfprintf_r+0x1a0c>
   129c8:	0404e493          	ori	s1,s1,64
   129cc:	ae0ff06f          	j	11cac <_vfprintf_r+0x1b4>
   129d0:	000cc303          	lbu	t1,0(s9)
   129d4:	0204e493          	ori	s1,s1,32
   129d8:	ad4ff06f          	j	11cac <_vfprintf_r+0x1b4>
   129dc:	000087b7          	lui	a5,0x8
   129e0:	83078793          	addi	a5,a5,-2000 # 7830 <exit-0x88f0>
   129e4:	0af11423          	sh	a5,168(sp)
   129e8:	01813783          	ld	a5,24(sp)
   129ec:	0a0103a3          	sb	zero,167(sp)
   129f0:	0007b703          	ld	a4,0(a5)
   129f4:	00878593          	addi	a1,a5,8
   129f8:	1e0acee3          	bltz	s5,133f4 <_vfprintf_r+0x18fc>
   129fc:	f7f4ff13          	andi	t5,s1,-129
   12a00:	002f6e13          	ori	t3,t5,2
   12a04:	640a9ee3          	bnez	s5,13860 <_vfprintf_r+0x1d68>
   12a08:	64071ce3          	bnez	a4,13860 <_vfprintf_r+0x1d68>
   12a0c:	00b13c23          	sd	a1,24(sp)
   12a10:	00200493          	li	s1,2
   12a14:	07800313          	li	t1,120
   12a18:	0a714503          	lbu	a0,167(sp)
   12a1c:	00000a93          	li	s5,0
   12a20:	00000813          	li	a6,0
   12a24:	00000b13          	li	s6,0
   12a28:	15c10d93          	addi	s11,sp,348
   12a2c:	02013023          	sd	zero,32(sp)
   12a30:	a55ff06f          	j	12484 <_vfprintf_r+0x98c>
   12a34:	01813703          	ld	a4,24(sp)
   12a38:	0204f793          	andi	a5,s1,32
   12a3c:	00048e13          	mv	t3,s1
   12a40:	00870613          	addi	a2,a4,8
   12a44:	0a079ee3          	bnez	a5,13300 <_vfprintf_r+0x1808>
   12a48:	0104f793          	andi	a5,s1,16
   12a4c:	0a079ae3          	bnez	a5,13300 <_vfprintf_r+0x1808>
   12a50:	01813703          	ld	a4,24(sp)
   12a54:	0404f793          	andi	a5,s1,64
   12a58:	00072683          	lw	a3,0(a4)
   12a5c:	6a078ce3          	beqz	a5,13914 <_vfprintf_r+0x1e1c>
   12a60:	03069693          	slli	a3,a3,0x30
   12a64:	0306d693          	srli	a3,a3,0x30
   12a68:	00c13c23          	sd	a2,24(sp)
   12a6c:	00048813          	mv	a6,s1
   12a70:	ca1ff06f          	j	12710 <_vfprintf_r+0xc18>
   12a74:	01813683          	ld	a3,24(sp)
   12a78:	01813703          	ld	a4,24(sp)
   12a7c:	0204f793          	andi	a5,s1,32
   12a80:	00868693          	addi	a3,a3,8
   12a84:	00d13c23          	sd	a3,24(sp)
   12a88:	00073703          	ld	a4,0(a4)
   12a8c:	060794e3          	bnez	a5,132f4 <_vfprintf_r+0x17fc>
   12a90:	0104f793          	andi	a5,s1,16
   12a94:	060790e3          	bnez	a5,132f4 <_vfprintf_r+0x17fc>
   12a98:	0404f793          	andi	a5,s1,64
   12a9c:	00078463          	beqz	a5,12aa4 <_vfprintf_r+0xfac>
   12aa0:	2cc0106f          	j	13d6c <_vfprintf_r+0x2274>
   12aa4:	2004ff13          	andi	t5,s1,512
   12aa8:	01013783          	ld	a5,16(sp)
   12aac:	000f1463          	bnez	t5,12ab4 <_vfprintf_r+0xfbc>
   12ab0:	2ed0106f          	j	1459c <_vfprintf_r+0x2aa4>
   12ab4:	00f70023          	sb	a5,0(a4)
   12ab8:	958ff06f          	j	11c10 <_vfprintf_r+0x118>
   12abc:	000cc303          	lbu	t1,0(s9)
   12ac0:	06c00793          	li	a5,108
   12ac4:	20f300e3          	beq	t1,a5,134c4 <_vfprintf_r+0x19cc>
   12ac8:	0104e493          	ori	s1,s1,16
   12acc:	9e0ff06f          	j	11cac <_vfprintf_r+0x1b4>
   12ad0:	410d073b          	subw	a4,s10,a6
   12ad4:	aee05c63          	blez	a4,11dcc <_vfprintf_r+0x2d4>
   12ad8:	01000293          	li	t0,16
   12adc:	0e812603          	lw	a2,232(sp)
   12ae0:	0001e6b7          	lui	a3,0x1e
   12ae4:	00e2c463          	blt	t0,a4,12aec <_vfprintf_r+0xff4>
   12ae8:	20d0106f          	j	144f4 <_vfprintf_r+0x29fc>
   12aec:	000b8793          	mv	a5,s7
   12af0:	00090593          	mv	a1,s2
   12af4:	00048b93          	mv	s7,s1
   12af8:	00700393          	li	t2,7
   12afc:	00030c13          	mv	s8,t1
   12b00:	07c13823          	sd	t3,112(sp)
   12b04:	07013c23          	sd	a6,120(sp)
   12b08:	00070493          	mv	s1,a4
   12b0c:	59868913          	addi	s2,a3,1432 # 1e598 <zeroes.0>
   12b10:	00c0006f          	j	12b1c <_vfprintf_r+0x1024>
   12b14:	ff04849b          	addiw	s1,s1,-16
   12b18:	0492da63          	bge	t0,s1,12b6c <_vfprintf_r+0x1074>
   12b1c:	01058593          	addi	a1,a1,16
   12b20:	0016061b          	addiw	a2,a2,1
   12b24:	0127b023          	sd	s2,0(a5)
   12b28:	0057b423          	sd	t0,8(a5)
   12b2c:	0eb13823          	sd	a1,240(sp)
   12b30:	0ec12423          	sw	a2,232(sp)
   12b34:	01078793          	addi	a5,a5,16
   12b38:	fcc3dee3          	bge	t2,a2,12b14 <_vfprintf_r+0x101c>
   12b3c:	00813583          	ld	a1,8(sp)
   12b40:	00013503          	ld	a0,0(sp)
   12b44:	0e010613          	addi	a2,sp,224
   12b48:	691010ef          	jal	149d8 <__sprint_r>
   12b4c:	0a051863          	bnez	a0,12bfc <_vfprintf_r+0x1104>
   12b50:	01000293          	li	t0,16
   12b54:	ff04849b          	addiw	s1,s1,-16
   12b58:	0f013583          	ld	a1,240(sp)
   12b5c:	0e812603          	lw	a2,232(sp)
   12b60:	00098793          	mv	a5,s3
   12b64:	00700393          	li	t2,7
   12b68:	fa92cae3          	blt	t0,s1,12b1c <_vfprintf_r+0x1024>
   12b6c:	07013e03          	ld	t3,112(sp)
   12b70:	07813803          	ld	a6,120(sp)
   12b74:	00048713          	mv	a4,s1
   12b78:	00090693          	mv	a3,s2
   12b7c:	000b8493          	mv	s1,s7
   12b80:	000c0313          	mv	t1,s8
   12b84:	00078b93          	mv	s7,a5
   12b88:	00058913          	mv	s2,a1
   12b8c:	00e90933          	add	s2,s2,a4
   12b90:	0016061b          	addiw	a2,a2,1
   12b94:	00ebb423          	sd	a4,8(s7)
   12b98:	00dbb023          	sd	a3,0(s7)
   12b9c:	0f213823          	sd	s2,240(sp)
   12ba0:	0ec12423          	sw	a2,232(sp)
   12ba4:	00700713          	li	a4,7
   12ba8:	010b8b93          	addi	s7,s7,16
   12bac:	a2c75063          	bge	a4,a2,11dcc <_vfprintf_r+0x2d4>
   12bb0:	00813583          	ld	a1,8(sp)
   12bb4:	00013503          	ld	a0,0(sp)
   12bb8:	0e010613          	addi	a2,sp,224
   12bbc:	09013423          	sd	a6,136(sp)
   12bc0:	07c13c23          	sd	t3,120(sp)
   12bc4:	06613823          	sd	t1,112(sp)
   12bc8:	611010ef          	jal	149d8 <__sprint_r>
   12bcc:	02051863          	bnez	a0,12bfc <_vfprintf_r+0x1104>
   12bd0:	0f013903          	ld	s2,240(sp)
   12bd4:	07013303          	ld	t1,112(sp)
   12bd8:	07813e03          	ld	t3,120(sp)
   12bdc:	08813803          	ld	a6,136(sp)
   12be0:	00098b93          	mv	s7,s3
   12be4:	9e8ff06f          	j	11dcc <_vfprintf_r+0x2d4>
   12be8:	00813583          	ld	a1,8(sp)
   12bec:	00013503          	ld	a0,0(sp)
   12bf0:	0e010613          	addi	a2,sp,224
   12bf4:	5e5010ef          	jal	149d8 <__sprint_r>
   12bf8:	a2050e63          	beqz	a0,11e34 <_vfprintf_r+0x33c>
   12bfc:	00813483          	ld	s1,8(sp)
   12c00:	02013783          	ld	a5,32(sp)
   12c04:	00078863          	beqz	a5,12c14 <_vfprintf_r+0x111c>
   12c08:	00013503          	ld	a0,0(sp)
   12c0c:	00078593          	mv	a1,a5
   12c10:	af8fe0ef          	jal	10f08 <_free_r>
   12c14:	0104d783          	lhu	a5,16(s1)
   12c18:	23013903          	ld	s2,560(sp)
   12c1c:	22813983          	ld	s3,552(sp)
   12c20:	0407f793          	andi	a5,a5,64
   12c24:	22013a03          	ld	s4,544(sp)
   12c28:	21813a83          	ld	s5,536(sp)
   12c2c:	20813b83          	ld	s7,520(sp)
   12c30:	20013c03          	ld	s8,512(sp)
   12c34:	1f813c83          	ld	s9,504(sp)
   12c38:	1f013d03          	ld	s10,496(sp)
   12c3c:	1e813d83          	ld	s11,488(sp)
   12c40:	a8079663          	bnez	a5,11ecc <_vfprintf_r+0x3d4>
   12c44:	24813083          	ld	ra,584(sp)
   12c48:	24013403          	ld	s0,576(sp)
   12c4c:	01013503          	ld	a0,16(sp)
   12c50:	23813483          	ld	s1,568(sp)
   12c54:	21013b03          	ld	s6,528(sp)
   12c58:	25010113          	addi	sp,sp,592
   12c5c:	00008067          	ret
   12c60:	410d073b          	subw	a4,s10,a6
   12c64:	04013023          	sd	zero,64(sp)
   12c68:	02013c23          	sd	zero,56(sp)
   12c6c:	42e04a63          	bgtz	a4,130a0 <_vfprintf_r+0x15a8>
   12c70:	00000493          	li	s1,0
   12c74:	92050063          	beqz	a0,11d94 <_vfprintf_r+0x29c>
   12c78:	00200393          	li	t2,2
   12c7c:	8e4ff06f          	j	11d60 <_vfprintf_r+0x268>
   12c80:	0e812a83          	lw	s5,232(sp)
   12c84:	03013783          	ld	a5,48(sp)
   12c88:	00100693          	li	a3,1
   12c8c:	001a8a9b          	addiw	s5,s5,1
   12c90:	00d90933          	add	s2,s2,a3
   12c94:	000a8713          	mv	a4,s5
   12c98:	010b8b13          	addi	s6,s7,16
   12c9c:	52f6dc63          	bge	a3,a5,131d4 <_vfprintf_r+0x16dc>
   12ca0:	00100693          	li	a3,1
   12ca4:	00dbb423          	sd	a3,8(s7)
   12ca8:	01bbb023          	sd	s11,0(s7)
   12cac:	0f213823          	sd	s2,240(sp)
   12cb0:	0ee12423          	sw	a4,232(sp)
   12cb4:	00700693          	li	a3,7
   12cb8:	1ae6c8e3          	blt	a3,a4,13668 <_vfprintf_r+0x1b70>
   12cbc:	04813783          	ld	a5,72(sp)
   12cc0:	001a8a9b          	addiw	s5,s5,1
   12cc4:	0f512423          	sw	s5,232(sp)
   12cc8:	00f90933          	add	s2,s2,a5
   12ccc:	05013783          	ld	a5,80(sp)
   12cd0:	0f213823          	sd	s2,240(sp)
   12cd4:	00700713          	li	a4,7
   12cd8:	00fb3023          	sd	a5,0(s6)
   12cdc:	04813783          	ld	a5,72(sp)
   12ce0:	010b0b13          	addi	s6,s6,16
   12ce4:	fefb3c23          	sd	a5,-8(s6)
   12ce8:	1b574ae3          	blt	a4,s5,1369c <_vfprintf_r+0x1ba4>
   12cec:	03013783          	ld	a5,48(sp)
   12cf0:	0d013503          	ld	a0,208(sp)
   12cf4:	0d813583          	ld	a1,216(sp)
   12cf8:	00000613          	li	a2,0
   12cfc:	00000693          	li	a3,0
   12d00:	05013023          	sd	a6,64(sp)
   12d04:	03c13c23          	sd	t3,56(sp)
   12d08:	fff78b9b          	addiw	s7,a5,-1
   12d0c:	0b40a0ef          	jal	1cdc0 <__eqtf2>
   12d10:	03813e03          	ld	t3,56(sp)
   12d14:	04013803          	ld	a6,64(sp)
   12d18:	50050863          	beqz	a0,13228 <_vfprintf_r+0x1730>
   12d1c:	001a8a9b          	addiw	s5,s5,1
   12d20:	01790933          	add	s2,s2,s7
   12d24:	001d8793          	addi	a5,s11,1
   12d28:	0f512423          	sw	s5,232(sp)
   12d2c:	0f213823          	sd	s2,240(sp)
   12d30:	00fb3023          	sd	a5,0(s6)
   12d34:	017b3423          	sd	s7,8(s6)
   12d38:	00700793          	li	a5,7
   12d3c:	7557c463          	blt	a5,s5,13484 <_vfprintf_r+0x198c>
   12d40:	010b0b13          	addi	s6,s6,16
   12d44:	05813783          	ld	a5,88(sp)
   12d48:	05813703          	ld	a4,88(sp)
   12d4c:	001a8a9b          	addiw	s5,s5,1
   12d50:	01278933          	add	s2,a5,s2
   12d54:	0b810793          	addi	a5,sp,184
   12d58:	00fb3023          	sd	a5,0(s6)
   12d5c:	0f213823          	sd	s2,240(sp)
   12d60:	0f512423          	sw	s5,232(sp)
   12d64:	00eb3423          	sd	a4,8(s6)
   12d68:	00700793          	li	a5,7
   12d6c:	010b0b93          	addi	s7,s6,16
   12d70:	8957da63          	bge	a5,s5,11e04 <_vfprintf_r+0x30c>
   12d74:	00813583          	ld	a1,8(sp)
   12d78:	00013503          	ld	a0,0(sp)
   12d7c:	0e010613          	addi	a2,sp,224
   12d80:	05013023          	sd	a6,64(sp)
   12d84:	03c13c23          	sd	t3,56(sp)
   12d88:	451010ef          	jal	149d8 <__sprint_r>
   12d8c:	e60518e3          	bnez	a0,12bfc <_vfprintf_r+0x1104>
   12d90:	0f013903          	ld	s2,240(sp)
   12d94:	04013803          	ld	a6,64(sp)
   12d98:	03813e03          	ld	t3,56(sp)
   12d9c:	00098b93          	mv	s7,s3
   12da0:	864ff06f          	j	11e04 <_vfprintf_r+0x30c>
   12da4:	00813583          	ld	a1,8(sp)
   12da8:	00013503          	ld	a0,0(sp)
   12dac:	0e010613          	addi	a2,sp,224
   12db0:	09013823          	sd	a6,144(sp)
   12db4:	09c13423          	sd	t3,136(sp)
   12db8:	06613c23          	sd	t1,120(sp)
   12dbc:	06513823          	sd	t0,112(sp)
   12dc0:	419010ef          	jal	149d8 <__sprint_r>
   12dc4:	e2051ce3          	bnez	a0,12bfc <_vfprintf_r+0x1104>
   12dc8:	0f013903          	ld	s2,240(sp)
   12dcc:	09013803          	ld	a6,144(sp)
   12dd0:	08813e03          	ld	t3,136(sp)
   12dd4:	07813303          	ld	t1,120(sp)
   12dd8:	07013283          	ld	t0,112(sp)
   12ddc:	00098b93          	mv	s7,s3
   12de0:	fe5fe06f          	j	11dc4 <_vfprintf_r+0x2cc>
   12de4:	01000b13          	li	s6,16
   12de8:	0e812783          	lw	a5,232(sp)
   12dec:	0001e6b7          	lui	a3,0x1e
   12df0:	015b4463          	blt	s6,s5,12df8 <_vfprintf_r+0x1300>
   12df4:	60c0106f          	j	14400 <_vfprintf_r+0x2908>
   12df8:	00090713          	mv	a4,s2
   12dfc:	00813c03          	ld	s8,8(sp)
   12e00:	00700d93          	li	s11,7
   12e04:	00080913          	mv	s2,a6
   12e08:	5a868493          	addi	s1,a3,1448 # 1e5a8 <blanks.1>
   12e0c:	00c0006f          	j	12e18 <_vfprintf_r+0x1320>
   12e10:	ff0a8a9b          	addiw	s5,s5,-16
   12e14:	055b5663          	bge	s6,s5,12e60 <_vfprintf_r+0x1368>
   12e18:	01070713          	addi	a4,a4,16
   12e1c:	0017879b          	addiw	a5,a5,1
   12e20:	009bb023          	sd	s1,0(s7)
   12e24:	016bb423          	sd	s6,8(s7)
   12e28:	0ee13823          	sd	a4,240(sp)
   12e2c:	0ef12423          	sw	a5,232(sp)
   12e30:	010b8b93          	addi	s7,s7,16
   12e34:	fcfddee3          	bge	s11,a5,12e10 <_vfprintf_r+0x1318>
   12e38:	00013503          	ld	a0,0(sp)
   12e3c:	0e010613          	addi	a2,sp,224
   12e40:	000c0593          	mv	a1,s8
   12e44:	395010ef          	jal	149d8 <__sprint_r>
   12e48:	180512e3          	bnez	a0,137cc <_vfprintf_r+0x1cd4>
   12e4c:	ff0a8a9b          	addiw	s5,s5,-16
   12e50:	0f013703          	ld	a4,240(sp)
   12e54:	0e812783          	lw	a5,232(sp)
   12e58:	00098b93          	mv	s7,s3
   12e5c:	fb5b4ee3          	blt	s6,s5,12e18 <_vfprintf_r+0x1320>
   12e60:	00090813          	mv	a6,s2
   12e64:	00048693          	mv	a3,s1
   12e68:	00070913          	mv	s2,a4
   12e6c:	01590933          	add	s2,s2,s5
   12e70:	0017879b          	addiw	a5,a5,1
   12e74:	0f213823          	sd	s2,240(sp)
   12e78:	0ef12423          	sw	a5,232(sp)
   12e7c:	00dbb023          	sd	a3,0(s7)
   12e80:	015bb423          	sd	s5,8(s7)
   12e84:	00700713          	li	a4,7
   12e88:	00f74463          	blt	a4,a5,12e90 <_vfprintf_r+0x1398>
   12e8c:	f8dfe06f          	j	11e18 <_vfprintf_r+0x320>
   12e90:	00813583          	ld	a1,8(sp)
   12e94:	00013503          	ld	a0,0(sp)
   12e98:	0e010613          	addi	a2,sp,224
   12e9c:	03013c23          	sd	a6,56(sp)
   12ea0:	339010ef          	jal	149d8 <__sprint_r>
   12ea4:	d4051ce3          	bnez	a0,12bfc <_vfprintf_r+0x1104>
   12ea8:	0f013903          	ld	s2,240(sp)
   12eac:	03813803          	ld	a6,56(sp)
   12eb0:	f69fe06f          	j	11e18 <_vfprintf_r+0x320>
   12eb4:	15c10b13          	addi	s6,sp,348
   12eb8:	000b0d93          	mv	s11,s6
   12ebc:	0076f713          	andi	a4,a3,7
   12ec0:	000d8613          	mv	a2,s11
   12ec4:	03070713          	addi	a4,a4,48
   12ec8:	0036d693          	srli	a3,a3,0x3
   12ecc:	feed8fa3          	sb	a4,-1(s11)
   12ed0:	fffd8d93          	addi	s11,s11,-1
   12ed4:	fe0694e3          	bnez	a3,12ebc <_vfprintf_r+0x13c4>
   12ed8:	fd070713          	addi	a4,a4,-48
   12edc:	03000693          	li	a3,48
   12ee0:	00070663          	beqz	a4,12eec <_vfprintf_r+0x13f4>
   12ee4:	001e7713          	andi	a4,t3,1
   12ee8:	42071063          	bnez	a4,13308 <_vfprintf_r+0x1810>
   12eec:	41bb0b3b          	subw	s6,s6,s11
   12ef0:	000a881b          	sext.w	a6,s5
   12ef4:	3f6ac463          	blt	s5,s6,132dc <_vfprintf_r+0x17e4>
   12ef8:	02013023          	sd	zero,32(sp)
   12efc:	04013023          	sd	zero,64(sp)
   12f00:	02013c23          	sd	zero,56(sp)
   12f04:	00000493          	li	s1,0
   12f08:	e39fe06f          	j	11d40 <_vfprintf_r+0x248>
   12f0c:	0b012603          	lw	a2,176(sp)
   12f10:	acc05863          	blez	a2,121e0 <_vfprintf_r+0x6e8>
   12f14:	03013783          	ld	a5,48(sp)
   12f18:	00048713          	mv	a4,s1
   12f1c:	4c97c463          	blt	a5,s1,133e4 <_vfprintf_r+0x18ec>
   12f20:	00070b1b          	sext.w	s6,a4
   12f24:	03605663          	blez	s6,12f50 <_vfprintf_r+0x1458>
   12f28:	0e812703          	lw	a4,232(sp)
   12f2c:	01690933          	add	s2,s2,s6
   12f30:	01bbb023          	sd	s11,0(s7)
   12f34:	0017071b          	addiw	a4,a4,1
   12f38:	016bb423          	sd	s6,8(s7)
   12f3c:	0f213823          	sd	s2,240(sp)
   12f40:	0ee12423          	sw	a4,232(sp)
   12f44:	00700693          	li	a3,7
   12f48:	010b8b93          	addi	s7,s7,16
   12f4c:	52e6cce3          	blt	a3,a4,13c84 <_vfprintf_r+0x218c>
   12f50:	000b0a93          	mv	s5,s6
   12f54:	600b4863          	bltz	s6,13564 <_vfprintf_r+0x1a6c>
   12f58:	41548abb          	subw	s5,s1,s5
   12f5c:	65504a63          	bgtz	s5,135b0 <_vfprintf_r+0x1ab8>
   12f60:	400e7713          	andi	a4,t3,1024
   12f64:	009d8fb3          	add	t6,s11,s1
   12f68:	2e071ce3          	bnez	a4,13a60 <_vfprintf_r+0x1f68>
   12f6c:	0b012a83          	lw	s5,176(sp)
   12f70:	03013783          	ld	a5,48(sp)
   12f74:	00fac663          	blt	s5,a5,12f80 <_vfprintf_r+0x1488>
   12f78:	001e7713          	andi	a4,t3,1
   12f7c:	5a070ae3          	beqz	a4,13d30 <_vfprintf_r+0x2238>
   12f80:	04813783          	ld	a5,72(sp)
   12f84:	0e812703          	lw	a4,232(sp)
   12f88:	00700693          	li	a3,7
   12f8c:	00f90933          	add	s2,s2,a5
   12f90:	05013783          	ld	a5,80(sp)
   12f94:	0017071b          	addiw	a4,a4,1
   12f98:	0f213823          	sd	s2,240(sp)
   12f9c:	00fbb023          	sd	a5,0(s7)
   12fa0:	04813783          	ld	a5,72(sp)
   12fa4:	0ee12423          	sw	a4,232(sp)
   12fa8:	010b8b93          	addi	s7,s7,16
   12fac:	fefbbc23          	sd	a5,-8(s7)
   12fb0:	00e6d463          	bge	a3,a4,12fb8 <_vfprintf_r+0x14c0>
   12fb4:	3400106f          	j	142f4 <_vfprintf_r+0x27fc>
   12fb8:	03013783          	ld	a5,48(sp)
   12fbc:	00fd87b3          	add	a5,s11,a5
   12fc0:	41f78b33          	sub	s6,a5,t6
   12fc4:	03013783          	ld	a5,48(sp)
   12fc8:	41578abb          	subw	s5,a5,s5
   12fcc:	000b079b          	sext.w	a5,s6
   12fd0:	00fad463          	bge	s5,a5,12fd8 <_vfprintf_r+0x14e0>
   12fd4:	000a8b13          	mv	s6,s5
   12fd8:	000b0b1b          	sext.w	s6,s6
   12fdc:	03605863          	blez	s6,1300c <_vfprintf_r+0x1514>
   12fe0:	0e812783          	lw	a5,232(sp)
   12fe4:	01690933          	add	s2,s2,s6
   12fe8:	01fbb023          	sd	t6,0(s7)
   12fec:	0017879b          	addiw	a5,a5,1
   12ff0:	016bb423          	sd	s6,8(s7)
   12ff4:	0f213823          	sd	s2,240(sp)
   12ff8:	0ef12423          	sw	a5,232(sp)
   12ffc:	00700713          	li	a4,7
   13000:	010b8b93          	addi	s7,s7,16
   13004:	00f75463          	bge	a4,a5,1300c <_vfprintf_r+0x1514>
   13008:	3b80106f          	j	143c0 <_vfprintf_r+0x28c8>
   1300c:	000b0793          	mv	a5,s6
   13010:	000b5463          	bgez	s6,13018 <_vfprintf_r+0x1520>
   13014:	00000793          	li	a5,0
   13018:	40fa8abb          	subw	s5,s5,a5
   1301c:	01504463          	bgtz	s5,13024 <_vfprintf_r+0x152c>
   13020:	de5fe06f          	j	11e04 <_vfprintf_r+0x30c>
   13024:	01000b13          	li	s6,16
   13028:	0e812783          	lw	a5,232(sp)
   1302c:	0001e6b7          	lui	a3,0x1e
   13030:	015b4463          	blt	s6,s5,13038 <_vfprintf_r+0x1540>
   13034:	1840106f          	j	141b8 <_vfprintf_r+0x26c0>
   13038:	000a8493          	mv	s1,s5
   1303c:	00090713          	mv	a4,s2
   13040:	00700d93          	li	s11,7
   13044:	00080a93          	mv	s5,a6
   13048:	000e0913          	mv	s2,t3
   1304c:	59868c13          	addi	s8,a3,1432 # 1e598 <zeroes.0>
   13050:	00c0006f          	j	1305c <_vfprintf_r+0x1564>
   13054:	ff04849b          	addiw	s1,s1,-16
   13058:	769b5e63          	bge	s6,s1,137d4 <_vfprintf_r+0x1cdc>
   1305c:	01070713          	addi	a4,a4,16
   13060:	0017879b          	addiw	a5,a5,1
   13064:	018bb023          	sd	s8,0(s7)
   13068:	016bb423          	sd	s6,8(s7)
   1306c:	0ee13823          	sd	a4,240(sp)
   13070:	0ef12423          	sw	a5,232(sp)
   13074:	010b8b93          	addi	s7,s7,16
   13078:	fcfddee3          	bge	s11,a5,13054 <_vfprintf_r+0x155c>
   1307c:	00813583          	ld	a1,8(sp)
   13080:	00013503          	ld	a0,0(sp)
   13084:	0e010613          	addi	a2,sp,224
   13088:	151010ef          	jal	149d8 <__sprint_r>
   1308c:	b60518e3          	bnez	a0,12bfc <_vfprintf_r+0x1104>
   13090:	0f013703          	ld	a4,240(sp)
   13094:	0e812783          	lw	a5,232(sp)
   13098:	00098b93          	mv	s7,s3
   1309c:	fb9ff06f          	j	13054 <_vfprintf_r+0x155c>
   130a0:	00200393          	li	t2,2
   130a4:	01000913          	li	s2,16
   130a8:	00068613          	mv	a2,a3
   130ac:	0001e6b7          	lui	a3,0x1e
   130b0:	00e94463          	blt	s2,a4,130b8 <_vfprintf_r+0x15c0>
   130b4:	2a40106f          	j	14358 <_vfprintf_r+0x2860>
   130b8:	000b8793          	mv	a5,s7
   130bc:	09513823          	sd	s5,144(sp)
   130c0:	000b0b93          	mv	s7,s6
   130c4:	00700f93          	li	t6,7
   130c8:	00070493          	mv	s1,a4
   130cc:	06713823          	sd	t2,112(sp)
   130d0:	06513c23          	sd	t0,120(sp)
   130d4:	08613423          	sd	t1,136(sp)
   130d8:	000e0c13          	mv	s8,t3
   130dc:	00080b13          	mv	s6,a6
   130e0:	5a868a93          	addi	s5,a3,1448 # 1e5a8 <blanks.1>
   130e4:	00c0006f          	j	130f0 <_vfprintf_r+0x15f8>
   130e8:	ff04849b          	addiw	s1,s1,-16
   130ec:	04995863          	bge	s2,s1,1313c <_vfprintf_r+0x1644>
   130f0:	01058593          	addi	a1,a1,16
   130f4:	0016061b          	addiw	a2,a2,1
   130f8:	0157b023          	sd	s5,0(a5)
   130fc:	0127b423          	sd	s2,8(a5)
   13100:	0eb13823          	sd	a1,240(sp)
   13104:	0ec12423          	sw	a2,232(sp)
   13108:	01078793          	addi	a5,a5,16
   1310c:	fccfdee3          	bge	t6,a2,130e8 <_vfprintf_r+0x15f0>
   13110:	00813583          	ld	a1,8(sp)
   13114:	00013503          	ld	a0,0(sp)
   13118:	0e010613          	addi	a2,sp,224
   1311c:	0bd010ef          	jal	149d8 <__sprint_r>
   13120:	ac051ee3          	bnez	a0,12bfc <_vfprintf_r+0x1104>
   13124:	ff04849b          	addiw	s1,s1,-16
   13128:	0f013583          	ld	a1,240(sp)
   1312c:	0e812603          	lw	a2,232(sp)
   13130:	00098793          	mv	a5,s3
   13134:	00700f93          	li	t6,7
   13138:	fa994ce3          	blt	s2,s1,130f0 <_vfprintf_r+0x15f8>
   1313c:	000a8693          	mv	a3,s5
   13140:	07013383          	ld	t2,112(sp)
   13144:	07813283          	ld	t0,120(sp)
   13148:	08813303          	ld	t1,136(sp)
   1314c:	09013a83          	ld	s5,144(sp)
   13150:	000b0813          	mv	a6,s6
   13154:	00048713          	mv	a4,s1
   13158:	000b8b13          	mv	s6,s7
   1315c:	000c0e13          	mv	t3,s8
   13160:	00078b93          	mv	s7,a5
   13164:	00b70933          	add	s2,a4,a1
   13168:	0016061b          	addiw	a2,a2,1
   1316c:	00ebb423          	sd	a4,8(s7)
   13170:	0f213823          	sd	s2,240(sp)
   13174:	0ec12423          	sw	a2,232(sp)
   13178:	00dbb023          	sd	a3,0(s7)
   1317c:	00700713          	li	a4,7
   13180:	56c74263          	blt	a4,a2,136e4 <_vfprintf_r+0x1bec>
   13184:	0a714703          	lbu	a4,167(sp)
   13188:	010b8b93          	addi	s7,s7,16
   1318c:	00028493          	mv	s1,t0
   13190:	14071263          	bnez	a4,132d4 <_vfprintf_r+0x17dc>
   13194:	00039463          	bnez	t2,1319c <_vfprintf_r+0x16a4>
   13198:	c35fe06f          	j	11dcc <_vfprintf_r+0x2d4>
   1319c:	00000293          	li	t0,0
   131a0:	bf5fe06f          	j	11d94 <_vfprintf_r+0x29c>
   131a4:	0e812683          	lw	a3,232(sp)
   131a8:	00048293          	mv	t0,s1
   131ac:	00000393          	li	t2,0
   131b0:	ef5ff06f          	j	130a4 <_vfprintf_r+0x15ac>
   131b4:	00000b13          	li	s6,0
   131b8:	00000a93          	li	s5,0
   131bc:	04013023          	sd	zero,64(sp)
   131c0:	02013c23          	sd	zero,56(sp)
   131c4:	00000493          	li	s1,0
   131c8:	02013023          	sd	zero,32(sp)
   131cc:	15c10d93          	addi	s11,sp,348
   131d0:	b71fe06f          	j	11d40 <_vfprintf_r+0x248>
   131d4:	00de7633          	and	a2,t3,a3
   131d8:	ac0614e3          	bnez	a2,12ca0 <_vfprintf_r+0x11a8>
   131dc:	01bbb023          	sd	s11,0(s7)
   131e0:	00dbb423          	sd	a3,8(s7)
   131e4:	0f213823          	sd	s2,240(sp)
   131e8:	0f512423          	sw	s5,232(sp)
   131ec:	00700793          	li	a5,7
   131f0:	b557dae3          	bge	a5,s5,12d44 <_vfprintf_r+0x124c>
   131f4:	00813583          	ld	a1,8(sp)
   131f8:	00013503          	ld	a0,0(sp)
   131fc:	0e010613          	addi	a2,sp,224
   13200:	05013023          	sd	a6,64(sp)
   13204:	03c13c23          	sd	t3,56(sp)
   13208:	7d0010ef          	jal	149d8 <__sprint_r>
   1320c:	9e0518e3          	bnez	a0,12bfc <_vfprintf_r+0x1104>
   13210:	0f013903          	ld	s2,240(sp)
   13214:	0e812a83          	lw	s5,232(sp)
   13218:	04013803          	ld	a6,64(sp)
   1321c:	03813e03          	ld	t3,56(sp)
   13220:	00098b13          	mv	s6,s3
   13224:	b21ff06f          	j	12d44 <_vfprintf_r+0x124c>
   13228:	03013703          	ld	a4,48(sp)
   1322c:	00100793          	li	a5,1
   13230:	b0e7dae3          	bge	a5,a4,12d44 <_vfprintf_r+0x124c>
   13234:	01100793          	li	a5,17
   13238:	0001e6b7          	lui	a3,0x1e
   1323c:	00e7c463          	blt	a5,a4,13244 <_vfprintf_r+0x174c>
   13240:	5780106f          	j	147b8 <_vfprintf_r+0x2cc0>
   13244:	00090713          	mv	a4,s2
   13248:	000b8493          	mv	s1,s7
   1324c:	01000d93          	li	s11,16
   13250:	00700793          	li	a5,7
   13254:	000e0913          	mv	s2,t3
   13258:	00080b93          	mv	s7,a6
   1325c:	59868c13          	addi	s8,a3,1432 # 1e598 <zeroes.0>
   13260:	00c0006f          	j	1326c <_vfprintf_r+0x1774>
   13264:	ff04849b          	addiw	s1,s1,-16
   13268:	1e9dd463          	bge	s11,s1,13450 <_vfprintf_r+0x1958>
   1326c:	01070713          	addi	a4,a4,16
   13270:	001a8a9b          	addiw	s5,s5,1
   13274:	018b3023          	sd	s8,0(s6)
   13278:	01bb3423          	sd	s11,8(s6)
   1327c:	0ee13823          	sd	a4,240(sp)
   13280:	0f512423          	sw	s5,232(sp)
   13284:	010b0b13          	addi	s6,s6,16
   13288:	fd57dee3          	bge	a5,s5,13264 <_vfprintf_r+0x176c>
   1328c:	00813583          	ld	a1,8(sp)
   13290:	00013503          	ld	a0,0(sp)
   13294:	0e010613          	addi	a2,sp,224
   13298:	740010ef          	jal	149d8 <__sprint_r>
   1329c:	960510e3          	bnez	a0,12bfc <_vfprintf_r+0x1104>
   132a0:	0f013703          	ld	a4,240(sp)
   132a4:	0e812a83          	lw	s5,232(sp)
   132a8:	00098b13          	mv	s6,s3
   132ac:	00700793          	li	a5,7
   132b0:	fb5ff06f          	j	13264 <_vfprintf_r+0x176c>
   132b4:	001e7793          	andi	a5,t3,1
   132b8:	00079463          	bnez	a5,132c0 <_vfprintf_r+0x17c8>
   132bc:	b49fe06f          	j	11e04 <_vfprintf_r+0x30c>
   132c0:	e40ff06f          	j	12900 <_vfprintf_r+0xe08>
   132c4:	00878793          	addi	a5,a5,8
   132c8:	000cc303          	lbu	t1,0(s9)
   132cc:	00f13c23          	sd	a5,24(sp)
   132d0:	9ddfe06f          	j	11cac <_vfprintf_r+0x1b4>
   132d4:	00000293          	li	t0,0
   132d8:	a89fe06f          	j	11d60 <_vfprintf_r+0x268>
   132dc:	000b081b          	sext.w	a6,s6
   132e0:	02013023          	sd	zero,32(sp)
   132e4:	04013023          	sd	zero,64(sp)
   132e8:	02013c23          	sd	zero,56(sp)
   132ec:	00000493          	li	s1,0
   132f0:	a51fe06f          	j	11d40 <_vfprintf_r+0x248>
   132f4:	01013783          	ld	a5,16(sp)
   132f8:	00f73023          	sd	a5,0(a4)
   132fc:	915fe06f          	j	11c10 <_vfprintf_r+0x118>
   13300:	000e0813          	mv	a6,t3
   13304:	c00ff06f          	j	12704 <_vfprintf_r+0xc0c>
   13308:	ffe60613          	addi	a2,a2,-2
   1330c:	40cb0b3b          	subw	s6,s6,a2
   13310:	fedd8fa3          	sb	a3,-1(s11)
   13314:	000a881b          	sext.w	a6,s5
   13318:	016ad463          	bge	s5,s6,13320 <_vfprintf_r+0x1828>
   1331c:	000b081b          	sext.w	a6,s6
   13320:	00060d93          	mv	s11,a2
   13324:	02013023          	sd	zero,32(sp)
   13328:	04013023          	sd	zero,64(sp)
   1332c:	02013c23          	sd	zero,56(sp)
   13330:	00000493          	li	s1,0
   13334:	a0dfe06f          	j	11d40 <_vfprintf_r+0x248>
   13338:	01813783          	ld	a5,24(sp)
   1333c:	00878613          	addi	a2,a5,8
   13340:	01813783          	ld	a5,24(sp)
   13344:	000f0e13          	mv	t3,t5
   13348:	00c13c23          	sd	a2,24(sp)
   1334c:	0007b783          	ld	a5,0(a5)
   13350:	00078713          	mv	a4,a5
   13354:	84cff06f          	j	123a0 <_vfprintf_r+0x8a8>
   13358:	0104f793          	andi	a5,s1,16
   1335c:	00078463          	beqz	a5,13364 <_vfprintf_r+0x186c>
   13360:	1240106f          	j	14484 <_vfprintf_r+0x298c>
   13364:	01813703          	ld	a4,24(sp)
   13368:	0404f793          	andi	a5,s1,64
   1336c:	00870693          	addi	a3,a4,8
   13370:	00072703          	lw	a4,0(a4)
   13374:	2c078263          	beqz	a5,13638 <_vfprintf_r+0x1b40>
   13378:	03071713          	slli	a4,a4,0x30
   1337c:	0a0103a3          	sb	zero,167(sp)
   13380:	03075713          	srli	a4,a4,0x30
   13384:	2c0ac463          	bltz	s5,1364c <_vfprintf_r+0x1b54>
   13388:	00eaefb3          	or	t6,s5,a4
   1338c:	000f849b          	sext.w	s1,t6
   13390:	00d13c23          	sd	a3,24(sp)
   13394:	f7fe7e13          	andi	t3,t3,-129
   13398:	8c049063          	bnez	s1,12458 <_vfprintf_r+0x960>
   1339c:	e7cff06f          	j	12a18 <_vfprintf_r+0xf20>
   133a0:	01813783          	ld	a5,24(sp)
   133a4:	00f78793          	addi	a5,a5,15
   133a8:	ff07f793          	andi	a5,a5,-16
   133ac:	01078713          	addi	a4,a5,16
   133b0:	0007b503          	ld	a0,0(a5)
   133b4:	0087b583          	ld	a1,8(a5)
   133b8:	00e13c23          	sd	a4,24(sp)
   133bc:	b55fe06f          	j	11f10 <_vfprintf_r+0x418>
   133c0:	0a714503          	lbu	a0,167(sp)
   133c4:	00100813          	li	a6,1
   133c8:	00000493          	li	s1,0
   133cc:	00100b13          	li	s6,1
   133d0:	15b10d93          	addi	s11,sp,347
   133d4:	8acff06f          	j	12480 <_vfprintf_r+0x988>
   133d8:	00f13c23          	sd	a5,24(sp)
   133dc:	000f0e13          	mv	t3,t5
   133e0:	878ff06f          	j	12458 <_vfprintf_r+0x960>
   133e4:	03012703          	lw	a4,48(sp)
   133e8:	00070b1b          	sext.w	s6,a4
   133ec:	b3604ee3          	bgtz	s6,12f28 <_vfprintf_r+0x1430>
   133f0:	b61ff06f          	j	12f50 <_vfprintf_r+0x1458>
   133f4:	0001e637          	lui	a2,0x1e
   133f8:	0024ee13          	ori	t3,s1,2
   133fc:	00b13c23          	sd	a1,24(sp)
   13400:	2c860613          	addi	a2,a2,712 # 1e2c8 <__clzdi2+0x7c>
   13404:	00200493          	li	s1,2
   13408:	00000513          	li	a0,0
   1340c:	07800313          	li	t1,120
   13410:	15c10b13          	addi	s6,sp,348
   13414:	000b0d93          	mv	s11,s6
   13418:	00f77793          	andi	a5,a4,15
   1341c:	00f607b3          	add	a5,a2,a5
   13420:	0007c783          	lbu	a5,0(a5)
   13424:	00475713          	srli	a4,a4,0x4
   13428:	fffd8d93          	addi	s11,s11,-1
   1342c:	00fd8023          	sb	a5,0(s11)
   13430:	fe0714e3          	bnez	a4,13418 <_vfprintf_r+0x1920>
   13434:	41bb0b3b          	subw	s6,s6,s11
   13438:	000a881b          	sext.w	a6,s5
   1343c:	016ac463          	blt	s5,s6,13444 <_vfprintf_r+0x194c>
   13440:	840ff06f          	j	12480 <_vfprintf_r+0x988>
   13444:	000b081b          	sext.w	a6,s6
   13448:	02013023          	sd	zero,32(sp)
   1344c:	838ff06f          	j	12484 <_vfprintf_r+0x98c>
   13450:	00090e13          	mv	t3,s2
   13454:	000b8813          	mv	a6,s7
   13458:	00070913          	mv	s2,a4
   1345c:	00048b93          	mv	s7,s1
   13460:	000c0693          	mv	a3,s8
   13464:	01790933          	add	s2,s2,s7
   13468:	001a8a9b          	addiw	s5,s5,1
   1346c:	0f213823          	sd	s2,240(sp)
   13470:	0f512423          	sw	s5,232(sp)
   13474:	00db3023          	sd	a3,0(s6)
   13478:	017b3423          	sd	s7,8(s6)
   1347c:	00700793          	li	a5,7
   13480:	8d57d0e3          	bge	a5,s5,12d40 <_vfprintf_r+0x1248>
   13484:	00813583          	ld	a1,8(sp)
   13488:	00013503          	ld	a0,0(sp)
   1348c:	0e010613          	addi	a2,sp,224
   13490:	05013023          	sd	a6,64(sp)
   13494:	03c13c23          	sd	t3,56(sp)
   13498:	540010ef          	jal	149d8 <__sprint_r>
   1349c:	f6051063          	bnez	a0,12bfc <_vfprintf_r+0x1104>
   134a0:	0f013903          	ld	s2,240(sp)
   134a4:	0e812a83          	lw	s5,232(sp)
   134a8:	03813e03          	ld	t3,56(sp)
   134ac:	04013803          	ld	a6,64(sp)
   134b0:	00098b13          	mv	s6,s3
   134b4:	891ff06f          	j	12d44 <_vfprintf_r+0x124c>
   134b8:	fff00a93          	li	s5,-1
   134bc:	00060c93          	mv	s9,a2
   134c0:	ff4fe06f          	j	11cb4 <_vfprintf_r+0x1bc>
   134c4:	001cc303          	lbu	t1,1(s9)
   134c8:	0204e493          	ori	s1,s1,32
   134cc:	001c8c93          	addi	s9,s9,1
   134d0:	fdcfe06f          	j	11cac <_vfprintf_r+0x1b4>
   134d4:	00813583          	ld	a1,8(sp)
   134d8:	00013503          	ld	a0,0(sp)
   134dc:	0e010613          	addi	a2,sp,224
   134e0:	05013023          	sd	a6,64(sp)
   134e4:	03c13c23          	sd	t3,56(sp)
   134e8:	4f0010ef          	jal	149d8 <__sprint_r>
   134ec:	f0051863          	bnez	a0,12bfc <_vfprintf_r+0x1104>
   134f0:	0f013903          	ld	s2,240(sp)
   134f4:	04013803          	ld	a6,64(sp)
   134f8:	03813e03          	ld	t3,56(sp)
   134fc:	00098b93          	mv	s7,s3
   13500:	c34ff06f          	j	12934 <_vfprintf_r+0xe3c>
   13504:	001cc303          	lbu	t1,1(s9)
   13508:	2004e493          	ori	s1,s1,512
   1350c:	001c8c93          	addi	s9,s9,1
   13510:	f9cfe06f          	j	11cac <_vfprintf_r+0x1b4>
   13514:	0001e637          	lui	a2,0x1e
   13518:	00048e13          	mv	t3,s1
   1351c:	2e060613          	addi	a2,a2,736 # 1e2e0 <__clzdi2+0x94>
   13520:	01813703          	ld	a4,24(sp)
   13524:	020e7793          	andi	a5,t3,32
   13528:	00870593          	addi	a1,a4,8
   1352c:	12078463          	beqz	a5,13654 <_vfprintf_r+0x1b5c>
   13530:	00073703          	ld	a4,0(a4)
   13534:	001e7793          	andi	a5,t3,1
   13538:	00e036b3          	snez	a3,a4
   1353c:	00078463          	beqz	a5,13544 <_vfprintf_r+0x1a4c>
   13540:	20069e63          	bnez	a3,1375c <_vfprintf_r+0x1c64>
   13544:	0a0103a3          	sb	zero,167(sp)
   13548:	180ac463          	bltz	s5,136d0 <_vfprintf_r+0x1bd8>
   1354c:	b7fe7e13          	andi	t3,t3,-1153
   13550:	220a9c63          	bnez	s5,13788 <_vfprintf_r+0x1c90>
   13554:	22069a63          	bnez	a3,13788 <_vfprintf_r+0x1c90>
   13558:	00b13c23          	sd	a1,24(sp)
   1355c:	00000493          	li	s1,0
   13560:	cb8ff06f          	j	12a18 <_vfprintf_r+0xf20>
   13564:	00000a93          	li	s5,0
   13568:	9f1ff06f          	j	12f58 <_vfprintf_r+0x1460>
   1356c:	0001e637          	lui	a2,0x1e
   13570:	00048e13          	mv	t3,s1
   13574:	2c860613          	addi	a2,a2,712 # 1e2c8 <__clzdi2+0x7c>
   13578:	fa9ff06f          	j	13520 <_vfprintf_r+0x1a28>
   1357c:	00600793          	li	a5,6
   13580:	000a881b          	sext.w	a6,s5
   13584:	6f57ec63          	bltu	a5,s5,13c7c <_vfprintf_r+0x2184>
   13588:	0001e7b7          	lui	a5,0x1e
   1358c:	00913c23          	sd	s1,24(sp)
   13590:	00080b13          	mv	s6,a6
   13594:	2f878d93          	addi	s11,a5,760 # 1e2f8 <__clzdi2+0xac>
   13598:	02013023          	sd	zero,32(sp)
   1359c:	00000a93          	li	s5,0
   135a0:	04013023          	sd	zero,64(sp)
   135a4:	02013c23          	sd	zero,56(sp)
   135a8:	00000493          	li	s1,0
   135ac:	f94fe06f          	j	11d40 <_vfprintf_r+0x248>
   135b0:	01000893          	li	a7,16
   135b4:	0e812703          	lw	a4,232(sp)
   135b8:	0001e6b7          	lui	a3,0x1e
   135bc:	0158c463          	blt	a7,s5,135c4 <_vfprintf_r+0x1acc>
   135c0:	2940106f          	j	14854 <_vfprintf_r+0x2d5c>
   135c4:	000b8793          	mv	a5,s7
   135c8:	00090613          	mv	a2,s2
   135cc:	00048b93          	mv	s7,s1
   135d0:	00700b13          	li	s6,7
   135d4:	000a8493          	mv	s1,s5
   135d8:	000e0913          	mv	s2,t3
   135dc:	00080a93          	mv	s5,a6
   135e0:	59868c13          	addi	s8,a3,1432 # 1e598 <zeroes.0>
   135e4:	00c0006f          	j	135f0 <_vfprintf_r+0x1af8>
   135e8:	ff04849b          	addiw	s1,s1,-16
   135ec:	4098d263          	bge	a7,s1,139f0 <_vfprintf_r+0x1ef8>
   135f0:	01060613          	addi	a2,a2,16
   135f4:	0017071b          	addiw	a4,a4,1
   135f8:	0187b023          	sd	s8,0(a5)
   135fc:	0117b423          	sd	a7,8(a5)
   13600:	0ec13823          	sd	a2,240(sp)
   13604:	0ee12423          	sw	a4,232(sp)
   13608:	01078793          	addi	a5,a5,16
   1360c:	fceb5ee3          	bge	s6,a4,135e8 <_vfprintf_r+0x1af0>
   13610:	00813583          	ld	a1,8(sp)
   13614:	00013503          	ld	a0,0(sp)
   13618:	0e010613          	addi	a2,sp,224
   1361c:	3bc010ef          	jal	149d8 <__sprint_r>
   13620:	dc051e63          	bnez	a0,12bfc <_vfprintf_r+0x1104>
   13624:	0f013603          	ld	a2,240(sp)
   13628:	0e812703          	lw	a4,232(sp)
   1362c:	00098793          	mv	a5,s3
   13630:	01000893          	li	a7,16
   13634:	fb5ff06f          	j	135e8 <_vfprintf_r+0x1af0>
   13638:	2004f493          	andi	s1,s1,512
   1363c:	0a0103a3          	sb	zero,167(sp)
   13640:	74048863          	beqz	s1,13d90 <_vfprintf_r+0x2298>
   13644:	0ff77713          	zext.b	a4,a4
   13648:	d40ad0e3          	bgez	s5,13388 <_vfprintf_r+0x1890>
   1364c:	00d13c23          	sd	a3,24(sp)
   13650:	e09fe06f          	j	12458 <_vfprintf_r+0x960>
   13654:	010e7793          	andi	a5,t3,16
   13658:	0e078463          	beqz	a5,13740 <_vfprintf_r+0x1c48>
   1365c:	01813783          	ld	a5,24(sp)
   13660:	0007b703          	ld	a4,0(a5)
   13664:	ed1ff06f          	j	13534 <_vfprintf_r+0x1a3c>
   13668:	00813583          	ld	a1,8(sp)
   1366c:	00013503          	ld	a0,0(sp)
   13670:	0e010613          	addi	a2,sp,224
   13674:	05013023          	sd	a6,64(sp)
   13678:	03c13c23          	sd	t3,56(sp)
   1367c:	35c010ef          	jal	149d8 <__sprint_r>
   13680:	d6051e63          	bnez	a0,12bfc <_vfprintf_r+0x1104>
   13684:	0f013903          	ld	s2,240(sp)
   13688:	0e812a83          	lw	s5,232(sp)
   1368c:	04013803          	ld	a6,64(sp)
   13690:	03813e03          	ld	t3,56(sp)
   13694:	00098b13          	mv	s6,s3
   13698:	e24ff06f          	j	12cbc <_vfprintf_r+0x11c4>
   1369c:	00813583          	ld	a1,8(sp)
   136a0:	00013503          	ld	a0,0(sp)
   136a4:	0e010613          	addi	a2,sp,224
   136a8:	05013023          	sd	a6,64(sp)
   136ac:	03c13c23          	sd	t3,56(sp)
   136b0:	328010ef          	jal	149d8 <__sprint_r>
   136b4:	d4051463          	bnez	a0,12bfc <_vfprintf_r+0x1104>
   136b8:	0f013903          	ld	s2,240(sp)
   136bc:	0e812a83          	lw	s5,232(sp)
   136c0:	04013803          	ld	a6,64(sp)
   136c4:	03813e03          	ld	t3,56(sp)
   136c8:	00098b13          	mv	s6,s3
   136cc:	e20ff06f          	j	12cec <_vfprintf_r+0x11f4>
   136d0:	bffe7e13          	andi	t3,t3,-1025
   136d4:	00b13c23          	sd	a1,24(sp)
   136d8:	00000493          	li	s1,0
   136dc:	00000513          	li	a0,0
   136e0:	d31ff06f          	j	13410 <_vfprintf_r+0x1918>
   136e4:	00813583          	ld	a1,8(sp)
   136e8:	00013503          	ld	a0,0(sp)
   136ec:	0e010613          	addi	a2,sp,224
   136f0:	09013c23          	sd	a6,152(sp)
   136f4:	09c13823          	sd	t3,144(sp)
   136f8:	08613423          	sd	t1,136(sp)
   136fc:	06513c23          	sd	t0,120(sp)
   13700:	06713823          	sd	t2,112(sp)
   13704:	2d4010ef          	jal	149d8 <__sprint_r>
   13708:	ce051a63          	bnez	a0,12bfc <_vfprintf_r+0x1104>
   1370c:	07813283          	ld	t0,120(sp)
   13710:	0a714703          	lbu	a4,167(sp)
   13714:	0f013903          	ld	s2,240(sp)
   13718:	07013383          	ld	t2,112(sp)
   1371c:	08813303          	ld	t1,136(sp)
   13720:	09013e03          	ld	t3,144(sp)
   13724:	09813803          	ld	a6,152(sp)
   13728:	00028493          	mv	s1,t0
   1372c:	1a070463          	beqz	a4,138d4 <_vfprintf_r+0x1ddc>
   13730:	0e812603          	lw	a2,232(sp)
   13734:	00000293          	li	t0,0
   13738:	00098b93          	mv	s7,s3
   1373c:	e24fe06f          	j	11d60 <_vfprintf_r+0x268>
   13740:	01813703          	ld	a4,24(sp)
   13744:	040e7793          	andi	a5,t3,64
   13748:	00072703          	lw	a4,0(a4)
   1374c:	1a078c63          	beqz	a5,13904 <_vfprintf_r+0x1e0c>
   13750:	03071713          	slli	a4,a4,0x30
   13754:	03075713          	srli	a4,a4,0x30
   13758:	dddff06f          	j	13534 <_vfprintf_r+0x1a3c>
   1375c:	03000793          	li	a5,48
   13760:	0a6104a3          	sb	t1,169(sp)
   13764:	0a0103a3          	sb	zero,167(sp)
   13768:	0af10423          	sb	a5,168(sp)
   1376c:	260ac663          	bltz	s5,139d8 <_vfprintf_r+0x1ee0>
   13770:	b7fe7f13          	andi	t5,t3,-1153
   13774:	002f6e13          	ori	t3,t5,2
   13778:	00200493          	li	s1,2
   1377c:	0a714503          	lbu	a0,167(sp)
   13780:	00b13c23          	sd	a1,24(sp)
   13784:	c8dff06f          	j	13410 <_vfprintf_r+0x1918>
   13788:	00000493          	li	s1,0
   1378c:	ff1ff06f          	j	1377c <_vfprintf_r+0x1c84>
   13790:	00013503          	ld	a0,0(sp)
   13794:	e05fc0ef          	jal	10598 <__sinit>
   13798:	bb8fe06f          	j	11b50 <_vfprintf_r+0x58>
   1379c:	00813583          	ld	a1,8(sp)
   137a0:	00013503          	ld	a0,0(sp)
   137a4:	0e010613          	addi	a2,sp,224
   137a8:	05013023          	sd	a6,64(sp)
   137ac:	03c13c23          	sd	t3,56(sp)
   137b0:	228010ef          	jal	149d8 <__sprint_r>
   137b4:	c4051463          	bnez	a0,12bfc <_vfprintf_r+0x1104>
   137b8:	0f013903          	ld	s2,240(sp)
   137bc:	04013803          	ld	a6,64(sp)
   137c0:	03813e03          	ld	t3,56(sp)
   137c4:	00098b93          	mv	s7,s3
   137c8:	92cff06f          	j	128f4 <_vfprintf_r+0xdfc>
   137cc:	000c0493          	mv	s1,s8
   137d0:	c30ff06f          	j	12c00 <_vfprintf_r+0x1108>
   137d4:	00090e13          	mv	t3,s2
   137d8:	000a8813          	mv	a6,s5
   137dc:	00070913          	mv	s2,a4
   137e0:	00048a93          	mv	s5,s1
   137e4:	000c0693          	mv	a3,s8
   137e8:	01590933          	add	s2,s2,s5
   137ec:	0017879b          	addiw	a5,a5,1
   137f0:	0f213823          	sd	s2,240(sp)
   137f4:	0ef12423          	sw	a5,232(sp)
   137f8:	00dbb023          	sd	a3,0(s7)
   137fc:	015bb423          	sd	s5,8(s7)
   13800:	00700713          	li	a4,7
   13804:	00f74463          	blt	a4,a5,1380c <_vfprintf_r+0x1d14>
   13808:	df8fe06f          	j	11e00 <_vfprintf_r+0x308>
   1380c:	a81fe06f          	j	1228c <_vfprintf_r+0x794>
   13810:	0d013503          	ld	a0,208(sp)
   13814:	0d813583          	ld	a1,216(sp)
   13818:	f7fe7e13          	andi	t3,t3,-129
   1381c:	00000613          	li	a2,0
   13820:	00000693          	li	a3,0
   13824:	02613c23          	sd	t1,56(sp)
   13828:	03c13023          	sd	t3,32(sp)
   1382c:	71c090ef          	jal	1cf48 <__letf2>
   13830:	02013e03          	ld	t3,32(sp)
   13834:	03813303          	ld	t1,56(sp)
   13838:	260544e3          	bltz	a0,142a0 <_vfprintf_r+0x27a8>
   1383c:	04700793          	li	a5,71
   13840:	0a714703          	lbu	a4,167(sp)
   13844:	5a67cc63          	blt	a5,t1,13dfc <_vfprintf_r+0x2304>
   13848:	0001e7b7          	lui	a5,0x1e
   1384c:	2a878d93          	addi	s11,a5,680 # 1e2a8 <__clzdi2+0x5c>
   13850:	16071463          	bnez	a4,139b8 <_vfprintf_r+0x1ec0>
   13854:	00300b13          	li	s6,3
   13858:	000b0813          	mv	a6,s6
   1385c:	d3dff06f          	j	13598 <_vfprintf_r+0x1aa0>
   13860:	0001e637          	lui	a2,0x1e
   13864:	2c860613          	addi	a2,a2,712 # 1e2c8 <__clzdi2+0x7c>
   13868:	00200493          	li	s1,2
   1386c:	07800313          	li	t1,120
   13870:	f0dff06f          	j	1377c <_vfprintf_r+0x1c84>
   13874:	0f013783          	ld	a5,240(sp)
   13878:	00813483          	ld	s1,8(sp)
   1387c:	b8078c63          	beqz	a5,12c14 <_vfprintf_r+0x111c>
   13880:	00013503          	ld	a0,0(sp)
   13884:	0e010613          	addi	a2,sp,224
   13888:	00048593          	mv	a1,s1
   1388c:	14c010ef          	jal	149d8 <__sprint_r>
   13890:	b84ff06f          	j	12c14 <_vfprintf_r+0x111c>
   13894:	000d8513          	mv	a0,s11
   13898:	03c13023          	sd	t3,32(sp)
   1389c:	00613c23          	sd	t1,24(sp)
   138a0:	0b8020ef          	jal	15958 <strlen>
   138a4:	00050b1b          	sext.w	s6,a0
   138a8:	01813303          	ld	t1,24(sp)
   138ac:	02013e03          	ld	t3,32(sp)
   138b0:	000b0713          	mv	a4,s6
   138b4:	500b4263          	bltz	s6,13db8 <_vfprintf_r+0x22c0>
   138b8:	0a714683          	lbu	a3,167(sp)
   138bc:	0007081b          	sext.w	a6,a4
   138c0:	00069463          	bnez	a3,138c8 <_vfprintf_r+0x1dd0>
   138c4:	a91fe06f          	j	12354 <_vfprintf_r+0x85c>
   138c8:	0017081b          	addiw	a6,a4,1
   138cc:	00913c23          	sd	s1,24(sp)
   138d0:	cc9ff06f          	j	13598 <_vfprintf_r+0x1aa0>
   138d4:	46038e63          	beqz	t2,13d50 <_vfprintf_r+0x2258>
   138d8:	0e812603          	lw	a2,232(sp)
   138dc:	00000293          	li	t0,0
   138e0:	00098b93          	mv	s7,s3
   138e4:	cb0fe06f          	j	11d94 <_vfprintf_r+0x29c>
   138e8:	2004f793          	andi	a5,s1,512
   138ec:	48078c63          	beqz	a5,13d84 <_vfprintf_r+0x228c>
   138f0:	0187171b          	slliw	a4,a4,0x18
   138f4:	4187571b          	sraiw	a4,a4,0x18
   138f8:	00c13c23          	sd	a2,24(sp)
   138fc:	00070793          	mv	a5,a4
   13900:	aa1fe06f          	j	123a0 <_vfprintf_r+0x8a8>
   13904:	200e7793          	andi	a5,t3,512
   13908:	46078863          	beqz	a5,13d78 <_vfprintf_r+0x2280>
   1390c:	0ff77713          	zext.b	a4,a4
   13910:	c25ff06f          	j	13534 <_vfprintf_r+0x1a3c>
   13914:	2004f793          	andi	a5,s1,512
   13918:	44078063          	beqz	a5,13d58 <_vfprintf_r+0x2260>
   1391c:	0ff6f693          	zext.b	a3,a3
   13920:	00c13c23          	sd	a2,24(sp)
   13924:	00048813          	mv	a6,s1
   13928:	de9fe06f          	j	12710 <_vfprintf_r+0xc18>
   1392c:	02013023          	sd	zero,32(sp)
   13930:	00000b13          	li	s6,0
   13934:	04013023          	sd	zero,64(sp)
   13938:	02013c23          	sd	zero,56(sp)
   1393c:	00000493          	li	s1,0
   13940:	15c10d93          	addi	s11,sp,348
   13944:	00000813          	li	a6,0
   13948:	bf8fe06f          	j	11d40 <_vfprintf_r+0x248>
   1394c:	100e6713          	ori	a4,t3,256
   13950:	fff00793          	li	a5,-1
   13954:	02e13023          	sd	a4,32(sp)
   13958:	0d013483          	ld	s1,208(sp)
   1395c:	0d813b03          	ld	s6,216(sp)
   13960:	4afa8463          	beq	s5,a5,13e08 <_vfprintf_r+0x2310>
   13964:	06013823          	sd	zero,112(sp)
   13968:	000a9663          	bnez	s5,13974 <_vfprintf_r+0x1e7c>
   1396c:	fb990713          	addi	a4,s2,-71
   13970:	64070a63          	beqz	a4,13fc4 <_vfprintf_r+0x24cc>
   13974:	4a0b5063          	bgez	s6,13e14 <_vfprintf_r+0x231c>
   13978:	fff00793          	li	a5,-1
   1397c:	03f79793          	slli	a5,a5,0x3f
   13980:	00fb4b33          	xor	s6,s6,a5
   13984:	02d00793          	li	a5,45
   13988:	06f13823          	sd	a5,112(sp)
   1398c:	4880006f          	j	13e14 <_vfprintf_r+0x231c>
   13990:	0d813783          	ld	a5,216(sp)
   13994:	f7fe7e13          	andi	t3,t3,-129
   13998:	03f7d493          	srli	s1,a5,0x3f
   1399c:	4207d663          	bgez	a5,13dc8 <_vfprintf_r+0x22d0>
   139a0:	02d00793          	li	a5,45
   139a4:	0af103a3          	sb	a5,167(sp)
   139a8:	04700793          	li	a5,71
   139ac:	4867d6e3          	bge	a5,t1,14638 <_vfprintf_r+0x2b40>
   139b0:	0001e7b7          	lui	a5,0x1e
   139b4:	2c078d93          	addi	s11,a5,704 # 1e2c0 <__clzdi2+0x74>
   139b8:	02013023          	sd	zero,32(sp)
   139bc:	00300b13          	li	s6,3
   139c0:	00000a93          	li	s5,0
   139c4:	04013023          	sd	zero,64(sp)
   139c8:	02013c23          	sd	zero,56(sp)
   139cc:	00000493          	li	s1,0
   139d0:	00400813          	li	a6,4
   139d4:	b6cfe06f          	j	11d40 <_vfprintf_r+0x248>
   139d8:	bffe7f13          	andi	t5,t3,-1025
   139dc:	002f6e13          	ori	t3,t5,2
   139e0:	00b13c23          	sd	a1,24(sp)
   139e4:	00200493          	li	s1,2
   139e8:	00000513          	li	a0,0
   139ec:	a25ff06f          	j	13410 <_vfprintf_r+0x1918>
   139f0:	00090e13          	mv	t3,s2
   139f4:	000a8813          	mv	a6,s5
   139f8:	00060913          	mv	s2,a2
   139fc:	00048a93          	mv	s5,s1
   13a00:	000c0693          	mv	a3,s8
   13a04:	000b8493          	mv	s1,s7
   13a08:	00078b93          	mv	s7,a5
   13a0c:	01590933          	add	s2,s2,s5
   13a10:	0017071b          	addiw	a4,a4,1
   13a14:	00dbb023          	sd	a3,0(s7)
   13a18:	015bb423          	sd	s5,8(s7)
   13a1c:	0f213823          	sd	s2,240(sp)
   13a20:	0ee12423          	sw	a4,232(sp)
   13a24:	00700693          	li	a3,7
   13a28:	010b8b93          	addi	s7,s7,16
   13a2c:	d2e6da63          	bge	a3,a4,12f60 <_vfprintf_r+0x1468>
   13a30:	00813583          	ld	a1,8(sp)
   13a34:	00013503          	ld	a0,0(sp)
   13a38:	0e010613          	addi	a2,sp,224
   13a3c:	07013c23          	sd	a6,120(sp)
   13a40:	07c13823          	sd	t3,112(sp)
   13a44:	795000ef          	jal	149d8 <__sprint_r>
   13a48:	9a051a63          	bnez	a0,12bfc <_vfprintf_r+0x1104>
   13a4c:	0f013903          	ld	s2,240(sp)
   13a50:	07813803          	ld	a6,120(sp)
   13a54:	07013e03          	ld	t3,112(sp)
   13a58:	00098b93          	mv	s7,s3
   13a5c:	d04ff06f          	j	12f60 <_vfprintf_r+0x1468>
   13a60:	03813783          	ld	a5,56(sp)
   13a64:	04013703          	ld	a4,64(sp)
   13a68:	00e7e733          	or	a4,a5,a4
   13a6c:	640706e3          	beqz	a4,148b8 <_vfprintf_r+0x2dc0>
   13a70:	03013783          	ld	a5,48(sp)
   13a74:	07a13823          	sd	s10,112(sp)
   13a78:	07b13c23          	sd	s11,120(sp)
   13a7c:	00fd8333          	add	t1,s11,a5
   13a80:	00090713          	mv	a4,s2
   13a84:	09913c23          	sd	s9,152(sp)
   13a88:	06813d03          	ld	s10,104(sp)
   13a8c:	04013d83          	ld	s11,64(sp)
   13a90:	03813903          	ld	s2,56(sp)
   13a94:	08013c83          	ld	s9,128(sp)
   13a98:	00813a83          	ld	s5,8(sp)
   13a9c:	0001e8b7          	lui	a7,0x1e
   13aa0:	000b8793          	mv	a5,s7
   13aa4:	59888893          	addi	a7,a7,1432 # 1e598 <zeroes.0>
   13aa8:	00700693          	li	a3,7
   13aac:	01000b13          	li	s6,16
   13ab0:	000f8c13          	mv	s8,t6
   13ab4:	09c13423          	sd	t3,136(sp)
   13ab8:	09013823          	sd	a6,144(sp)
   13abc:	00030b93          	mv	s7,t1
   13ac0:	0bb04263          	bgtz	s11,13b64 <_vfprintf_r+0x206c>
   13ac4:	fffd0d13          	addi	s10,s10,-1
   13ac8:	fff9091b          	addiw	s2,s2,-1
   13acc:	0e812603          	lw	a2,232(sp)
   13ad0:	06013583          	ld	a1,96(sp)
   13ad4:	01970733          	add	a4,a4,s9
   13ad8:	0016061b          	addiw	a2,a2,1
   13adc:	00b7b023          	sd	a1,0(a5)
   13ae0:	0197b423          	sd	s9,8(a5)
   13ae4:	0ee13823          	sd	a4,240(sp)
   13ae8:	0ec12423          	sw	a2,232(sp)
   13aec:	01078793          	addi	a5,a5,16
   13af0:	12c6c263          	blt	a3,a2,13c14 <_vfprintf_r+0x211c>
   13af4:	000d4603          	lbu	a2,0(s10)
   13af8:	418b83b3          	sub	t2,s7,s8
   13afc:	0003859b          	sext.w	a1,t2
   13b00:	0006081b          	sext.w	a6,a2
   13b04:	000b8293          	mv	t0,s7
   13b08:	00b65463          	bge	a2,a1,13b10 <_vfprintf_r+0x2018>
   13b0c:	00080393          	mv	t2,a6
   13b10:	0003849b          	sext.w	s1,t2
   13b14:	02905863          	blez	s1,13b44 <_vfprintf_r+0x204c>
   13b18:	0e812603          	lw	a2,232(sp)
   13b1c:	00970733          	add	a4,a4,s1
   13b20:	0ee13823          	sd	a4,240(sp)
   13b24:	0016061b          	addiw	a2,a2,1
   13b28:	0187b023          	sd	s8,0(a5)
   13b2c:	0097b423          	sd	s1,8(a5)
   13b30:	0ec12423          	sw	a2,232(sp)
   13b34:	10c6c663          	blt	a3,a2,13c40 <_vfprintf_r+0x2148>
   13b38:	000d4603          	lbu	a2,0(s10)
   13b3c:	01078793          	addi	a5,a5,16
   13b40:	0006081b          	sext.w	a6,a2
   13b44:	00048593          	mv	a1,s1
   13b48:	0004d463          	bgez	s1,13b50 <_vfprintf_r+0x2058>
   13b4c:	00000593          	li	a1,0
   13b50:	40b804bb          	subw	s1,a6,a1
   13b54:	00904c63          	bgtz	s1,13b6c <_vfprintf_r+0x2074>
   13b58:	00cc0c33          	add	s8,s8,a2
   13b5c:	f72042e3          	bgtz	s2,13ac0 <_vfprintf_r+0x1fc8>
   13b60:	43b05663          	blez	s11,13f8c <_vfprintf_r+0x2494>
   13b64:	fffd8d9b          	addiw	s11,s11,-1
   13b68:	f65ff06f          	j	13acc <_vfprintf_r+0x1fd4>
   13b6c:	0001e5b7          	lui	a1,0x1e
   13b70:	0e812603          	lw	a2,232(sp)
   13b74:	59858593          	addi	a1,a1,1432 # 1e598 <zeroes.0>
   13b78:	069b5a63          	bge	s6,s1,13bec <_vfprintf_r+0x20f4>
   13b7c:	02513c23          	sd	t0,56(sp)
   13b80:	05113023          	sd	a7,64(sp)
   13b84:	00c0006f          	j	13b90 <_vfprintf_r+0x2098>
   13b88:	ff04849b          	addiw	s1,s1,-16
   13b8c:	049b5c63          	bge	s6,s1,13be4 <_vfprintf_r+0x20ec>
   13b90:	01070713          	addi	a4,a4,16
   13b94:	0016061b          	addiw	a2,a2,1
   13b98:	0117b023          	sd	a7,0(a5)
   13b9c:	0167b423          	sd	s6,8(a5)
   13ba0:	0ee13823          	sd	a4,240(sp)
   13ba4:	0ec12423          	sw	a2,232(sp)
   13ba8:	01078793          	addi	a5,a5,16
   13bac:	fcc6dee3          	bge	a3,a2,13b88 <_vfprintf_r+0x2090>
   13bb0:	00013503          	ld	a0,0(sp)
   13bb4:	0e010613          	addi	a2,sp,224
   13bb8:	000a8593          	mv	a1,s5
   13bbc:	61d000ef          	jal	149d8 <__sprint_r>
   13bc0:	62051c63          	bnez	a0,141f8 <_vfprintf_r+0x2700>
   13bc4:	0001e6b7          	lui	a3,0x1e
   13bc8:	ff04849b          	addiw	s1,s1,-16
   13bcc:	59868893          	addi	a7,a3,1432 # 1e598 <zeroes.0>
   13bd0:	0f013703          	ld	a4,240(sp)
   13bd4:	0e812603          	lw	a2,232(sp)
   13bd8:	00098793          	mv	a5,s3
   13bdc:	00700693          	li	a3,7
   13be0:	fa9b48e3          	blt	s6,s1,13b90 <_vfprintf_r+0x2098>
   13be4:	03813283          	ld	t0,56(sp)
   13be8:	04013583          	ld	a1,64(sp)
   13bec:	00970733          	add	a4,a4,s1
   13bf0:	0016061b          	addiw	a2,a2,1
   13bf4:	0ee13823          	sd	a4,240(sp)
   13bf8:	0ec12423          	sw	a2,232(sp)
   13bfc:	00b7b023          	sd	a1,0(a5)
   13c00:	0097b423          	sd	s1,8(a5)
   13c04:	6ac6cc63          	blt	a3,a2,142bc <_vfprintf_r+0x27c4>
   13c08:	000d4603          	lbu	a2,0(s10)
   13c0c:	01078793          	addi	a5,a5,16
   13c10:	f49ff06f          	j	13b58 <_vfprintf_r+0x2060>
   13c14:	00013503          	ld	a0,0(sp)
   13c18:	0e010613          	addi	a2,sp,224
   13c1c:	000a8593          	mv	a1,s5
   13c20:	5b9000ef          	jal	149d8 <__sprint_r>
   13c24:	5c051a63          	bnez	a0,141f8 <_vfprintf_r+0x2700>
   13c28:	0001e6b7          	lui	a3,0x1e
   13c2c:	59868893          	addi	a7,a3,1432 # 1e598 <zeroes.0>
   13c30:	0f013703          	ld	a4,240(sp)
   13c34:	00098793          	mv	a5,s3
   13c38:	00700693          	li	a3,7
   13c3c:	eb9ff06f          	j	13af4 <_vfprintf_r+0x1ffc>
   13c40:	00013503          	ld	a0,0(sp)
   13c44:	0e010613          	addi	a2,sp,224
   13c48:	000a8593          	mv	a1,s5
   13c4c:	02513c23          	sd	t0,56(sp)
   13c50:	589000ef          	jal	149d8 <__sprint_r>
   13c54:	5a051263          	bnez	a0,141f8 <_vfprintf_r+0x2700>
   13c58:	000d4603          	lbu	a2,0(s10)
   13c5c:	0001e6b7          	lui	a3,0x1e
   13c60:	59868893          	addi	a7,a3,1432 # 1e598 <zeroes.0>
   13c64:	0f013703          	ld	a4,240(sp)
   13c68:	03813283          	ld	t0,56(sp)
   13c6c:	00098793          	mv	a5,s3
   13c70:	0006081b          	sext.w	a6,a2
   13c74:	00700693          	li	a3,7
   13c78:	ecdff06f          	j	13b44 <_vfprintf_r+0x204c>
   13c7c:	0007881b          	sext.w	a6,a5
   13c80:	909ff06f          	j	13588 <_vfprintf_r+0x1a90>
   13c84:	00813583          	ld	a1,8(sp)
   13c88:	00013503          	ld	a0,0(sp)
   13c8c:	0e010613          	addi	a2,sp,224
   13c90:	07013c23          	sd	a6,120(sp)
   13c94:	07c13823          	sd	t3,112(sp)
   13c98:	541000ef          	jal	149d8 <__sprint_r>
   13c9c:	00050463          	beqz	a0,13ca4 <_vfprintf_r+0x21ac>
   13ca0:	f5dfe06f          	j	12bfc <_vfprintf_r+0x1104>
   13ca4:	0f013903          	ld	s2,240(sp)
   13ca8:	07813803          	ld	a6,120(sp)
   13cac:	07013e03          	ld	t3,112(sp)
   13cb0:	00098b93          	mv	s7,s3
   13cb4:	a9cff06f          	j	12f50 <_vfprintf_r+0x1458>
   13cb8:	001e7713          	andi	a4,t3,1
   13cbc:	00071463          	bnez	a4,13cc4 <_vfprintf_r+0x21cc>
   13cc0:	944fe06f          	j	11e04 <_vfprintf_r+0x30c>
   13cc4:	04813783          	ld	a5,72(sp)
   13cc8:	0e812703          	lw	a4,232(sp)
   13ccc:	00700693          	li	a3,7
   13cd0:	01278933          	add	s2,a5,s2
   13cd4:	05013783          	ld	a5,80(sp)
   13cd8:	0017071b          	addiw	a4,a4,1
   13cdc:	0f213823          	sd	s2,240(sp)
   13ce0:	00fbb023          	sd	a5,0(s7)
   13ce4:	04813783          	ld	a5,72(sp)
   13ce8:	0ee12423          	sw	a4,232(sp)
   13cec:	00fbb423          	sd	a5,8(s7)
   13cf0:	50e6d863          	bge	a3,a4,14200 <_vfprintf_r+0x2708>
   13cf4:	00813583          	ld	a1,8(sp)
   13cf8:	00013503          	ld	a0,0(sp)
   13cfc:	0e010613          	addi	a2,sp,224
   13d00:	05013023          	sd	a6,64(sp)
   13d04:	03c13c23          	sd	t3,56(sp)
   13d08:	4d1000ef          	jal	149d8 <__sprint_r>
   13d0c:	00050463          	beqz	a0,13d14 <_vfprintf_r+0x221c>
   13d10:	eedfe06f          	j	12bfc <_vfprintf_r+0x1104>
   13d14:	0b012603          	lw	a2,176(sp)
   13d18:	0f013903          	ld	s2,240(sp)
   13d1c:	0e812703          	lw	a4,232(sp)
   13d20:	04013803          	ld	a6,64(sp)
   13d24:	03813e03          	ld	t3,56(sp)
   13d28:	00098b93          	mv	s7,s3
   13d2c:	d34fe06f          	j	12260 <_vfprintf_r+0x768>
   13d30:	00fd8b33          	add	s6,s11,a5
   13d34:	41fb0b33          	sub	s6,s6,t6
   13d38:	41578abb          	subw	s5,a5,s5
   13d3c:	000b079b          	sext.w	a5,s6
   13d40:	00fad463          	bge	s5,a5,13d48 <_vfprintf_r+0x2250>
   13d44:	000a8b13          	mv	s6,s5
   13d48:	000b0b1b          	sext.w	s6,s6
   13d4c:	ac0ff06f          	j	1300c <_vfprintf_r+0x1514>
   13d50:	00098b93          	mv	s7,s3
   13d54:	878fe06f          	j	11dcc <_vfprintf_r+0x2d4>
   13d58:	02069693          	slli	a3,a3,0x20
   13d5c:	0206d693          	srli	a3,a3,0x20
   13d60:	00c13c23          	sd	a2,24(sp)
   13d64:	00048813          	mv	a6,s1
   13d68:	9a9fe06f          	j	12710 <_vfprintf_r+0xc18>
   13d6c:	01013783          	ld	a5,16(sp)
   13d70:	00f71023          	sh	a5,0(a4)
   13d74:	e9dfd06f          	j	11c10 <_vfprintf_r+0x118>
   13d78:	02071713          	slli	a4,a4,0x20
   13d7c:	02075713          	srli	a4,a4,0x20
   13d80:	fb4ff06f          	j	13534 <_vfprintf_r+0x1a3c>
   13d84:	00c13c23          	sd	a2,24(sp)
   13d88:	00070793          	mv	a5,a4
   13d8c:	e14fe06f          	j	123a0 <_vfprintf_r+0x8a8>
   13d90:	02071713          	slli	a4,a4,0x20
   13d94:	02075713          	srli	a4,a4,0x20
   13d98:	8a0acae3          	bltz	s5,1364c <_vfprintf_r+0x1b54>
   13d9c:	00d13c23          	sd	a3,24(sp)
   13da0:	f7fe7e13          	andi	t3,t3,-129
   13da4:	000a8463          	beqz	s5,13dac <_vfprintf_r+0x22b4>
   13da8:	eb0fe06f          	j	12458 <_vfprintf_r+0x960>
   13dac:	00071463          	bnez	a4,13db4 <_vfprintf_r+0x22bc>
   13db0:	c69fe06f          	j	12a18 <_vfprintf_r+0xf20>
   13db4:	ea4fe06f          	j	12458 <_vfprintf_r+0x960>
   13db8:	00000713          	li	a4,0
   13dbc:	afdff06f          	j	138b8 <_vfprintf_r+0x1dc0>
   13dc0:	00000693          	li	a3,0
   13dc4:	d84fe06f          	j	12348 <_vfprintf_r+0x850>
   13dc8:	04700793          	li	a5,71
   13dcc:	0a714703          	lbu	a4,167(sp)
   13dd0:	0667dae3          	bge	a5,t1,14644 <_vfprintf_r+0x2b4c>
   13dd4:	0001e7b7          	lui	a5,0x1e
   13dd8:	2c078d93          	addi	s11,a5,704 # 1e2c0 <__clzdi2+0x74>
   13ddc:	2a071ae3          	bnez	a4,14890 <_vfprintf_r+0x2d98>
   13de0:	00300b13          	li	s6,3
   13de4:	000b0813          	mv	a6,s6
   13de8:	00000a93          	li	s5,0
   13dec:	04013023          	sd	zero,64(sp)
   13df0:	02013c23          	sd	zero,56(sp)
   13df4:	02013023          	sd	zero,32(sp)
   13df8:	f49fd06f          	j	11d40 <_vfprintf_r+0x248>
   13dfc:	0001e7b7          	lui	a5,0x1e
   13e00:	2b078d93          	addi	s11,a5,688 # 1e2b0 <__clzdi2+0x64>
   13e04:	a4dff06f          	j	13850 <_vfprintf_r+0x1d58>
   13e08:	1a0b4ce3          	bltz	s6,147c0 <_vfprintf_r+0x2cc8>
   13e0c:	06013823          	sd	zero,112(sp)
   13e10:	00600a93          	li	s5,6
   13e14:	04600793          	li	a5,70
   13e18:	3ef91863          	bne	s2,a5,14208 <_vfprintf_r+0x2710>
   13e1c:	00013503          	ld	a0,0(sp)
   13e20:	000a8713          	mv	a4,s5
   13e24:	00300693          	li	a3,3
   13e28:	000b0613          	mv	a2,s6
   13e2c:	0c810893          	addi	a7,sp,200
   13e30:	0b410813          	addi	a6,sp,180
   13e34:	0b010793          	addi	a5,sp,176
   13e38:	00048593          	mv	a1,s1
   13e3c:	03c13c23          	sd	t3,56(sp)
   13e40:	02613823          	sd	t1,48(sp)
   13e44:	589010ef          	jal	15bcc <_ldtoa_r>
   13e48:	00054603          	lbu	a2,0(a0)
   13e4c:	03000693          	li	a3,48
   13e50:	03013303          	ld	t1,48(sp)
   13e54:	03813e03          	ld	t3,56(sp)
   13e58:	00050d93          	mv	s11,a0
   13e5c:	01550733          	add	a4,a0,s5
   13e60:	00d608e3          	beq	a2,a3,14670 <_vfprintf_r+0x2b78>
   13e64:	0b012783          	lw	a5,176(sp)
   13e68:	00048513          	mv	a0,s1
   13e6c:	000b0593          	mv	a1,s6
   13e70:	00000613          	li	a2,0
   13e74:	00000693          	li	a3,0
   13e78:	03c13c23          	sd	t3,56(sp)
   13e7c:	02613823          	sd	t1,48(sp)
   13e80:	00f70c33          	add	s8,a4,a5
   13e84:	73d080ef          	jal	1cdc0 <__eqtf2>
   13e88:	03013303          	ld	t1,48(sp)
   13e8c:	03813e03          	ld	t3,56(sp)
   13e90:	78050c63          	beqz	a0,14628 <_vfprintf_r+0x2b30>
   13e94:	0c813883          	ld	a7,200(sp)
   13e98:	2588f2e3          	bgeu	a7,s8,148dc <_vfprintf_r+0x2de4>
   13e9c:	03000693          	li	a3,48
   13ea0:	00188793          	addi	a5,a7,1
   13ea4:	0cf13423          	sd	a5,200(sp)
   13ea8:	00d88023          	sb	a3,0(a7)
   13eac:	0c813883          	ld	a7,200(sp)
   13eb0:	ff88e8e3          	bltu	a7,s8,13ea0 <_vfprintf_r+0x23a8>
   13eb4:	41b888b3          	sub	a7,a7,s11
   13eb8:	0008879b          	sext.w	a5,a7
   13ebc:	04700713          	li	a4,71
   13ec0:	02f13823          	sd	a5,48(sp)
   13ec4:	0b012483          	lw	s1,176(sp)
   13ec8:	16e90663          	beq	s2,a4,14034 <_vfprintf_r+0x253c>
   13ecc:	04600713          	li	a4,70
   13ed0:	16e91a63          	bne	s2,a4,14044 <_vfprintf_r+0x254c>
   13ed4:	001e7713          	andi	a4,t3,1
   13ed8:	00eae733          	or	a4,s5,a4
   13edc:	0007071b          	sext.w	a4,a4
   13ee0:	109054e3          	blez	s1,147e8 <_vfprintf_r+0x2cf0>
   13ee4:	76071663          	bnez	a4,14650 <_vfprintf_r+0x2b58>
   13ee8:	00048b13          	mv	s6,s1
   13eec:	06600313          	li	t1,102
   13ef0:	400e7f13          	andi	t5,t3,1024
   13ef4:	6c0f1e63          	bnez	t5,145d0 <_vfprintf_r+0x2ad8>
   13ef8:	000b081b          	sext.w	a6,s6
   13efc:	000b5463          	bgez	s6,13f04 <_vfprintf_r+0x240c>
   13f00:	00000813          	li	a6,0
   13f04:	07013783          	ld	a5,112(sp)
   13f08:	4a078463          	beqz	a5,143b0 <_vfprintf_r+0x28b8>
   13f0c:	02d00713          	li	a4,45
   13f10:	0ae103a3          	sb	a4,167(sp)
   13f14:	0018081b          	addiw	a6,a6,1
   13f18:	02013e03          	ld	t3,32(sp)
   13f1c:	00000a93          	li	s5,0
   13f20:	02013023          	sd	zero,32(sp)
   13f24:	04013023          	sd	zero,64(sp)
   13f28:	02013c23          	sd	zero,56(sp)
   13f2c:	e15fd06f          	j	11d40 <_vfprintf_r+0x248>
   13f30:	07800793          	li	a5,120
   13f34:	840fe06f          	j	11f74 <_vfprintf_r+0x47c>
   13f38:	00013503          	ld	a0,0(sp)
   13f3c:	001a859b          	addiw	a1,s5,1
   13f40:	03c13823          	sd	t3,48(sp)
   13f44:	02613023          	sd	t1,32(sp)
   13f48:	ac4fd0ef          	jal	1120c <_malloc_r>
   13f4c:	02013303          	ld	t1,32(sp)
   13f50:	03013e03          	ld	t3,48(sp)
   13f54:	00050d93          	mv	s11,a0
   13f58:	18050ae3          	beqz	a0,148ec <_vfprintf_r+0x2df4>
   13f5c:	0d813583          	ld	a1,216(sp)
   13f60:	03b13023          	sd	s11,32(sp)
   13f64:	06013823          	sd	zero,112(sp)
   13f68:	0d013503          	ld	a0,208(sp)
   13f6c:	0005c463          	bltz	a1,13f74 <_vfprintf_r+0x247c>
   13f70:	830fe06f          	j	11fa0 <_vfprintf_r+0x4a8>
   13f74:	fff00713          	li	a4,-1
   13f78:	03f71713          	slli	a4,a4,0x3f
   13f7c:	02d00793          	li	a5,45
   13f80:	00e5c5b3          	xor	a1,a1,a4
   13f84:	06f13823          	sd	a5,112(sp)
   13f88:	818fe06f          	j	11fa0 <_vfprintf_r+0x4a8>
   13f8c:	07a13423          	sd	s10,104(sp)
   13f90:	07813d83          	ld	s11,120(sp)
   13f94:	08813e03          	ld	t3,136(sp)
   13f98:	07013d03          	ld	s10,112(sp)
   13f9c:	09013803          	ld	a6,144(sp)
   13fa0:	09813c83          	ld	s9,152(sp)
   13fa4:	000c0f93          	mv	t6,s8
   13fa8:	00078b93          	mv	s7,a5
   13fac:	00028c13          	mv	s8,t0
   13fb0:	00070913          	mv	s2,a4
   13fb4:	01fc6463          	bltu	s8,t6,13fbc <_vfprintf_r+0x24c4>
   13fb8:	fb5fe06f          	j	12f6c <_vfprintf_r+0x1474>
   13fbc:	000c0f93          	mv	t6,s8
   13fc0:	fadfe06f          	j	12f6c <_vfprintf_r+0x1474>
   13fc4:	000b5a63          	bgez	s6,13fd8 <_vfprintf_r+0x24e0>
   13fc8:	03f79793          	slli	a5,a5,0x3f
   13fcc:	00fb4b33          	xor	s6,s6,a5
   13fd0:	02d00793          	li	a5,45
   13fd4:	06f13823          	sd	a5,112(sp)
   13fd8:	00013503          	ld	a0,0(sp)
   13fdc:	0c810893          	addi	a7,sp,200
   13fe0:	0b410813          	addi	a6,sp,180
   13fe4:	0b010793          	addi	a5,sp,176
   13fe8:	00100713          	li	a4,1
   13fec:	00200693          	li	a3,2
   13ff0:	00048593          	mv	a1,s1
   13ff4:	000b0613          	mv	a2,s6
   13ff8:	05c13023          	sd	t3,64(sp)
   13ffc:	02613c23          	sd	t1,56(sp)
   14000:	3cd010ef          	jal	15bcc <_ldtoa_r>
   14004:	03813303          	ld	t1,56(sp)
   14008:	04013e03          	ld	t3,64(sp)
   1400c:	00100a93          	li	s5,1
   14010:	00050d93          	mv	s11,a0
   14014:	03513823          	sd	s5,48(sp)
   14018:	001e7713          	andi	a4,t3,1
   1401c:	46071c63          	bnez	a4,14494 <_vfprintf_r+0x299c>
   14020:	0c813883          	ld	a7,200(sp)
   14024:	0b012483          	lw	s1,176(sp)
   14028:	41b888b3          	sub	a7,a7,s11
   1402c:	0008879b          	sext.w	a5,a7
   14030:	02f13823          	sd	a5,48(sp)
   14034:	ffd4a713          	slti	a4,s1,-3
   14038:	00071463          	bnez	a4,14040 <_vfprintf_r+0x2548>
   1403c:	109adc63          	bge	s5,s1,14154 <_vfprintf_r+0x265c>
   14040:	ffe3031b          	addiw	t1,t1,-2
   14044:	fff48a9b          	addiw	s5,s1,-1
   14048:	0a610c23          	sb	t1,184(sp)
   1404c:	0b512823          	sw	s5,176(sp)
   14050:	660ac263          	bltz	s5,146b4 <_vfprintf_r+0x2bbc>
   14054:	02b00713          	li	a4,43
   14058:	0ae10ca3          	sb	a4,185(sp)
   1405c:	00900713          	li	a4,9
   14060:	67575663          	bge	a4,s5,146cc <_vfprintf_r+0x2bd4>
   14064:	03c13c23          	sd	t3,56(sp)
   14068:	02013023          	sd	zero,32(sp)
   1406c:	0c710913          	addi	s2,sp,199
   14070:	00090b13          	mv	s6,s2
   14074:	04613023          	sd	t1,64(sp)
   14078:	00a00593          	li	a1,10
   1407c:	000a8513          	mv	a0,s5
   14080:	1900a0ef          	jal	1e210 <__moddi3>
   14084:	0305079b          	addiw	a5,a0,48
   14088:	000b0c13          	mv	s8,s6
   1408c:	fefc0fa3          	sb	a5,-1(s8)
   14090:	000a8513          	mv	a0,s5
   14094:	00a00593          	li	a1,10
   14098:	0f40a0ef          	jal	1e18c <__divdi3>
   1409c:	000a8493          	mv	s1,s5
   140a0:	06300793          	li	a5,99
   140a4:	fffb0b13          	addi	s6,s6,-1
   140a8:	00050a9b          	sext.w	s5,a0
   140ac:	fc97c6e3          	blt	a5,s1,14078 <_vfprintf_r+0x2580>
   140b0:	030a869b          	addiw	a3,s5,48
   140b4:	fedb0fa3          	sb	a3,-1(s6)
   140b8:	ffec0713          	addi	a4,s8,-2
   140bc:	04013303          	ld	t1,64(sp)
   140c0:	7b277663          	bgeu	a4,s2,1486c <_vfprintf_r+0x2d74>
   140c4:	0ba10513          	addi	a0,sp,186
   140c8:	00050693          	mv	a3,a0
   140cc:	00074783          	lbu	a5,0(a4)
   140d0:	00170713          	addi	a4,a4,1
   140d4:	00168693          	addi	a3,a3,1
   140d8:	fef68fa3          	sb	a5,-1(a3)
   140dc:	ff2718e3          	bne	a4,s2,140cc <_vfprintf_r+0x25d4>
   140e0:	00a70733          	add	a4,a4,a0
   140e4:	00270713          	addi	a4,a4,2
   140e8:	41870733          	sub	a4,a4,s8
   140ec:	0b810693          	addi	a3,sp,184
   140f0:	40d707bb          	subw	a5,a4,a3
   140f4:	04f13c23          	sd	a5,88(sp)
   140f8:	03013783          	ld	a5,48(sp)
   140fc:	05813703          	ld	a4,88(sp)
   14100:	00100693          	li	a3,1
   14104:	00e7873b          	addw	a4,a5,a4
   14108:	00070b13          	mv	s6,a4
   1410c:	40f6dc63          	bge	a3,a5,14524 <_vfprintf_r+0x2a2c>
   14110:	04813783          	ld	a5,72(sp)
   14114:	00e78b3b          	addw	s6,a5,a4
   14118:	03813783          	ld	a5,56(sp)
   1411c:	000b081b          	sext.w	a6,s6
   14120:	bff7ff13          	andi	t5,a5,-1025
   14124:	100f6e13          	ori	t3,t5,256
   14128:	000b5463          	bgez	s6,14130 <_vfprintf_r+0x2638>
   1412c:	00000813          	li	a6,0
   14130:	03813783          	ld	a5,56(sp)
   14134:	0027f493          	andi	s1,a5,2
   14138:	07013783          	ld	a5,112(sp)
   1413c:	3a078263          	beqz	a5,144e0 <_vfprintf_r+0x29e8>
   14140:	02d00513          	li	a0,45
   14144:	0aa103a3          	sb	a0,167(sp)
   14148:	00000a93          	li	s5,0
   1414c:	0018081b          	addiw	a6,a6,1
   14150:	a8cfe06f          	j	123dc <_vfprintf_r+0x8e4>
   14154:	03013783          	ld	a5,48(sp)
   14158:	02f4ca63          	blt	s1,a5,1418c <_vfprintf_r+0x2694>
   1415c:	001e7713          	andi	a4,t3,1
   14160:	00048b13          	mv	s6,s1
   14164:	00070663          	beqz	a4,14170 <_vfprintf_r+0x2678>
   14168:	04813783          	ld	a5,72(sp)
   1416c:	00978b3b          	addw	s6,a5,s1
   14170:	400e7f13          	andi	t5,t3,1024
   14174:	000f0463          	beqz	t5,1417c <_vfprintf_r+0x2684>
   14178:	44904a63          	bgtz	s1,145cc <_vfprintf_r+0x2ad4>
   1417c:	000b081b          	sext.w	a6,s6
   14180:	020b4663          	bltz	s6,141ac <_vfprintf_r+0x26b4>
   14184:	06700313          	li	t1,103
   14188:	d7dff06f          	j	13f04 <_vfprintf_r+0x240c>
   1418c:	04813783          	ld	a5,72(sp)
   14190:	06700313          	li	t1,103
   14194:	01178b3b          	addw	s6,a5,a7
   14198:	d4904ce3          	bgtz	s1,13ef0 <_vfprintf_r+0x23f8>
   1419c:	409b08bb          	subw	a7,s6,s1
   141a0:	00188b1b          	addiw	s6,a7,1
   141a4:	000b081b          	sext.w	a6,s6
   141a8:	fc0b5ee3          	bgez	s6,14184 <_vfprintf_r+0x268c>
   141ac:	00000813          	li	a6,0
   141b0:	06700313          	li	t1,103
   141b4:	d51ff06f          	j	13f04 <_vfprintf_r+0x240c>
   141b8:	59868693          	addi	a3,a3,1432
   141bc:	e2cff06f          	j	137e8 <_vfprintf_r+0x1cf0>
   141c0:	00813583          	ld	a1,8(sp)
   141c4:	00013503          	ld	a0,0(sp)
   141c8:	0e010613          	addi	a2,sp,224
   141cc:	05013023          	sd	a6,64(sp)
   141d0:	03c13c23          	sd	t3,56(sp)
   141d4:	005000ef          	jal	149d8 <__sprint_r>
   141d8:	00050463          	beqz	a0,141e0 <_vfprintf_r+0x26e8>
   141dc:	a21fe06f          	j	12bfc <_vfprintf_r+0x1104>
   141e0:	0b012603          	lw	a2,176(sp)
   141e4:	0f013903          	ld	s2,240(sp)
   141e8:	04013803          	ld	a6,64(sp)
   141ec:	03813e03          	ld	t3,56(sp)
   141f0:	00098b93          	mv	s7,s3
   141f4:	824fe06f          	j	12218 <_vfprintf_r+0x720>
   141f8:	000a8493          	mv	s1,s5
   141fc:	a05fe06f          	j	12c00 <_vfprintf_r+0x1108>
   14200:	010b8b93          	addi	s7,s7,16
   14204:	864fe06f          	j	12268 <_vfprintf_r+0x770>
   14208:	fbb90793          	addi	a5,s2,-69
   1420c:	00013503          	ld	a0,0(sp)
   14210:	0017b793          	seqz	a5,a5
   14214:	015787bb          	addw	a5,a5,s5
   14218:	00078713          	mv	a4,a5
   1421c:	02f13823          	sd	a5,48(sp)
   14220:	0c810893          	addi	a7,sp,200
   14224:	0b410813          	addi	a6,sp,180
   14228:	0b010793          	addi	a5,sp,176
   1422c:	00200693          	li	a3,2
   14230:	00048593          	mv	a1,s1
   14234:	000b0613          	mv	a2,s6
   14238:	05c13023          	sd	t3,64(sp)
   1423c:	02613c23          	sd	t1,56(sp)
   14240:	18d010ef          	jal	15bcc <_ldtoa_r>
   14244:	04700713          	li	a4,71
   14248:	03813303          	ld	t1,56(sp)
   1424c:	04013e03          	ld	t3,64(sp)
   14250:	00050d93          	mv	s11,a0
   14254:	dce902e3          	beq	s2,a4,14018 <_vfprintf_r+0x2520>
   14258:	00048513          	mv	a0,s1
   1425c:	000b0593          	mv	a1,s6
   14260:	00000613          	li	a2,0
   14264:	00000693          	li	a3,0
   14268:	05c13023          	sd	t3,64(sp)
   1426c:	02613c23          	sd	t1,56(sp)
   14270:	351080ef          	jal	1cdc0 <__eqtf2>
   14274:	03813303          	ld	t1,56(sp)
   14278:	04013e03          	ld	t3,64(sp)
   1427c:	64050463          	beqz	a0,148c4 <_vfprintf_r+0x2dcc>
   14280:	03013783          	ld	a5,48(sp)
   14284:	0c813883          	ld	a7,200(sp)
   14288:	00fd8c33          	add	s8,s11,a5
   1428c:	c188e8e3          	bltu	a7,s8,13e9c <_vfprintf_r+0x23a4>
   14290:	41b887bb          	subw	a5,a7,s11
   14294:	0b012483          	lw	s1,176(sp)
   14298:	02f13823          	sd	a5,48(sp)
   1429c:	da9ff06f          	j	14044 <_vfprintf_r+0x254c>
   142a0:	02d00793          	li	a5,45
   142a4:	0af103a3          	sb	a5,167(sp)
   142a8:	04700793          	li	a5,71
   142ac:	2467d863          	bge	a5,t1,144fc <_vfprintf_r+0x2a04>
   142b0:	0001e7b7          	lui	a5,0x1e
   142b4:	2b078d93          	addi	s11,a5,688 # 1e2b0 <__clzdi2+0x64>
   142b8:	f00ff06f          	j	139b8 <_vfprintf_r+0x1ec0>
   142bc:	00013503          	ld	a0,0(sp)
   142c0:	0e010613          	addi	a2,sp,224
   142c4:	000a8593          	mv	a1,s5
   142c8:	02513c23          	sd	t0,56(sp)
   142cc:	70c000ef          	jal	149d8 <__sprint_r>
   142d0:	f20514e3          	bnez	a0,141f8 <_vfprintf_r+0x2700>
   142d4:	0001e6b7          	lui	a3,0x1e
   142d8:	59868893          	addi	a7,a3,1432 # 1e598 <zeroes.0>
   142dc:	000d4603          	lbu	a2,0(s10)
   142e0:	0f013703          	ld	a4,240(sp)
   142e4:	03813283          	ld	t0,56(sp)
   142e8:	00098793          	mv	a5,s3
   142ec:	00700693          	li	a3,7
   142f0:	869ff06f          	j	13b58 <_vfprintf_r+0x2060>
   142f4:	00813583          	ld	a1,8(sp)
   142f8:	00013503          	ld	a0,0(sp)
   142fc:	0e010613          	addi	a2,sp,224
   14300:	07013823          	sd	a6,112(sp)
   14304:	05c13023          	sd	t3,64(sp)
   14308:	03f13c23          	sd	t6,56(sp)
   1430c:	6cc000ef          	jal	149d8 <__sprint_r>
   14310:	00050463          	beqz	a0,14318 <_vfprintf_r+0x2820>
   14314:	8e9fe06f          	j	12bfc <_vfprintf_r+0x1104>
   14318:	0b012a83          	lw	s5,176(sp)
   1431c:	0f013903          	ld	s2,240(sp)
   14320:	07013803          	ld	a6,112(sp)
   14324:	04013e03          	ld	t3,64(sp)
   14328:	03813f83          	ld	t6,56(sp)
   1432c:	00098b93          	mv	s7,s3
   14330:	c89fe06f          	j	12fb8 <_vfprintf_r+0x14c0>
   14334:	00913c23          	sd	s1,24(sp)
   14338:	1c070863          	beqz	a4,14508 <_vfprintf_r+0x2a10>
   1433c:	001a881b          	addiw	a6,s5,1
   14340:	000a8b13          	mv	s6,s5
   14344:	04013023          	sd	zero,64(sp)
   14348:	00000a93          	li	s5,0
   1434c:	02013c23          	sd	zero,56(sp)
   14350:	00000493          	li	s1,0
   14354:	9edfd06f          	j	11d40 <_vfprintf_r+0x248>
   14358:	5a868693          	addi	a3,a3,1448
   1435c:	e09fe06f          	j	13164 <_vfprintf_r+0x166c>
   14360:	08013783          	ld	a5,128(sp)
   14364:	06013583          	ld	a1,96(sp)
   14368:	40fd84b3          	sub	s1,s11,a5
   1436c:	00078613          	mv	a2,a5
   14370:	00048513          	mv	a0,s1
   14374:	208010ef          	jal	1557c <strncpy>
   14378:	001b4783          	lbu	a5,1(s6)
   1437c:	000a8513          	mv	a0,s5
   14380:	00a00593          	li	a1,10
   14384:	00f037b3          	snez	a5,a5
   14388:	00fb0b33          	add	s6,s6,a5
   1438c:	609090ef          	jal	1e194 <__hidden___udivdi3>
   14390:	00a00593          	li	a1,10
   14394:	00050a93          	mv	s5,a0
   14398:	645090ef          	jal	1e1dc <__umoddi3>
   1439c:	0305079b          	addiw	a5,a0,48
   143a0:	fff48d93          	addi	s11,s1,-1
   143a4:	fef48fa3          	sb	a5,-1(s1)
   143a8:	00100493          	li	s1,1
   143ac:	a70fe06f          	j	1261c <_vfprintf_r+0xb24>
   143b0:	0a714703          	lbu	a4,167(sp)
   143b4:	b60702e3          	beqz	a4,13f18 <_vfprintf_r+0x2420>
   143b8:	0018081b          	addiw	a6,a6,1
   143bc:	b5dff06f          	j	13f18 <_vfprintf_r+0x2420>
   143c0:	00813583          	ld	a1,8(sp)
   143c4:	00013503          	ld	a0,0(sp)
   143c8:	0e010613          	addi	a2,sp,224
   143cc:	05013023          	sd	a6,64(sp)
   143d0:	03c13c23          	sd	t3,56(sp)
   143d4:	604000ef          	jal	149d8 <__sprint_r>
   143d8:	00050463          	beqz	a0,143e0 <_vfprintf_r+0x28e8>
   143dc:	821fe06f          	j	12bfc <_vfprintf_r+0x1104>
   143e0:	0b012a83          	lw	s5,176(sp)
   143e4:	03013783          	ld	a5,48(sp)
   143e8:	0f013903          	ld	s2,240(sp)
   143ec:	04013803          	ld	a6,64(sp)
   143f0:	03813e03          	ld	t3,56(sp)
   143f4:	00098b93          	mv	s7,s3
   143f8:	41578abb          	subw	s5,a5,s5
   143fc:	c11fe06f          	j	1300c <_vfprintf_r+0x1514>
   14400:	5a868693          	addi	a3,a3,1448
   14404:	a69fe06f          	j	12e6c <_vfprintf_r+0x1374>
   14408:	ff000693          	li	a3,-16
   1440c:	40c00abb          	negw	s5,a2
   14410:	46d65a63          	bge	a2,a3,14884 <_vfprintf_r+0x2d8c>
   14414:	0001e6b7          	lui	a3,0x1e
   14418:	00090793          	mv	a5,s2
   1441c:	01000b13          	li	s6,16
   14420:	00700493          	li	s1,7
   14424:	000e0c13          	mv	s8,t3
   14428:	03013c23          	sd	a6,56(sp)
   1442c:	59868913          	addi	s2,a3,1432 # 1e598 <zeroes.0>
   14430:	00c0006f          	j	1443c <_vfprintf_r+0x2944>
   14434:	ff0a8a9b          	addiw	s5,s5,-16
   14438:	0f5b5e63          	bge	s6,s5,14534 <_vfprintf_r+0x2a3c>
   1443c:	01078793          	addi	a5,a5,16
   14440:	0017071b          	addiw	a4,a4,1
   14444:	012bb023          	sd	s2,0(s7)
   14448:	016bb423          	sd	s6,8(s7)
   1444c:	0ef13823          	sd	a5,240(sp)
   14450:	0ee12423          	sw	a4,232(sp)
   14454:	010b8b93          	addi	s7,s7,16
   14458:	fce4dee3          	bge	s1,a4,14434 <_vfprintf_r+0x293c>
   1445c:	00813583          	ld	a1,8(sp)
   14460:	00013503          	ld	a0,0(sp)
   14464:	0e010613          	addi	a2,sp,224
   14468:	570000ef          	jal	149d8 <__sprint_r>
   1446c:	00050463          	beqz	a0,14474 <_vfprintf_r+0x297c>
   14470:	f8cfe06f          	j	12bfc <_vfprintf_r+0x1104>
   14474:	0f013783          	ld	a5,240(sp)
   14478:	0e812703          	lw	a4,232(sp)
   1447c:	00098b93          	mv	s7,s3
   14480:	fb5ff06f          	j	14434 <_vfprintf_r+0x293c>
   14484:	00048f13          	mv	t5,s1
   14488:	8b4fe06f          	j	1253c <_vfprintf_r+0xa44>
   1448c:	00048f13          	mv	t5,s1
   14490:	eb1fe06f          	j	13340 <_vfprintf_r+0x1848>
   14494:	00048513          	mv	a0,s1
   14498:	000b0593          	mv	a1,s6
   1449c:	00000613          	li	a2,0
   144a0:	00000693          	li	a3,0
   144a4:	05c13023          	sd	t3,64(sp)
   144a8:	02613c23          	sd	t1,56(sp)
   144ac:	115080ef          	jal	1cdc0 <__eqtf2>
   144b0:	03813303          	ld	t1,56(sp)
   144b4:	04013e03          	ld	t3,64(sp)
   144b8:	1a050663          	beqz	a0,14664 <_vfprintf_r+0x2b6c>
   144bc:	03013783          	ld	a5,48(sp)
   144c0:	0c813883          	ld	a7,200(sp)
   144c4:	00fd8c33          	add	s8,s11,a5
   144c8:	9d88eae3          	bltu	a7,s8,13e9c <_vfprintf_r+0x23a4>
   144cc:	41b888b3          	sub	a7,a7,s11
   144d0:	0008879b          	sext.w	a5,a7
   144d4:	0b012483          	lw	s1,176(sp)
   144d8:	02f13823          	sd	a5,48(sp)
   144dc:	b59ff06f          	j	14034 <_vfprintf_r+0x253c>
   144e0:	0a714503          	lbu	a0,167(sp)
   144e4:	00000a93          	li	s5,0
   144e8:	00050463          	beqz	a0,144f0 <_vfprintf_r+0x29f8>
   144ec:	f9dfd06f          	j	12488 <_vfprintf_r+0x990>
   144f0:	eedfd06f          	j	123dc <_vfprintf_r+0x8e4>
   144f4:	59868693          	addi	a3,a3,1432
   144f8:	e94fe06f          	j	12b8c <_vfprintf_r+0x1094>
   144fc:	0001e7b7          	lui	a5,0x1e
   14500:	2a878d93          	addi	s11,a5,680 # 1e2a8 <__clzdi2+0x5c>
   14504:	cb4ff06f          	j	139b8 <_vfprintf_r+0x1ec0>
   14508:	000a8b13          	mv	s6,s5
   1450c:	000a8813          	mv	a6,s5
   14510:	04013023          	sd	zero,64(sp)
   14514:	00000a93          	li	s5,0
   14518:	02013c23          	sd	zero,56(sp)
   1451c:	00000493          	li	s1,0
   14520:	821fd06f          	j	11d40 <_vfprintf_r+0x248>
   14524:	03813783          	ld	a5,56(sp)
   14528:	00d7f6b3          	and	a3,a5,a3
   1452c:	be0686e3          	beqz	a3,14118 <_vfprintf_r+0x2620>
   14530:	be1ff06f          	j	14110 <_vfprintf_r+0x2618>
   14534:	03813803          	ld	a6,56(sp)
   14538:	00090693          	mv	a3,s2
   1453c:	000c0e13          	mv	t3,s8
   14540:	00078913          	mv	s2,a5
   14544:	01590933          	add	s2,s2,s5
   14548:	0017071b          	addiw	a4,a4,1
   1454c:	00dbb023          	sd	a3,0(s7)
   14550:	0f213823          	sd	s2,240(sp)
   14554:	0ee12423          	sw	a4,232(sp)
   14558:	015bb423          	sd	s5,8(s7)
   1455c:	00700693          	li	a3,7
   14560:	cae6d0e3          	bge	a3,a4,14200 <_vfprintf_r+0x2708>
   14564:	00813583          	ld	a1,8(sp)
   14568:	00013503          	ld	a0,0(sp)
   1456c:	0e010613          	addi	a2,sp,224
   14570:	05013023          	sd	a6,64(sp)
   14574:	03c13c23          	sd	t3,56(sp)
   14578:	460000ef          	jal	149d8 <__sprint_r>
   1457c:	00050463          	beqz	a0,14584 <_vfprintf_r+0x2a8c>
   14580:	e7cfe06f          	j	12bfc <_vfprintf_r+0x1104>
   14584:	0f013903          	ld	s2,240(sp)
   14588:	0e812703          	lw	a4,232(sp)
   1458c:	04013803          	ld	a6,64(sp)
   14590:	03813e03          	ld	t3,56(sp)
   14594:	00098b93          	mv	s7,s3
   14598:	cd1fd06f          	j	12268 <_vfprintf_r+0x770>
   1459c:	00f72023          	sw	a5,0(a4)
   145a0:	e70fd06f          	j	11c10 <_vfprintf_r+0x118>
   145a4:	fff00793          	li	a5,-1
   145a8:	03f79793          	slli	a5,a5,0x3f
   145ac:	00f5c5b3          	xor	a1,a1,a5
   145b0:	02d00793          	li	a5,45
   145b4:	06f13823          	sd	a5,112(sp)
   145b8:	02013023          	sd	zero,32(sp)
   145bc:	0f810d93          	addi	s11,sp,248
   145c0:	9e1fd06f          	j	11fa0 <_vfprintf_r+0x4a8>
   145c4:	00813483          	ld	s1,8(sp)
   145c8:	e4cfe06f          	j	12c14 <_vfprintf_r+0x111c>
   145cc:	06700313          	li	t1,103
   145d0:	06813783          	ld	a5,104(sp)
   145d4:	0007c703          	lbu	a4,0(a5)
   145d8:	f0170693          	addi	a3,a4,-255
   145dc:	2e068863          	beqz	a3,148cc <_vfprintf_r+0x2dd4>
   145e0:	2e975663          	bge	a4,s1,148cc <_vfprintf_r+0x2dd4>
   145e4:	08012583          	lw	a1,128(sp)
   145e8:	00000813          	li	a6,0
   145ec:	00000513          	li	a0,0
   145f0:	00078693          	mv	a3,a5
   145f4:	01c0006f          	j	14610 <_vfprintf_r+0x2b18>
   145f8:	0015051b          	addiw	a0,a0,1
   145fc:	00168693          	addi	a3,a3,1
   14600:	f0178613          	addi	a2,a5,-255
   14604:	0007871b          	sext.w	a4,a5
   14608:	0c060e63          	beqz	a2,146e4 <_vfprintf_r+0x2bec>
   1460c:	0c975c63          	bge	a4,s1,146e4 <_vfprintf_r+0x2bec>
   14610:	0016c783          	lbu	a5,1(a3)
   14614:	40e484bb          	subw	s1,s1,a4
   14618:	fe0790e3          	bnez	a5,145f8 <_vfprintf_r+0x2b00>
   1461c:	0006c783          	lbu	a5,0(a3)
   14620:	0018081b          	addiw	a6,a6,1
   14624:	fddff06f          	j	14600 <_vfprintf_r+0x2b08>
   14628:	41bc07bb          	subw	a5,s8,s11
   1462c:	0b012483          	lw	s1,176(sp)
   14630:	02f13823          	sd	a5,48(sp)
   14634:	8a1ff06f          	j	13ed4 <_vfprintf_r+0x23dc>
   14638:	0001e7b7          	lui	a5,0x1e
   1463c:	2b878d93          	addi	s11,a5,696 # 1e2b8 <__clzdi2+0x6c>
   14640:	b78ff06f          	j	139b8 <_vfprintf_r+0x1ec0>
   14644:	0001e7b7          	lui	a5,0x1e
   14648:	2b878d93          	addi	s11,a5,696 # 1e2b8 <__clzdi2+0x6c>
   1464c:	f90ff06f          	j	13ddc <_vfprintf_r+0x22e4>
   14650:	04813783          	ld	a5,72(sp)
   14654:	009a88bb          	addw	a7,s5,s1
   14658:	06600313          	li	t1,102
   1465c:	00f88b3b          	addw	s6,a7,a5
   14660:	891ff06f          	j	13ef0 <_vfprintf_r+0x23f8>
   14664:	0b012483          	lw	s1,176(sp)
   14668:	03013883          	ld	a7,48(sp)
   1466c:	9c9ff06f          	j	14034 <_vfprintf_r+0x253c>
   14670:	00000613          	li	a2,0
   14674:	00000693          	li	a3,0
   14678:	00048513          	mv	a0,s1
   1467c:	000b0593          	mv	a1,s6
   14680:	05c13023          	sd	t3,64(sp)
   14684:	02613c23          	sd	t1,56(sp)
   14688:	02e13823          	sd	a4,48(sp)
   1468c:	734080ef          	jal	1cdc0 <__eqtf2>
   14690:	03013703          	ld	a4,48(sp)
   14694:	03813303          	ld	t1,56(sp)
   14698:	04013e03          	ld	t3,64(sp)
   1469c:	12051e63          	bnez	a0,147d8 <_vfprintf_r+0x2ce0>
   146a0:	0b012483          	lw	s1,176(sp)
   146a4:	00970733          	add	a4,a4,s1
   146a8:	41b707bb          	subw	a5,a4,s11
   146ac:	02f13823          	sd	a5,48(sp)
   146b0:	81dff06f          	j	13ecc <_vfprintf_r+0x23d4>
   146b4:	02d00713          	li	a4,45
   146b8:	0ae10ca3          	sb	a4,185(sp)
   146bc:	00100693          	li	a3,1
   146c0:	ff800713          	li	a4,-8
   146c4:	40968abb          	subw	s5,a3,s1
   146c8:	98e4cee3          	blt	s1,a4,14064 <_vfprintf_r+0x256c>
   146cc:	03000713          	li	a4,48
   146d0:	0ae10d23          	sb	a4,186(sp)
   146d4:	03c13c23          	sd	t3,56(sp)
   146d8:	02013023          	sd	zero,32(sp)
   146dc:	0bb10713          	addi	a4,sp,187
   146e0:	a9dfd06f          	j	1217c <_vfprintf_r+0x684>
   146e4:	02a13c23          	sd	a0,56(sp)
   146e8:	00a8053b          	addw	a0,a6,a0
   146ec:	06613c23          	sd	t1,120(sp)
   146f0:	06d13423          	sd	a3,104(sp)
   146f4:	05013023          	sd	a6,64(sp)
   146f8:	231090ef          	jal	1e128 <__muldi3>
   146fc:	07813303          	ld	t1,120(sp)
   14700:	0005071b          	sext.w	a4,a0
   14704:	00eb0b3b          	addw	s6,s6,a4
   14708:	000b0713          	mv	a4,s6
   1470c:	000b5463          	bgez	s6,14714 <_vfprintf_r+0x2c1c>
   14710:	00000713          	li	a4,0
   14714:	07013783          	ld	a5,112(sp)
   14718:	0007081b          	sext.w	a6,a4
   1471c:	10078e63          	beqz	a5,14838 <_vfprintf_r+0x2d40>
   14720:	02d00693          	li	a3,45
   14724:	02013e03          	ld	t3,32(sp)
   14728:	0ad103a3          	sb	a3,167(sp)
   1472c:	0017081b          	addiw	a6,a4,1
   14730:	02013023          	sd	zero,32(sp)
   14734:	00000a93          	li	s5,0
   14738:	e08fd06f          	j	11d40 <_vfprintf_r+0x248>
   1473c:	000b0c13          	mv	s8,s6
   14740:	fffa8b1b          	addiw	s6,s5,-1
   14744:	000c8313          	mv	t1,s9
   14748:	04013b83          	ld	s7,64(sp)
   1474c:	05813c83          	ld	s9,88(sp)
   14750:	015c0ab3          	add	s5,s8,s5
   14754:	000c0713          	mv	a4,s8
   14758:	03000693          	li	a3,48
   1475c:	000b5463          	bgez	s6,14764 <_vfprintf_r+0x2c6c>
   14760:	9e1fd06f          	j	12140 <_vfprintf_r+0x648>
   14764:	00170713          	addi	a4,a4,1
   14768:	fed70fa3          	sb	a3,-1(a4)
   1476c:	feea9ce3          	bne	s5,a4,14764 <_vfprintf_r+0x2c6c>
   14770:	001c0813          	addi	a6,s8,1
   14774:	01680c33          	add	s8,a6,s6
   14778:	9c9fd06f          	j	12140 <_vfprintf_r+0x648>
   1477c:	0001e737          	lui	a4,0x1e
   14780:	2c870793          	addi	a5,a4,712 # 1e2c8 <__clzdi2+0x7c>
   14784:	02f13823          	sd	a5,48(sp)
   14788:	879fd06f          	j	12000 <_vfprintf_r+0x508>
   1478c:	01813783          	ld	a5,24(sp)
   14790:	01813703          	ld	a4,24(sp)
   14794:	0007a783          	lw	a5,0(a5)
   14798:	00870713          	addi	a4,a4,8
   1479c:	00078a9b          	sext.w	s5,a5
   147a0:	0007d463          	bgez	a5,147a8 <_vfprintf_r+0x2cb0>
   147a4:	fff00a93          	li	s5,-1
   147a8:	001cc303          	lbu	t1,1(s9)
   147ac:	00e13c23          	sd	a4,24(sp)
   147b0:	00060c93          	mv	s9,a2
   147b4:	cf8fd06f          	j	11cac <_vfprintf_r+0x1b4>
   147b8:	59868693          	addi	a3,a3,1432
   147bc:	ca9fe06f          	j	13464 <_vfprintf_r+0x196c>
   147c0:	03fa9a93          	slli	s5,s5,0x3f
   147c4:	02d00793          	li	a5,45
   147c8:	015b4b33          	xor	s6,s6,s5
   147cc:	06f13823          	sd	a5,112(sp)
   147d0:	00600a93          	li	s5,6
   147d4:	e40ff06f          	j	13e14 <_vfprintf_r+0x231c>
   147d8:	00100793          	li	a5,1
   147dc:	415787bb          	subw	a5,a5,s5
   147e0:	0af12823          	sw	a5,176(sp)
   147e4:	e84ff06f          	j	13e68 <_vfprintf_r+0x2370>
   147e8:	00071a63          	bnez	a4,147fc <_vfprintf_r+0x2d04>
   147ec:	00100813          	li	a6,1
   147f0:	00080b13          	mv	s6,a6
   147f4:	06600313          	li	t1,102
   147f8:	f0cff06f          	j	13f04 <_vfprintf_r+0x240c>
   147fc:	04813783          	ld	a5,72(sp)
   14800:	0017889b          	addiw	a7,a5,1
   14804:	01588b3b          	addw	s6,a7,s5
   14808:	000b081b          	sext.w	a6,s6
   1480c:	fe0b54e3          	bgez	s6,147f4 <_vfprintf_r+0x2cfc>
   14810:	00000813          	li	a6,0
   14814:	06600313          	li	t1,102
   14818:	eecff06f          	j	13f04 <_vfprintf_r+0x240c>
   1481c:	02d00693          	li	a3,45
   14820:	0ad10ca3          	sb	a3,185(sp)
   14824:	ff800613          	li	a2,-8
   14828:	00100693          	li	a3,1
   1482c:	40e68abb          	subw	s5,a3,a4
   14830:	82c74ee3          	blt	a4,a2,1406c <_vfprintf_r+0x2574>
   14834:	945fd06f          	j	12178 <_vfprintf_r+0x680>
   14838:	0a714683          	lbu	a3,167(sp)
   1483c:	02068063          	beqz	a3,1485c <_vfprintf_r+0x2d64>
   14840:	02013e03          	ld	t3,32(sp)
   14844:	0017081b          	addiw	a6,a4,1
   14848:	02013023          	sd	zero,32(sp)
   1484c:	00000a93          	li	s5,0
   14850:	cf0fd06f          	j	11d40 <_vfprintf_r+0x248>
   14854:	59868693          	addi	a3,a3,1432
   14858:	9b4ff06f          	j	13a0c <_vfprintf_r+0x1f14>
   1485c:	02013e03          	ld	t3,32(sp)
   14860:	00000a93          	li	s5,0
   14864:	02013023          	sd	zero,32(sp)
   14868:	cd8fd06f          	j	11d40 <_vfprintf_r+0x248>
   1486c:	00200793          	li	a5,2
   14870:	04f13c23          	sd	a5,88(sp)
   14874:	885ff06f          	j	140f8 <_vfprintf_r+0x2600>
   14878:	03013783          	ld	a5,48(sp)
   1487c:	00a7c683          	lbu	a3,10(a5)
   14880:	8bdfd06f          	j	1213c <_vfprintf_r+0x644>
   14884:	0001e6b7          	lui	a3,0x1e
   14888:	59868693          	addi	a3,a3,1432 # 1e598 <zeroes.0>
   1488c:	cb9ff06f          	j	14544 <_vfprintf_r+0x2a4c>
   14890:	00000a93          	li	s5,0
   14894:	04013023          	sd	zero,64(sp)
   14898:	02013c23          	sd	zero,56(sp)
   1489c:	02013023          	sd	zero,32(sp)
   148a0:	00300b13          	li	s6,3
   148a4:	00400813          	li	a6,4
   148a8:	c98fd06f          	j	11d40 <_vfprintf_r+0x248>
   148ac:	04013023          	sd	zero,64(sp)
   148b0:	02013c23          	sd	zero,56(sp)
   148b4:	c8cfd06f          	j	11d40 <_vfprintf_r+0x248>
   148b8:	03013783          	ld	a5,48(sp)
   148bc:	00fd8c33          	add	s8,s11,a5
   148c0:	ef4ff06f          	j	13fb4 <_vfprintf_r+0x24bc>
   148c4:	0b012483          	lw	s1,176(sp)
   148c8:	f7cff06f          	j	14044 <_vfprintf_r+0x254c>
   148cc:	00000713          	li	a4,0
   148d0:	04013023          	sd	zero,64(sp)
   148d4:	02013c23          	sd	zero,56(sp)
   148d8:	e2dff06f          	j	14704 <_vfprintf_r+0x2c0c>
   148dc:	41b887bb          	subw	a5,a7,s11
   148e0:	0b012483          	lw	s1,176(sp)
   148e4:	02f13823          	sd	a5,48(sp)
   148e8:	de4ff06f          	j	13ecc <_vfprintf_r+0x23d4>
   148ec:	00813483          	ld	s1,8(sp)
   148f0:	0104d783          	lhu	a5,16(s1)
   148f4:	0407e793          	ori	a5,a5,64
   148f8:	00f49823          	sh	a5,16(s1)
   148fc:	b18fe06f          	j	12c14 <_vfprintf_r+0x111c>

0000000000014900 <vfprintf>:
   14900:	00050713          	mv	a4,a0
   14904:	2201b503          	ld	a0,544(gp) # 20698 <_impure_ptr>
   14908:	00060693          	mv	a3,a2
   1490c:	00058613          	mv	a2,a1
   14910:	00070593          	mv	a1,a4
   14914:	9e4fd06f          	j	11af8 <_vfprintf_r>

0000000000014918 <__sbprintf>:
   14918:	0105d783          	lhu	a5,16(a1)
   1491c:	0ac5ae83          	lw	t4,172(a1)
   14920:	0125de03          	lhu	t3,18(a1)
   14924:	0305b303          	ld	t1,48(a1)
   14928:	0405b883          	ld	a7,64(a1)
   1492c:	b2010113          	addi	sp,sp,-1248
   14930:	ffd7f793          	andi	a5,a5,-3
   14934:	0c010813          	addi	a6,sp,192
   14938:	40000713          	li	a4,1024
   1493c:	4c813823          	sd	s0,1232(sp)
   14940:	00058413          	mv	s0,a1
   14944:	01010593          	addi	a1,sp,16
   14948:	4c913423          	sd	s1,1224(sp)
   1494c:	02f11023          	sh	a5,32(sp)
   14950:	4c113c23          	sd	ra,1240(sp)
   14954:	02012c23          	sw	zero,56(sp)
   14958:	0bd12e23          	sw	t4,188(sp)
   1495c:	03c11123          	sh	t3,34(sp)
   14960:	04613023          	sd	t1,64(sp)
   14964:	05113823          	sd	a7,80(sp)
   14968:	01013823          	sd	a6,16(sp)
   1496c:	03013423          	sd	a6,40(sp)
   14970:	00e12e23          	sw	a4,28(sp)
   14974:	02e12823          	sw	a4,48(sp)
   14978:	00050493          	mv	s1,a0
   1497c:	97cfd0ef          	jal	11af8 <_vfprintf_r>
   14980:	00050793          	mv	a5,a0
   14984:	02055a63          	bgez	a0,149b8 <__sbprintf+0xa0>
   14988:	02015703          	lhu	a4,32(sp)
   1498c:	04077713          	andi	a4,a4,64
   14990:	00070863          	beqz	a4,149a0 <__sbprintf+0x88>
   14994:	01045703          	lhu	a4,16(s0)
   14998:	04076713          	ori	a4,a4,64
   1499c:	00e41823          	sh	a4,16(s0)
   149a0:	4d813083          	ld	ra,1240(sp)
   149a4:	4d013403          	ld	s0,1232(sp)
   149a8:	4c813483          	ld	s1,1224(sp)
   149ac:	00078513          	mv	a0,a5
   149b0:	4e010113          	addi	sp,sp,1248
   149b4:	00008067          	ret
   149b8:	00a13423          	sd	a0,8(sp)
   149bc:	01010593          	addi	a1,sp,16
   149c0:	00048513          	mv	a0,s1
   149c4:	3c0000ef          	jal	14d84 <_fflush_r>
   149c8:	00813783          	ld	a5,8(sp)
   149cc:	fa050ee3          	beqz	a0,14988 <__sbprintf+0x70>
   149d0:	fff00793          	li	a5,-1
   149d4:	fb5ff06f          	j	14988 <__sbprintf+0x70>

00000000000149d8 <__sprint_r>:
   149d8:	01063703          	ld	a4,16(a2)
   149dc:	00071863          	bnez	a4,149ec <__sprint_r+0x14>
   149e0:	00000513          	li	a0,0
   149e4:	00062423          	sw	zero,8(a2)
   149e8:	00008067          	ret
   149ec:	fe010113          	addi	sp,sp,-32
   149f0:	00113c23          	sd	ra,24(sp)
   149f4:	00c13423          	sd	a2,8(sp)
   149f8:	480000ef          	jal	14e78 <__sfvwrite_r>
   149fc:	00813783          	ld	a5,8(sp)
   14a00:	01813083          	ld	ra,24(sp)
   14a04:	0007b823          	sd	zero,16(a5)
   14a08:	0007a423          	sw	zero,8(a5)
   14a0c:	02010113          	addi	sp,sp,32
   14a10:	00008067          	ret

0000000000014a14 <_fclose_r>:
   14a14:	fe010113          	addi	sp,sp,-32
   14a18:	00113c23          	sd	ra,24(sp)
   14a1c:	01213023          	sd	s2,0(sp)
   14a20:	02058863          	beqz	a1,14a50 <_fclose_r+0x3c>
   14a24:	00813823          	sd	s0,16(sp)
   14a28:	00913423          	sd	s1,8(sp)
   14a2c:	00058413          	mv	s0,a1
   14a30:	00050493          	mv	s1,a0
   14a34:	00050663          	beqz	a0,14a40 <_fclose_r+0x2c>
   14a38:	04853783          	ld	a5,72(a0)
   14a3c:	0c078c63          	beqz	a5,14b14 <_fclose_r+0x100>
   14a40:	01041783          	lh	a5,16(s0)
   14a44:	02079263          	bnez	a5,14a68 <_fclose_r+0x54>
   14a48:	01013403          	ld	s0,16(sp)
   14a4c:	00813483          	ld	s1,8(sp)
   14a50:	01813083          	ld	ra,24(sp)
   14a54:	00000913          	li	s2,0
   14a58:	00090513          	mv	a0,s2
   14a5c:	00013903          	ld	s2,0(sp)
   14a60:	02010113          	addi	sp,sp,32
   14a64:	00008067          	ret
   14a68:	00040593          	mv	a1,s0
   14a6c:	00048513          	mv	a0,s1
   14a70:	0b8000ef          	jal	14b28 <__sflush_r>
   14a74:	05043783          	ld	a5,80(s0)
   14a78:	00050913          	mv	s2,a0
   14a7c:	00078a63          	beqz	a5,14a90 <_fclose_r+0x7c>
   14a80:	03043583          	ld	a1,48(s0)
   14a84:	00048513          	mv	a0,s1
   14a88:	000780e7          	jalr	a5
   14a8c:	06054463          	bltz	a0,14af4 <_fclose_r+0xe0>
   14a90:	01045783          	lhu	a5,16(s0)
   14a94:	0807f793          	andi	a5,a5,128
   14a98:	06079663          	bnez	a5,14b04 <_fclose_r+0xf0>
   14a9c:	05843583          	ld	a1,88(s0)
   14aa0:	00058c63          	beqz	a1,14ab8 <_fclose_r+0xa4>
   14aa4:	07440793          	addi	a5,s0,116
   14aa8:	00f58663          	beq	a1,a5,14ab4 <_fclose_r+0xa0>
   14aac:	00048513          	mv	a0,s1
   14ab0:	c58fc0ef          	jal	10f08 <_free_r>
   14ab4:	04043c23          	sd	zero,88(s0)
   14ab8:	07843583          	ld	a1,120(s0)
   14abc:	00058863          	beqz	a1,14acc <_fclose_r+0xb8>
   14ac0:	00048513          	mv	a0,s1
   14ac4:	c44fc0ef          	jal	10f08 <_free_r>
   14ac8:	06043c23          	sd	zero,120(s0)
   14acc:	af1fb0ef          	jal	105bc <__sfp_lock_acquire>
   14ad0:	00041823          	sh	zero,16(s0)
   14ad4:	aedfb0ef          	jal	105c0 <__sfp_lock_release>
   14ad8:	01813083          	ld	ra,24(sp)
   14adc:	01013403          	ld	s0,16(sp)
   14ae0:	00813483          	ld	s1,8(sp)
   14ae4:	00090513          	mv	a0,s2
   14ae8:	00013903          	ld	s2,0(sp)
   14aec:	02010113          	addi	sp,sp,32
   14af0:	00008067          	ret
   14af4:	01045783          	lhu	a5,16(s0)
   14af8:	fff00913          	li	s2,-1
   14afc:	0807f793          	andi	a5,a5,128
   14b00:	f8078ee3          	beqz	a5,14a9c <_fclose_r+0x88>
   14b04:	01843583          	ld	a1,24(s0)
   14b08:	00048513          	mv	a0,s1
   14b0c:	bfcfc0ef          	jal	10f08 <_free_r>
   14b10:	f8dff06f          	j	14a9c <_fclose_r+0x88>
   14b14:	a85fb0ef          	jal	10598 <__sinit>
   14b18:	f29ff06f          	j	14a40 <_fclose_r+0x2c>

0000000000014b1c <fclose>:
   14b1c:	00050593          	mv	a1,a0
   14b20:	2201b503          	ld	a0,544(gp) # 20698 <_impure_ptr>
   14b24:	ef1ff06f          	j	14a14 <_fclose_r>

0000000000014b28 <__sflush_r>:
   14b28:	01059703          	lh	a4,16(a1)
   14b2c:	fd010113          	addi	sp,sp,-48
   14b30:	02813023          	sd	s0,32(sp)
   14b34:	01313423          	sd	s3,8(sp)
   14b38:	02113423          	sd	ra,40(sp)
   14b3c:	00877793          	andi	a5,a4,8
   14b40:	00058413          	mv	s0,a1
   14b44:	00050993          	mv	s3,a0
   14b48:	12079263          	bnez	a5,14c6c <__sflush_r+0x144>
   14b4c:	000017b7          	lui	a5,0x1
   14b50:	80078793          	addi	a5,a5,-2048 # 800 <exit-0xf920>
   14b54:	0085a683          	lw	a3,8(a1)
   14b58:	00f767b3          	or	a5,a4,a5
   14b5c:	00f59823          	sh	a5,16(a1)
   14b60:	18d05c63          	blez	a3,14cf8 <__sflush_r+0x1d0>
   14b64:	04843803          	ld	a6,72(s0)
   14b68:	0e080663          	beqz	a6,14c54 <__sflush_r+0x12c>
   14b6c:	00913c23          	sd	s1,24(sp)
   14b70:	03371693          	slli	a3,a4,0x33
   14b74:	0009a483          	lw	s1,0(s3)
   14b78:	0009a023          	sw	zero,0(s3)
   14b7c:	1806ca63          	bltz	a3,14d10 <__sflush_r+0x1e8>
   14b80:	03043583          	ld	a1,48(s0)
   14b84:	00000613          	li	a2,0
   14b88:	00100693          	li	a3,1
   14b8c:	00098513          	mv	a0,s3
   14b90:	000800e7          	jalr	a6
   14b94:	fff00793          	li	a5,-1
   14b98:	00050613          	mv	a2,a0
   14b9c:	1af50c63          	beq	a0,a5,14d54 <__sflush_r+0x22c>
   14ba0:	01041783          	lh	a5,16(s0)
   14ba4:	04843803          	ld	a6,72(s0)
   14ba8:	0047f793          	andi	a5,a5,4
   14bac:	00078e63          	beqz	a5,14bc8 <__sflush_r+0xa0>
   14bb0:	00842703          	lw	a4,8(s0)
   14bb4:	05843783          	ld	a5,88(s0)
   14bb8:	40e60633          	sub	a2,a2,a4
   14bbc:	00078663          	beqz	a5,14bc8 <__sflush_r+0xa0>
   14bc0:	07042783          	lw	a5,112(s0)
   14bc4:	40f60633          	sub	a2,a2,a5
   14bc8:	03043583          	ld	a1,48(s0)
   14bcc:	00000693          	li	a3,0
   14bd0:	00098513          	mv	a0,s3
   14bd4:	000800e7          	jalr	a6
   14bd8:	fff00713          	li	a4,-1
   14bdc:	01041783          	lh	a5,16(s0)
   14be0:	12e51c63          	bne	a0,a4,14d18 <__sflush_r+0x1f0>
   14be4:	0009a683          	lw	a3,0(s3)
   14be8:	01d00713          	li	a4,29
   14bec:	18d76263          	bltu	a4,a3,14d70 <__sflush_r+0x248>
   14bf0:	20400737          	lui	a4,0x20400
   14bf4:	00170713          	addi	a4,a4,1 # 20400001 <__BSS_END__+0x203df389>
   14bf8:	00d75733          	srl	a4,a4,a3
   14bfc:	00177713          	andi	a4,a4,1
   14c00:	16070863          	beqz	a4,14d70 <__sflush_r+0x248>
   14c04:	01843683          	ld	a3,24(s0)
   14c08:	fffff737          	lui	a4,0xfffff
   14c0c:	7ff70713          	addi	a4,a4,2047 # fffffffffffff7ff <__BSS_END__+0xfffffffffffdeb87>
   14c10:	00e7f733          	and	a4,a5,a4
   14c14:	00e41823          	sh	a4,16(s0)
   14c18:	00042423          	sw	zero,8(s0)
   14c1c:	00d43023          	sd	a3,0(s0)
   14c20:	03379713          	slli	a4,a5,0x33
   14c24:	00075663          	bgez	a4,14c30 <__sflush_r+0x108>
   14c28:	0009a783          	lw	a5,0(s3)
   14c2c:	10078863          	beqz	a5,14d3c <__sflush_r+0x214>
   14c30:	05843583          	ld	a1,88(s0)
   14c34:	0099a023          	sw	s1,0(s3)
   14c38:	10058a63          	beqz	a1,14d4c <__sflush_r+0x224>
   14c3c:	07440793          	addi	a5,s0,116
   14c40:	00f58663          	beq	a1,a5,14c4c <__sflush_r+0x124>
   14c44:	00098513          	mv	a0,s3
   14c48:	ac0fc0ef          	jal	10f08 <_free_r>
   14c4c:	01813483          	ld	s1,24(sp)
   14c50:	04043c23          	sd	zero,88(s0)
   14c54:	02813083          	ld	ra,40(sp)
   14c58:	02013403          	ld	s0,32(sp)
   14c5c:	00813983          	ld	s3,8(sp)
   14c60:	00000513          	li	a0,0
   14c64:	03010113          	addi	sp,sp,48
   14c68:	00008067          	ret
   14c6c:	01213823          	sd	s2,16(sp)
   14c70:	0185b903          	ld	s2,24(a1)
   14c74:	08090a63          	beqz	s2,14d08 <__sflush_r+0x1e0>
   14c78:	00913c23          	sd	s1,24(sp)
   14c7c:	0005b483          	ld	s1,0(a1)
   14c80:	00377713          	andi	a4,a4,3
   14c84:	0125b023          	sd	s2,0(a1)
   14c88:	412484bb          	subw	s1,s1,s2
   14c8c:	00000793          	li	a5,0
   14c90:	00071463          	bnez	a4,14c98 <__sflush_r+0x170>
   14c94:	0205a783          	lw	a5,32(a1)
   14c98:	00f42623          	sw	a5,12(s0)
   14c9c:	00904863          	bgtz	s1,14cac <__sflush_r+0x184>
   14ca0:	0640006f          	j	14d04 <__sflush_r+0x1dc>
   14ca4:	00a90933          	add	s2,s2,a0
   14ca8:	04905e63          	blez	s1,14d04 <__sflush_r+0x1dc>
   14cac:	04043783          	ld	a5,64(s0)
   14cb0:	03043583          	ld	a1,48(s0)
   14cb4:	00048693          	mv	a3,s1
   14cb8:	00090613          	mv	a2,s2
   14cbc:	00098513          	mv	a0,s3
   14cc0:	000780e7          	jalr	a5
   14cc4:	40a484bb          	subw	s1,s1,a0
   14cc8:	fca04ee3          	bgtz	a0,14ca4 <__sflush_r+0x17c>
   14ccc:	01045783          	lhu	a5,16(s0)
   14cd0:	01013903          	ld	s2,16(sp)
   14cd4:	0407e793          	ori	a5,a5,64
   14cd8:	02813083          	ld	ra,40(sp)
   14cdc:	00f41823          	sh	a5,16(s0)
   14ce0:	02013403          	ld	s0,32(sp)
   14ce4:	01813483          	ld	s1,24(sp)
   14ce8:	00813983          	ld	s3,8(sp)
   14cec:	fff00513          	li	a0,-1
   14cf0:	03010113          	addi	sp,sp,48
   14cf4:	00008067          	ret
   14cf8:	0705a683          	lw	a3,112(a1)
   14cfc:	e6d044e3          	bgtz	a3,14b64 <__sflush_r+0x3c>
   14d00:	f55ff06f          	j	14c54 <__sflush_r+0x12c>
   14d04:	01813483          	ld	s1,24(sp)
   14d08:	01013903          	ld	s2,16(sp)
   14d0c:	f49ff06f          	j	14c54 <__sflush_r+0x12c>
   14d10:	09043603          	ld	a2,144(s0)
   14d14:	e95ff06f          	j	14ba8 <__sflush_r+0x80>
   14d18:	01843683          	ld	a3,24(s0)
   14d1c:	fffff737          	lui	a4,0xfffff
   14d20:	7ff70713          	addi	a4,a4,2047 # fffffffffffff7ff <__BSS_END__+0xfffffffffffdeb87>
   14d24:	00e7f733          	and	a4,a5,a4
   14d28:	00e41823          	sh	a4,16(s0)
   14d2c:	00042423          	sw	zero,8(s0)
   14d30:	00d43023          	sd	a3,0(s0)
   14d34:	03379713          	slli	a4,a5,0x33
   14d38:	ee075ce3          	bgez	a4,14c30 <__sflush_r+0x108>
   14d3c:	05843583          	ld	a1,88(s0)
   14d40:	08a43823          	sd	a0,144(s0)
   14d44:	0099a023          	sw	s1,0(s3)
   14d48:	ee059ae3          	bnez	a1,14c3c <__sflush_r+0x114>
   14d4c:	01813483          	ld	s1,24(sp)
   14d50:	f05ff06f          	j	14c54 <__sflush_r+0x12c>
   14d54:	0009a783          	lw	a5,0(s3)
   14d58:	e40784e3          	beqz	a5,14ba0 <__sflush_r+0x78>
   14d5c:	fe378713          	addi	a4,a5,-29
   14d60:	00070c63          	beqz	a4,14d78 <__sflush_r+0x250>
   14d64:	fea78793          	addi	a5,a5,-22
   14d68:	00078863          	beqz	a5,14d78 <__sflush_r+0x250>
   14d6c:	01045783          	lhu	a5,16(s0)
   14d70:	0407e793          	ori	a5,a5,64
   14d74:	f65ff06f          	j	14cd8 <__sflush_r+0x1b0>
   14d78:	0099a023          	sw	s1,0(s3)
   14d7c:	01813483          	ld	s1,24(sp)
   14d80:	ed5ff06f          	j	14c54 <__sflush_r+0x12c>

0000000000014d84 <_fflush_r>:
   14d84:	00050793          	mv	a5,a0
   14d88:	00050663          	beqz	a0,14d94 <_fflush_r+0x10>
   14d8c:	04853703          	ld	a4,72(a0)
   14d90:	00070e63          	beqz	a4,14dac <_fflush_r+0x28>
   14d94:	01059703          	lh	a4,16(a1)
   14d98:	00071663          	bnez	a4,14da4 <_fflush_r+0x20>
   14d9c:	00000513          	li	a0,0
   14da0:	00008067          	ret
   14da4:	00078513          	mv	a0,a5
   14da8:	d81ff06f          	j	14b28 <__sflush_r>
   14dac:	fe010113          	addi	sp,sp,-32
   14db0:	00b13423          	sd	a1,8(sp)
   14db4:	00113c23          	sd	ra,24(sp)
   14db8:	00a13023          	sd	a0,0(sp)
   14dbc:	fdcfb0ef          	jal	10598 <__sinit>
   14dc0:	00813583          	ld	a1,8(sp)
   14dc4:	00013783          	ld	a5,0(sp)
   14dc8:	01059703          	lh	a4,16(a1)
   14dcc:	00070a63          	beqz	a4,14de0 <_fflush_r+0x5c>
   14dd0:	01813083          	ld	ra,24(sp)
   14dd4:	00078513          	mv	a0,a5
   14dd8:	02010113          	addi	sp,sp,32
   14ddc:	d4dff06f          	j	14b28 <__sflush_r>
   14de0:	01813083          	ld	ra,24(sp)
   14de4:	00000513          	li	a0,0
   14de8:	02010113          	addi	sp,sp,32
   14dec:	00008067          	ret

0000000000014df0 <fflush>:
   14df0:	06050063          	beqz	a0,14e50 <fflush+0x60>
   14df4:	00050593          	mv	a1,a0
   14df8:	2201b503          	ld	a0,544(gp) # 20698 <_impure_ptr>
   14dfc:	00050663          	beqz	a0,14e08 <fflush+0x18>
   14e00:	04853783          	ld	a5,72(a0)
   14e04:	00078c63          	beqz	a5,14e1c <fflush+0x2c>
   14e08:	01059783          	lh	a5,16(a1)
   14e0c:	00079663          	bnez	a5,14e18 <fflush+0x28>
   14e10:	00000513          	li	a0,0
   14e14:	00008067          	ret
   14e18:	d11ff06f          	j	14b28 <__sflush_r>
   14e1c:	fe010113          	addi	sp,sp,-32
   14e20:	00b13423          	sd	a1,8(sp)
   14e24:	00a13023          	sd	a0,0(sp)
   14e28:	00113c23          	sd	ra,24(sp)
   14e2c:	f6cfb0ef          	jal	10598 <__sinit>
   14e30:	00813583          	ld	a1,8(sp)
   14e34:	00013503          	ld	a0,0(sp)
   14e38:	01059783          	lh	a5,16(a1)
   14e3c:	02079863          	bnez	a5,14e6c <fflush+0x7c>
   14e40:	01813083          	ld	ra,24(sp)
   14e44:	00000513          	li	a0,0
   14e48:	02010113          	addi	sp,sp,32
   14e4c:	00008067          	ret
   14e50:	00020637          	lui	a2,0x20
   14e54:	000155b7          	lui	a1,0x15
   14e58:	00020537          	lui	a0,0x20
   14e5c:	b0060613          	addi	a2,a2,-1280 # 1fb00 <__sglue>
   14e60:	d8458593          	addi	a1,a1,-636 # 14d84 <_fflush_r>
   14e64:	b1850513          	addi	a0,a0,-1256 # 1fb18 <_impure_data>
   14e68:	f8cfb06f          	j	105f4 <_fwalk_sglue>
   14e6c:	01813083          	ld	ra,24(sp)
   14e70:	02010113          	addi	sp,sp,32
   14e74:	cb5ff06f          	j	14b28 <__sflush_r>

0000000000014e78 <__sfvwrite_r>:
   14e78:	01063783          	ld	a5,16(a2)
   14e7c:	22078e63          	beqz	a5,150b8 <__sfvwrite_r+0x240>
   14e80:	01059683          	lh	a3,16(a1)
   14e84:	fa010113          	addi	sp,sp,-96
   14e88:	04813823          	sd	s0,80(sp)
   14e8c:	03413823          	sd	s4,48(sp)
   14e90:	03513423          	sd	s5,40(sp)
   14e94:	04113c23          	sd	ra,88(sp)
   14e98:	0086f793          	andi	a5,a3,8
   14e9c:	00058413          	mv	s0,a1
   14ea0:	00050a93          	mv	s5,a0
   14ea4:	00060a13          	mv	s4,a2
   14ea8:	0a078663          	beqz	a5,14f54 <__sfvwrite_r+0xdc>
   14eac:	0185b783          	ld	a5,24(a1)
   14eb0:	0a078263          	beqz	a5,14f54 <__sfvwrite_r+0xdc>
   14eb4:	04913423          	sd	s1,72(sp)
   14eb8:	05213023          	sd	s2,64(sp)
   14ebc:	03313c23          	sd	s3,56(sp)
   14ec0:	03613023          	sd	s6,32(sp)
   14ec4:	0026f793          	andi	a5,a3,2
   14ec8:	000a3483          	ld	s1,0(s4)
   14ecc:	0a078c63          	beqz	a5,14f84 <__sfvwrite_r+0x10c>
   14ed0:	80000b37          	lui	s6,0x80000
   14ed4:	c00b4b13          	xori	s6,s6,-1024
   14ed8:	00000993          	li	s3,0
   14edc:	00000913          	li	s2,0
   14ee0:	00098613          	mv	a2,s3
   14ee4:	000a8513          	mv	a0,s5
   14ee8:	1c090063          	beqz	s2,150a8 <__sfvwrite_r+0x230>
   14eec:	00090693          	mv	a3,s2
   14ef0:	012b7663          	bgeu	s6,s2,14efc <__sfvwrite_r+0x84>
   14ef4:	800006b7          	lui	a3,0x80000
   14ef8:	c006c693          	xori	a3,a3,-1024
   14efc:	04043783          	ld	a5,64(s0)
   14f00:	03043583          	ld	a1,48(s0)
   14f04:	0006869b          	sext.w	a3,a3
   14f08:	000780e7          	jalr	a5
   14f0c:	42a05463          	blez	a0,15334 <__sfvwrite_r+0x4bc>
   14f10:	010a3783          	ld	a5,16(s4)
   14f14:	00a989b3          	add	s3,s3,a0
   14f18:	40a90933          	sub	s2,s2,a0
   14f1c:	40a787b3          	sub	a5,a5,a0
   14f20:	00fa3823          	sd	a5,16(s4)
   14f24:	fa079ee3          	bnez	a5,14ee0 <__sfvwrite_r+0x68>
   14f28:	04813483          	ld	s1,72(sp)
   14f2c:	04013903          	ld	s2,64(sp)
   14f30:	03813983          	ld	s3,56(sp)
   14f34:	02013b03          	ld	s6,32(sp)
   14f38:	00000513          	li	a0,0
   14f3c:	05813083          	ld	ra,88(sp)
   14f40:	05013403          	ld	s0,80(sp)
   14f44:	03013a03          	ld	s4,48(sp)
   14f48:	02813a83          	ld	s5,40(sp)
   14f4c:	06010113          	addi	sp,sp,96
   14f50:	00008067          	ret
   14f54:	00040593          	mv	a1,s0
   14f58:	000a8513          	mv	a0,s5
   14f5c:	3fc000ef          	jal	15358 <__swsetup_r>
   14f60:	28051c63          	bnez	a0,151f8 <__sfvwrite_r+0x380>
   14f64:	01041683          	lh	a3,16(s0)
   14f68:	04913423          	sd	s1,72(sp)
   14f6c:	05213023          	sd	s2,64(sp)
   14f70:	03313c23          	sd	s3,56(sp)
   14f74:	03613023          	sd	s6,32(sp)
   14f78:	0026f793          	andi	a5,a3,2
   14f7c:	000a3483          	ld	s1,0(s4)
   14f80:	f40798e3          	bnez	a5,14ed0 <__sfvwrite_r+0x58>
   14f84:	01713c23          	sd	s7,24(sp)
   14f88:	01813823          	sd	s8,16(sp)
   14f8c:	01913423          	sd	s9,8(sp)
   14f90:	0016f793          	andi	a5,a3,1
   14f94:	12079663          	bnez	a5,150c0 <__sfvwrite_r+0x248>
   14f98:	00043783          	ld	a5,0(s0)
   14f9c:	80000737          	lui	a4,0x80000
   14fa0:	fff74c13          	not	s8,a4
   14fa4:	00000b13          	li	s6,0
   14fa8:	00000993          	li	s3,0
   14fac:	0e098663          	beqz	s3,15098 <__sfvwrite_r+0x220>
   14fb0:	2006f713          	andi	a4,a3,512
   14fb4:	00c42903          	lw	s2,12(s0)
   14fb8:	00078513          	mv	a0,a5
   14fbc:	24070263          	beqz	a4,15200 <__sfvwrite_r+0x388>
   14fc0:	0929ec63          	bltu	s3,s2,15058 <__sfvwrite_r+0x1e0>
   14fc4:	4806f713          	andi	a4,a3,1152
   14fc8:	00090b93          	mv	s7,s2
   14fcc:	08070a63          	beqz	a4,15060 <__sfvwrite_r+0x1e8>
   14fd0:	02042603          	lw	a2,32(s0)
   14fd4:	01843583          	ld	a1,24(s0)
   14fd8:	0016171b          	slliw	a4,a2,0x1
   14fdc:	00c7073b          	addw	a4,a4,a2
   14fe0:	40b787b3          	sub	a5,a5,a1
   14fe4:	01f7591b          	srliw	s2,a4,0x1f
   14fe8:	00078b9b          	sext.w	s7,a5
   14fec:	00e9093b          	addw	s2,s2,a4
   14ff0:	001b8713          	addi	a4,s7,1
   14ff4:	4019591b          	sraiw	s2,s2,0x1
   14ff8:	01370733          	add	a4,a4,s3
   14ffc:	00e97663          	bgeu	s2,a4,15008 <__sfvwrite_r+0x190>
   15000:	0017879b          	addiw	a5,a5,1
   15004:	0137893b          	addw	s2,a5,s3
   15008:	4006f693          	andi	a3,a3,1024
   1500c:	2c068863          	beqz	a3,152dc <__sfvwrite_r+0x464>
   15010:	00090593          	mv	a1,s2
   15014:	000a8513          	mv	a0,s5
   15018:	9f4fc0ef          	jal	1120c <_malloc_r>
   1501c:	00050c93          	mv	s9,a0
   15020:	30050e63          	beqz	a0,1533c <__sfvwrite_r+0x4c4>
   15024:	01843583          	ld	a1,24(s0)
   15028:	000b8613          	mv	a2,s7
   1502c:	005000ef          	jal	15830 <memcpy>
   15030:	01045703          	lhu	a4,16(s0)
   15034:	b7f77713          	andi	a4,a4,-1153
   15038:	08076713          	ori	a4,a4,128
   1503c:	00e41823          	sh	a4,16(s0)
   15040:	017c8533          	add	a0,s9,s7
   15044:	41790bbb          	subw	s7,s2,s7
   15048:	01943c23          	sd	s9,24(s0)
   1504c:	00a43023          	sd	a0,0(s0)
   15050:	01742623          	sw	s7,12(s0)
   15054:	03242023          	sw	s2,32(s0)
   15058:	00098b93          	mv	s7,s3
   1505c:	00098913          	mv	s2,s3
   15060:	000b0593          	mv	a1,s6
   15064:	00090613          	mv	a2,s2
   15068:	6a0000ef          	jal	15708 <memmove>
   1506c:	00c42683          	lw	a3,12(s0)
   15070:	00043783          	ld	a5,0(s0)
   15074:	010a3703          	ld	a4,16(s4)
   15078:	417686bb          	subw	a3,a3,s7
   1507c:	012787b3          	add	a5,a5,s2
   15080:	00d42623          	sw	a3,12(s0)
   15084:	00f43023          	sd	a5,0(s0)
   15088:	41370733          	sub	a4,a4,s3
   1508c:	00ea3823          	sd	a4,16(s4)
   15090:	28070a63          	beqz	a4,15324 <__sfvwrite_r+0x4ac>
   15094:	01041683          	lh	a3,16(s0)
   15098:	0004bb03          	ld	s6,0(s1)
   1509c:	0084b983          	ld	s3,8(s1)
   150a0:	01048493          	addi	s1,s1,16
   150a4:	f09ff06f          	j	14fac <__sfvwrite_r+0x134>
   150a8:	0004b983          	ld	s3,0(s1)
   150ac:	0084b903          	ld	s2,8(s1)
   150b0:	01048493          	addi	s1,s1,16
   150b4:	e2dff06f          	j	14ee0 <__sfvwrite_r+0x68>
   150b8:	00000513          	li	a0,0
   150bc:	00008067          	ret
   150c0:	00000b93          	li	s7,0
   150c4:	00000c13          	li	s8,0
   150c8:	00000513          	li	a0,0
   150cc:	00000c93          	li	s9,0
   150d0:	080b8063          	beqz	s7,15150 <__sfvwrite_r+0x2d8>
   150d4:	08050863          	beqz	a0,15164 <__sfvwrite_r+0x2ec>
   150d8:	000c0b13          	mv	s6,s8
   150dc:	018bf463          	bgeu	s7,s8,150e4 <__sfvwrite_r+0x26c>
   150e0:	000b8b13          	mv	s6,s7
   150e4:	02042683          	lw	a3,32(s0)
   150e8:	00c42783          	lw	a5,12(s0)
   150ec:	00043503          	ld	a0,0(s0)
   150f0:	01843703          	ld	a4,24(s0)
   150f4:	00d789bb          	addw	s3,a5,a3
   150f8:	000b0913          	mv	s2,s6
   150fc:	00a77463          	bgeu	a4,a0,15104 <__sfvwrite_r+0x28c>
   15100:	0969c263          	blt	s3,s6,15184 <__sfvwrite_r+0x30c>
   15104:	1adb4663          	blt	s6,a3,152b0 <__sfvwrite_r+0x438>
   15108:	04043783          	ld	a5,64(s0)
   1510c:	03043583          	ld	a1,48(s0)
   15110:	000c8613          	mv	a2,s9
   15114:	000a8513          	mv	a0,s5
   15118:	000780e7          	jalr	a5
   1511c:	00050913          	mv	s2,a0
   15120:	0aa05863          	blez	a0,151d0 <__sfvwrite_r+0x358>
   15124:	0005079b          	sext.w	a5,a0
   15128:	40fc0c3b          	subw	s8,s8,a5
   1512c:	00100513          	li	a0,1
   15130:	080c0863          	beqz	s8,151c0 <__sfvwrite_r+0x348>
   15134:	010a3783          	ld	a5,16(s4)
   15138:	412787b3          	sub	a5,a5,s2
   1513c:	00fa3823          	sd	a5,16(s4)
   15140:	1e078263          	beqz	a5,15324 <__sfvwrite_r+0x4ac>
   15144:	412b8bb3          	sub	s7,s7,s2
   15148:	012c8cb3          	add	s9,s9,s2
   1514c:	f80b94e3          	bnez	s7,150d4 <__sfvwrite_r+0x25c>
   15150:	0084bb83          	ld	s7,8(s1)
   15154:	00048793          	mv	a5,s1
   15158:	01048493          	addi	s1,s1,16
   1515c:	fe0b8ae3          	beqz	s7,15150 <__sfvwrite_r+0x2d8>
   15160:	0007bc83          	ld	s9,0(a5)
   15164:	000b8613          	mv	a2,s7
   15168:	00a00593          	li	a1,10
   1516c:	000c8513          	mv	a0,s9
   15170:	34c000ef          	jal	154bc <memchr>
   15174:	1a050463          	beqz	a0,1531c <__sfvwrite_r+0x4a4>
   15178:	00150513          	addi	a0,a0,1
   1517c:	41950c3b          	subw	s8,a0,s9
   15180:	f59ff06f          	j	150d8 <__sfvwrite_r+0x260>
   15184:	000c8593          	mv	a1,s9
   15188:	00098613          	mv	a2,s3
   1518c:	57c000ef          	jal	15708 <memmove>
   15190:	00043783          	ld	a5,0(s0)
   15194:	00040593          	mv	a1,s0
   15198:	000a8513          	mv	a0,s5
   1519c:	013787b3          	add	a5,a5,s3
   151a0:	00f43023          	sd	a5,0(s0)
   151a4:	be1ff0ef          	jal	14d84 <_fflush_r>
   151a8:	02051463          	bnez	a0,151d0 <__sfvwrite_r+0x358>
   151ac:	00098793          	mv	a5,s3
   151b0:	40fc0c3b          	subw	s8,s8,a5
   151b4:	00098913          	mv	s2,s3
   151b8:	00100513          	li	a0,1
   151bc:	f60c1ce3          	bnez	s8,15134 <__sfvwrite_r+0x2bc>
   151c0:	00040593          	mv	a1,s0
   151c4:	000a8513          	mv	a0,s5
   151c8:	bbdff0ef          	jal	14d84 <_fflush_r>
   151cc:	f60504e3          	beqz	a0,15134 <__sfvwrite_r+0x2bc>
   151d0:	01041783          	lh	a5,16(s0)
   151d4:	01813b83          	ld	s7,24(sp)
   151d8:	01013c03          	ld	s8,16(sp)
   151dc:	00813c83          	ld	s9,8(sp)
   151e0:	04813483          	ld	s1,72(sp)
   151e4:	04013903          	ld	s2,64(sp)
   151e8:	03813983          	ld	s3,56(sp)
   151ec:	02013b03          	ld	s6,32(sp)
   151f0:	0407e793          	ori	a5,a5,64
   151f4:	00f41823          	sh	a5,16(s0)
   151f8:	fff00513          	li	a0,-1
   151fc:	d41ff06f          	j	14f3c <__sfvwrite_r+0xc4>
   15200:	01843703          	ld	a4,24(s0)
   15204:	06f76263          	bltu	a4,a5,15268 <__sfvwrite_r+0x3f0>
   15208:	02042583          	lw	a1,32(s0)
   1520c:	04b9ee63          	bltu	s3,a1,15268 <__sfvwrite_r+0x3f0>
   15210:	00098913          	mv	s2,s3
   15214:	013c7463          	bgeu	s8,s3,1521c <__sfvwrite_r+0x3a4>
   15218:	000c0913          	mv	s2,s8
   1521c:	0009051b          	sext.w	a0,s2
   15220:	7f1080ef          	jal	1e210 <__moddi3>
   15224:	04043783          	ld	a5,64(s0)
   15228:	03043583          	ld	a1,48(s0)
   1522c:	40a906bb          	subw	a3,s2,a0
   15230:	000b0613          	mv	a2,s6
   15234:	000a8513          	mv	a0,s5
   15238:	000780e7          	jalr	a5
   1523c:	f8a05ae3          	blez	a0,151d0 <__sfvwrite_r+0x358>
   15240:	00050913          	mv	s2,a0
   15244:	010a3783          	ld	a5,16(s4)
   15248:	412989b3          	sub	s3,s3,s2
   1524c:	412787b3          	sub	a5,a5,s2
   15250:	00fa3823          	sd	a5,16(s4)
   15254:	0c078863          	beqz	a5,15324 <__sfvwrite_r+0x4ac>
   15258:	01041683          	lh	a3,16(s0)
   1525c:	00043783          	ld	a5,0(s0)
   15260:	012b0b33          	add	s6,s6,s2
   15264:	d49ff06f          	j	14fac <__sfvwrite_r+0x134>
   15268:	0129f463          	bgeu	s3,s2,15270 <__sfvwrite_r+0x3f8>
   1526c:	00098913          	mv	s2,s3
   15270:	00078513          	mv	a0,a5
   15274:	00090613          	mv	a2,s2
   15278:	000b0593          	mv	a1,s6
   1527c:	48c000ef          	jal	15708 <memmove>
   15280:	00043783          	ld	a5,0(s0)
   15284:	00c42703          	lw	a4,12(s0)
   15288:	012787b3          	add	a5,a5,s2
   1528c:	4127073b          	subw	a4,a4,s2
   15290:	00f43023          	sd	a5,0(s0)
   15294:	00e42623          	sw	a4,12(s0)
   15298:	fa0716e3          	bnez	a4,15244 <__sfvwrite_r+0x3cc>
   1529c:	00040593          	mv	a1,s0
   152a0:	000a8513          	mv	a0,s5
   152a4:	ae1ff0ef          	jal	14d84 <_fflush_r>
   152a8:	f8050ee3          	beqz	a0,15244 <__sfvwrite_r+0x3cc>
   152ac:	f25ff06f          	j	151d0 <__sfvwrite_r+0x358>
   152b0:	000b0613          	mv	a2,s6
   152b4:	000c8593          	mv	a1,s9
   152b8:	450000ef          	jal	15708 <memmove>
   152bc:	00c42683          	lw	a3,12(s0)
   152c0:	00043703          	ld	a4,0(s0)
   152c4:	000b079b          	sext.w	a5,s6
   152c8:	416686bb          	subw	a3,a3,s6
   152cc:	01670733          	add	a4,a4,s6
   152d0:	00d42623          	sw	a3,12(s0)
   152d4:	00e43023          	sd	a4,0(s0)
   152d8:	e51ff06f          	j	15128 <__sfvwrite_r+0x2b0>
   152dc:	00090613          	mv	a2,s2
   152e0:	000a8513          	mv	a0,s5
   152e4:	789030ef          	jal	1926c <_realloc_r>
   152e8:	00050c93          	mv	s9,a0
   152ec:	d4051ae3          	bnez	a0,15040 <__sfvwrite_r+0x1c8>
   152f0:	01843583          	ld	a1,24(s0)
   152f4:	000a8513          	mv	a0,s5
   152f8:	c11fb0ef          	jal	10f08 <_free_r>
   152fc:	01045783          	lhu	a5,16(s0)
   15300:	00c00713          	li	a4,12
   15304:	01813b83          	ld	s7,24(sp)
   15308:	01013c03          	ld	s8,16(sp)
   1530c:	00813c83          	ld	s9,8(sp)
   15310:	00eaa023          	sw	a4,0(s5)
   15314:	f7f7f793          	andi	a5,a5,-129
   15318:	ec9ff06f          	j	151e0 <__sfvwrite_r+0x368>
   1531c:	001b8c1b          	addiw	s8,s7,1
   15320:	db9ff06f          	j	150d8 <__sfvwrite_r+0x260>
   15324:	01813b83          	ld	s7,24(sp)
   15328:	01013c03          	ld	s8,16(sp)
   1532c:	00813c83          	ld	s9,8(sp)
   15330:	bf9ff06f          	j	14f28 <__sfvwrite_r+0xb0>
   15334:	01041783          	lh	a5,16(s0)
   15338:	ea9ff06f          	j	151e0 <__sfvwrite_r+0x368>
   1533c:	00c00793          	li	a5,12
   15340:	00faa023          	sw	a5,0(s5)
   15344:	01813b83          	ld	s7,24(sp)
   15348:	01041783          	lh	a5,16(s0)
   1534c:	01013c03          	ld	s8,16(sp)
   15350:	00813c83          	ld	s9,8(sp)
   15354:	e8dff06f          	j	151e0 <__sfvwrite_r+0x368>

0000000000015358 <__swsetup_r>:
   15358:	2201b703          	ld	a4,544(gp) # 20698 <_impure_ptr>
   1535c:	fe010113          	addi	sp,sp,-32
   15360:	00113c23          	sd	ra,24(sp)
   15364:	00050613          	mv	a2,a0
   15368:	00058793          	mv	a5,a1
   1536c:	00070663          	beqz	a4,15378 <__swsetup_r+0x20>
   15370:	04873683          	ld	a3,72(a4) # ffffffff80000048 <__BSS_END__+0xffffffff7ffdf3d0>
   15374:	10068a63          	beqz	a3,15488 <__swsetup_r+0x130>
   15378:	01079703          	lh	a4,16(a5)
   1537c:	00877693          	andi	a3,a4,8
   15380:	02068e63          	beqz	a3,153bc <__swsetup_r+0x64>
   15384:	0187b683          	ld	a3,24(a5)
   15388:	04068a63          	beqz	a3,153dc <__swsetup_r+0x84>
   1538c:	01079703          	lh	a4,16(a5)
   15390:	00177613          	andi	a2,a4,1
   15394:	06060e63          	beqz	a2,15410 <__swsetup_r+0xb8>
   15398:	0207a603          	lw	a2,32(a5)
   1539c:	0007a623          	sw	zero,12(a5)
   153a0:	00000513          	li	a0,0
   153a4:	40c0063b          	negw	a2,a2
   153a8:	02c7a423          	sw	a2,40(a5)
   153ac:	08068063          	beqz	a3,1542c <__swsetup_r+0xd4>
   153b0:	01813083          	ld	ra,24(sp)
   153b4:	02010113          	addi	sp,sp,32
   153b8:	00008067          	ret
   153bc:	01077693          	andi	a3,a4,16
   153c0:	0e068263          	beqz	a3,154a4 <__swsetup_r+0x14c>
   153c4:	00477693          	andi	a3,a4,4
   153c8:	06069e63          	bnez	a3,15444 <__swsetup_r+0xec>
   153cc:	0187b683          	ld	a3,24(a5)
   153d0:	00876713          	ori	a4,a4,8
   153d4:	00e79823          	sh	a4,16(a5)
   153d8:	fa069ae3          	bnez	a3,1538c <__swsetup_r+0x34>
   153dc:	0107b703          	ld	a4,16(a5)
   153e0:	20000593          	li	a1,512
   153e4:	28077713          	andi	a4,a4,640
   153e8:	fab702e3          	beq	a4,a1,1538c <__swsetup_r+0x34>
   153ec:	00060513          	mv	a0,a2
   153f0:	00078593          	mv	a1,a5
   153f4:	00f13023          	sd	a5,0(sp)
   153f8:	4a8040ef          	jal	198a0 <__smakebuf_r>
   153fc:	00013783          	ld	a5,0(sp)
   15400:	01079703          	lh	a4,16(a5)
   15404:	0187b683          	ld	a3,24(a5)
   15408:	00177613          	andi	a2,a4,1
   1540c:	f80616e3          	bnez	a2,15398 <__swsetup_r+0x40>
   15410:	00277613          	andi	a2,a4,2
   15414:	00000593          	li	a1,0
   15418:	00061463          	bnez	a2,15420 <__swsetup_r+0xc8>
   1541c:	0207a583          	lw	a1,32(a5)
   15420:	00b7a623          	sw	a1,12(a5)
   15424:	00000513          	li	a0,0
   15428:	f80694e3          	bnez	a3,153b0 <__swsetup_r+0x58>
   1542c:	08077693          	andi	a3,a4,128
   15430:	f80680e3          	beqz	a3,153b0 <__swsetup_r+0x58>
   15434:	04076713          	ori	a4,a4,64
   15438:	00e79823          	sh	a4,16(a5)
   1543c:	fff00513          	li	a0,-1
   15440:	f71ff06f          	j	153b0 <__swsetup_r+0x58>
   15444:	0587b583          	ld	a1,88(a5)
   15448:	02058663          	beqz	a1,15474 <__swsetup_r+0x11c>
   1544c:	07478693          	addi	a3,a5,116
   15450:	02d58063          	beq	a1,a3,15470 <__swsetup_r+0x118>
   15454:	00060513          	mv	a0,a2
   15458:	00f13423          	sd	a5,8(sp)
   1545c:	00c13023          	sd	a2,0(sp)
   15460:	aa9fb0ef          	jal	10f08 <_free_r>
   15464:	00813783          	ld	a5,8(sp)
   15468:	00013603          	ld	a2,0(sp)
   1546c:	01079703          	lh	a4,16(a5)
   15470:	0407bc23          	sd	zero,88(a5)
   15474:	0187b683          	ld	a3,24(a5)
   15478:	fdb77713          	andi	a4,a4,-37
   1547c:	0007a423          	sw	zero,8(a5)
   15480:	00d7b023          	sd	a3,0(a5)
   15484:	f4dff06f          	j	153d0 <__swsetup_r+0x78>
   15488:	00a13023          	sd	a0,0(sp)
   1548c:	00070513          	mv	a0,a4
   15490:	00b13423          	sd	a1,8(sp)
   15494:	904fb0ef          	jal	10598 <__sinit>
   15498:	00813783          	ld	a5,8(sp)
   1549c:	00013603          	ld	a2,0(sp)
   154a0:	ed9ff06f          	j	15378 <__swsetup_r+0x20>
   154a4:	00900693          	li	a3,9
   154a8:	04076713          	ori	a4,a4,64
   154ac:	00d62023          	sw	a3,0(a2)
   154b0:	00e79823          	sh	a4,16(a5)
   154b4:	fff00513          	li	a0,-1
   154b8:	ef9ff06f          	j	153b0 <__swsetup_r+0x58>

00000000000154bc <memchr>:
   154bc:	00757793          	andi	a5,a0,7
   154c0:	0ff5f313          	zext.b	t1,a1
   154c4:	02078063          	beqz	a5,154e4 <memchr+0x28>
   154c8:	0a060663          	beqz	a2,15574 <memchr+0xb8>
   154cc:	00054783          	lbu	a5,0(a0)
   154d0:	fff60613          	addi	a2,a2,-1
   154d4:	08678e63          	beq	a5,t1,15570 <memchr+0xb4>
   154d8:	00150513          	addi	a0,a0,1
   154dc:	00757793          	andi	a5,a0,7
   154e0:	fe0794e3          	bnez	a5,154c8 <memchr+0xc>
   154e4:	00700813          	li	a6,7
   154e8:	06c87663          	bgeu	a6,a2,15554 <memchr+0x98>
   154ec:	0ff5f593          	zext.b	a1,a1
   154f0:	0085979b          	slliw	a5,a1,0x8
   154f4:	00b787b3          	add	a5,a5,a1
   154f8:	01079693          	slli	a3,a5,0x10
   154fc:	7f7f8737          	lui	a4,0x7f7f8
   15500:	00f686b3          	add	a3,a3,a5
   15504:	f7f70713          	addi	a4,a4,-129 # 7f7f7f7f <__BSS_END__+0x7f7d7307>
   15508:	feff07b7          	lui	a5,0xfeff0
   1550c:	eff78793          	addi	a5,a5,-257 # fffffffffefefeff <__BSS_END__+0xfffffffffefcf287>
   15510:	02071593          	slli	a1,a4,0x20
   15514:	02069e13          	slli	t3,a3,0x20
   15518:	00e585b3          	add	a1,a1,a4
   1551c:	02079893          	slli	a7,a5,0x20
   15520:	01c686b3          	add	a3,a3,t3
   15524:	fff5c593          	not	a1,a1
   15528:	00f888b3          	add	a7,a7,a5
   1552c:	00053783          	ld	a5,0(a0)
   15530:	00f6c7b3          	xor	a5,a3,a5
   15534:	01178733          	add	a4,a5,a7
   15538:	fff7c793          	not	a5,a5
   1553c:	00f777b3          	and	a5,a4,a5
   15540:	00b7f7b3          	and	a5,a5,a1
   15544:	00079a63          	bnez	a5,15558 <memchr+0x9c>
   15548:	ff860613          	addi	a2,a2,-8
   1554c:	00850513          	addi	a0,a0,8
   15550:	fcc86ee3          	bltu	a6,a2,1552c <memchr+0x70>
   15554:	02060063          	beqz	a2,15574 <memchr+0xb8>
   15558:	00c50633          	add	a2,a0,a2
   1555c:	00c0006f          	j	15568 <memchr+0xac>
   15560:	00150513          	addi	a0,a0,1
   15564:	00c50863          	beq	a0,a2,15574 <memchr+0xb8>
   15568:	00054783          	lbu	a5,0(a0)
   1556c:	fe679ae3          	bne	a5,t1,15560 <memchr+0xa4>
   15570:	00008067          	ret
   15574:	00000513          	li	a0,0
   15578:	00008067          	ret

