
hello_world32mathieu:     file format elf32-littleriscv


Disassembly of section .text:

000100b4 <exit>:
   100b4:	ff010113          	addi	sp,sp,-16
   100b8:	00000593          	li	a1,0
   100bc:	00812423          	sw	s0,8(sp)
   100c0:	00112623          	sw	ra,12(sp)
   100c4:	00050413          	mv	s0,a0
   100c8:	355000ef          	jal	10c1c <__call_exitprocs>
   100cc:	f381a783          	lw	a5,-200(gp) # 23ab8 <__stdio_exit_handler>
   100d0:	00078463          	beqz	a5,100d8 <exit+0x24>
   100d4:	000780e7          	jalr	a5
   100d8:	00040513          	mv	a0,s0
   100dc:	3a10b0ef          	jal	1bc7c <_exit>

000100e0 <register_fini>:
   100e0:	00000793          	li	a5,0
   100e4:	00078863          	beqz	a5,100f4 <register_fini+0x14>
   100e8:	00015537          	lui	a0,0x15
   100ec:	73050513          	addi	a0,a0,1840 # 15730 <__libc_fini_array>
   100f0:	47d0006f          	j	10d6c <atexit>
   100f4:	00008067          	ret

000100f8 <_start>:
   100f8:	00014197          	auipc	gp,0x14
   100fc:	a8818193          	addi	gp,gp,-1400 # 23b80 <__global_pointer$>
   10100:	00000513          	li	a0,0
   10104:	00050463          	beqz	a0,1010c <_start+0x14>
   10108:	01751073          	csrw	jvt,a0
   1010c:	00014517          	auipc	a0,0x14
   10110:	9ac50513          	addi	a0,a0,-1620 # 23ab8 <__stdio_exit_handler>
   10114:	00014617          	auipc	a2,0x14
   10118:	cd060613          	addi	a2,a2,-816 # 23de4 <__BSS_END__>
   1011c:	40a60633          	sub	a2,a2,a0
   10120:	00000593          	li	a1,0
   10124:	21d000ef          	jal	10b40 <memset>
   10128:	00001517          	auipc	a0,0x1
   1012c:	c4450513          	addi	a0,a0,-956 # 10d6c <atexit>
   10130:	00050863          	beqz	a0,10140 <_start+0x48>
   10134:	00005517          	auipc	a0,0x5
   10138:	5fc50513          	addi	a0,a0,1532 # 15730 <__libc_fini_array>
   1013c:	431000ef          	jal	10d6c <atexit>
   10140:	16d000ef          	jal	10aac <__libc_init_array>
   10144:	00012503          	lw	a0,0(sp)
   10148:	00410593          	addi	a1,sp,4
   1014c:	00251613          	slli	a2,a0,0x2
   10150:	00460613          	addi	a2,a2,4
   10154:	00b60633          	add	a2,a2,a1
   10158:	06c000ef          	jal	101c4 <main>
   1015c:	f59ff06f          	j	100b4 <exit>

00010160 <__do_global_dtors_aux>:
   10160:	ff010113          	addi	sp,sp,-16
   10164:	00812423          	sw	s0,8(sp)
   10168:	f581c783          	lbu	a5,-168(gp) # 23ad8 <completed.1>
   1016c:	00112623          	sw	ra,12(sp)
   10170:	02079263          	bnez	a5,10194 <__do_global_dtors_aux+0x34>
   10174:	00000793          	li	a5,0
   10178:	00078a63          	beqz	a5,1018c <__do_global_dtors_aux+0x2c>
   1017c:	00022537          	lui	a0,0x22
   10180:	2bc50513          	addi	a0,a0,700 # 222bc <__EH_FRAME_BEGIN__>
   10184:	00000097          	auipc	ra,0x0
   10188:	000000e7          	jalr	zero # 0 <exit-0x100b4>
   1018c:	00100793          	li	a5,1
   10190:	f4f18c23          	sb	a5,-168(gp) # 23ad8 <completed.1>
   10194:	00c12083          	lw	ra,12(sp)
   10198:	00812403          	lw	s0,8(sp)
   1019c:	01010113          	addi	sp,sp,16
   101a0:	00008067          	ret

000101a4 <frame_dummy>:
   101a4:	00000793          	li	a5,0
   101a8:	00078c63          	beqz	a5,101c0 <frame_dummy+0x1c>
   101ac:	00022537          	lui	a0,0x22
   101b0:	f5c18593          	addi	a1,gp,-164 # 23adc <object.0>
   101b4:	2bc50513          	addi	a0,a0,700 # 222bc <__EH_FRAME_BEGIN__>
   101b8:	00000317          	auipc	t1,0x0
   101bc:	00000067          	jr	zero # 0 <exit-0x100b4>
   101c0:	00008067          	ret

000101c4 <main>:
   101c4:	fe010113          	addi	sp,sp,-32
   101c8:	00112e23          	sw	ra,28(sp)
   101cc:	00812c23          	sw	s0,24(sp)
   101d0:	02010413          	addi	s0,sp,32
   101d4:	00300793          	li	a5,3
   101d8:	fef42623          	sw	a5,-20(s0)
   101dc:	02500793          	li	a5,37
   101e0:	fef42423          	sw	a5,-24(s0)
   101e4:	fec42703          	lw	a4,-20(s0)
   101e8:	fe842783          	lw	a5,-24(s0)
   101ec:	00f707b3          	add	a5,a4,a5
   101f0:	fef42223          	sw	a5,-28(s0)
   101f4:	fe442783          	lw	a5,-28(s0)
   101f8:	00278793          	addi	a5,a5,2
   101fc:	fef42223          	sw	a5,-28(s0)
   10200:	fe442583          	lw	a1,-28(s0)
   10204:	000227b7          	lui	a5,0x22
   10208:	ac878513          	addi	a0,a5,-1336 # 21ac8 <__clzsi2+0x4c>
   1020c:	484000ef          	jal	10690 <printf>
   10210:	00000793          	li	a5,0
   10214:	00078513          	mv	a0,a5
   10218:	01c12083          	lw	ra,28(sp)
   1021c:	01812403          	lw	s0,24(sp)
   10220:	02010113          	addi	sp,sp,32
   10224:	00008067          	ret

00010228 <__fp_lock>:
   10228:	00000513          	li	a0,0
   1022c:	00008067          	ret

00010230 <stdio_exit_handler>:
   10230:	00023637          	lui	a2,0x23
   10234:	000155b7          	lui	a1,0x15
   10238:	00023537          	lui	a0,0x23
   1023c:	38060613          	addi	a2,a2,896 # 23380 <__sglue>
   10240:	ae458593          	addi	a1,a1,-1308 # 14ae4 <_fclose_r>
   10244:	39050513          	addi	a0,a0,912 # 23390 <_impure_data>
   10248:	34c0006f          	j	10594 <_fwalk_sglue>

0001024c <cleanup_stdio>:
   1024c:	00452583          	lw	a1,4(a0)
   10250:	ff010113          	addi	sp,sp,-16
   10254:	00812423          	sw	s0,8(sp)
   10258:	00112623          	sw	ra,12(sp)
   1025c:	f7418793          	addi	a5,gp,-140 # 23af4 <__sf>
   10260:	00050413          	mv	s0,a0
   10264:	00f58463          	beq	a1,a5,1026c <cleanup_stdio+0x20>
   10268:	07d040ef          	jal	14ae4 <_fclose_r>
   1026c:	00842583          	lw	a1,8(s0)
   10270:	fdc18793          	addi	a5,gp,-36 # 23b5c <__sf+0x68>
   10274:	00f58663          	beq	a1,a5,10280 <cleanup_stdio+0x34>
   10278:	00040513          	mv	a0,s0
   1027c:	069040ef          	jal	14ae4 <_fclose_r>
   10280:	00c42583          	lw	a1,12(s0)
   10284:	04418793          	addi	a5,gp,68 # 23bc4 <__global_pointer$+0x44>
   10288:	00f58c63          	beq	a1,a5,102a0 <cleanup_stdio+0x54>
   1028c:	00040513          	mv	a0,s0
   10290:	00812403          	lw	s0,8(sp)
   10294:	00c12083          	lw	ra,12(sp)
   10298:	01010113          	addi	sp,sp,16
   1029c:	0490406f          	j	14ae4 <_fclose_r>
   102a0:	00c12083          	lw	ra,12(sp)
   102a4:	00812403          	lw	s0,8(sp)
   102a8:	01010113          	addi	sp,sp,16
   102ac:	00008067          	ret

000102b0 <__fp_unlock>:
   102b0:	00000513          	li	a0,0
   102b4:	00008067          	ret

000102b8 <global_stdio_init.part.0>:
   102b8:	fe010113          	addi	sp,sp,-32
   102bc:	000107b7          	lui	a5,0x10
   102c0:	00812c23          	sw	s0,24(sp)
   102c4:	23078793          	addi	a5,a5,560 # 10230 <stdio_exit_handler>
   102c8:	f7418413          	addi	s0,gp,-140 # 23af4 <__sf>
   102cc:	00112e23          	sw	ra,28(sp)
   102d0:	00912a23          	sw	s1,20(sp)
   102d4:	01212823          	sw	s2,16(sp)
   102d8:	01312623          	sw	s3,12(sp)
   102dc:	01412423          	sw	s4,8(sp)
   102e0:	f2f1ac23          	sw	a5,-200(gp) # 23ab8 <__stdio_exit_handler>
   102e4:	00800613          	li	a2,8
   102e8:	00400793          	li	a5,4
   102ec:	00000593          	li	a1,0
   102f0:	fd018513          	addi	a0,gp,-48 # 23b50 <__sf+0x5c>
   102f4:	00f42623          	sw	a5,12(s0)
   102f8:	00042023          	sw	zero,0(s0)
   102fc:	00042223          	sw	zero,4(s0)
   10300:	00042423          	sw	zero,8(s0)
   10304:	06042223          	sw	zero,100(s0)
   10308:	00042823          	sw	zero,16(s0)
   1030c:	00042a23          	sw	zero,20(s0)
   10310:	00042c23          	sw	zero,24(s0)
   10314:	02d000ef          	jal	10b40 <memset>
   10318:	00010a37          	lui	s4,0x10
   1031c:	000109b7          	lui	s3,0x10
   10320:	00010937          	lui	s2,0x10
   10324:	000114b7          	lui	s1,0x11
   10328:	000107b7          	lui	a5,0x10
   1032c:	6dca0a13          	addi	s4,s4,1756 # 106dc <__sread>
   10330:	74098993          	addi	s3,s3,1856 # 10740 <__swrite>
   10334:	7c890913          	addi	s2,s2,1992 # 107c8 <__sseek>
   10338:	82c48493          	addi	s1,s1,-2004 # 1082c <__sclose>
   1033c:	00978793          	addi	a5,a5,9 # 10009 <exit-0xab>
   10340:	00800613          	li	a2,8
   10344:	00000593          	li	a1,0
   10348:	03818513          	addi	a0,gp,56 # 23bb8 <__global_pointer$+0x38>
   1034c:	06f42a23          	sw	a5,116(s0)
   10350:	03442023          	sw	s4,32(s0)
   10354:	03342223          	sw	s3,36(s0)
   10358:	03242423          	sw	s2,40(s0)
   1035c:	02942623          	sw	s1,44(s0)
   10360:	00842e23          	sw	s0,28(s0)
   10364:	06042423          	sw	zero,104(s0)
   10368:	06042623          	sw	zero,108(s0)
   1036c:	06042823          	sw	zero,112(s0)
   10370:	0c042623          	sw	zero,204(s0)
   10374:	06042c23          	sw	zero,120(s0)
   10378:	06042e23          	sw	zero,124(s0)
   1037c:	08042023          	sw	zero,128(s0)
   10380:	7c0000ef          	jal	10b40 <memset>
   10384:	000207b7          	lui	a5,0x20
   10388:	01278793          	addi	a5,a5,18 # 20012 <__multf3+0x11d2>
   1038c:	fdc18713          	addi	a4,gp,-36 # 23b5c <__sf+0x68>
   10390:	0a018513          	addi	a0,gp,160 # 23c20 <__global_pointer$+0xa0>
   10394:	00800613          	li	a2,8
   10398:	00000593          	li	a1,0
   1039c:	09442423          	sw	s4,136(s0)
   103a0:	09342623          	sw	s3,140(s0)
   103a4:	09242823          	sw	s2,144(s0)
   103a8:	08942a23          	sw	s1,148(s0)
   103ac:	0cf42e23          	sw	a5,220(s0)
   103b0:	0c042823          	sw	zero,208(s0)
   103b4:	0c042a23          	sw	zero,212(s0)
   103b8:	0c042c23          	sw	zero,216(s0)
   103bc:	12042a23          	sw	zero,308(s0)
   103c0:	0e042023          	sw	zero,224(s0)
   103c4:	0e042223          	sw	zero,228(s0)
   103c8:	0e042423          	sw	zero,232(s0)
   103cc:	08e42223          	sw	a4,132(s0)
   103d0:	770000ef          	jal	10b40 <memset>
   103d4:	04418793          	addi	a5,gp,68 # 23bc4 <__global_pointer$+0x44>
   103d8:	0f442823          	sw	s4,240(s0)
   103dc:	0f342a23          	sw	s3,244(s0)
   103e0:	0f242c23          	sw	s2,248(s0)
   103e4:	0e942e23          	sw	s1,252(s0)
   103e8:	01c12083          	lw	ra,28(sp)
   103ec:	0ef42623          	sw	a5,236(s0)
   103f0:	01812403          	lw	s0,24(sp)
   103f4:	01412483          	lw	s1,20(sp)
   103f8:	01012903          	lw	s2,16(sp)
   103fc:	00c12983          	lw	s3,12(sp)
   10400:	00812a03          	lw	s4,8(sp)
   10404:	02010113          	addi	sp,sp,32
   10408:	00008067          	ret

0001040c <__sfp>:
   1040c:	f381a783          	lw	a5,-200(gp) # 23ab8 <__stdio_exit_handler>
   10410:	fe010113          	addi	sp,sp,-32
   10414:	00912a23          	sw	s1,20(sp)
   10418:	00112e23          	sw	ra,28(sp)
   1041c:	00812c23          	sw	s0,24(sp)
   10420:	00050493          	mv	s1,a0
   10424:	0e078e63          	beqz	a5,10520 <__sfp+0x114>
   10428:	00023837          	lui	a6,0x23
   1042c:	38080813          	addi	a6,a6,896 # 23380 <__sglue>
   10430:	fff00693          	li	a3,-1
   10434:	00482783          	lw	a5,4(a6)
   10438:	fff78793          	addi	a5,a5,-1
   1043c:	0807c063          	bltz	a5,104bc <__sfp+0xb0>
   10440:	00882403          	lw	s0,8(a6)
   10444:	00c0006f          	j	10450 <__sfp+0x44>
   10448:	06840413          	addi	s0,s0,104
   1044c:	06d78863          	beq	a5,a3,104bc <__sfp+0xb0>
   10450:	00c41703          	lh	a4,12(s0)
   10454:	fff78793          	addi	a5,a5,-1
   10458:	fe0718e3          	bnez	a4,10448 <__sfp+0x3c>
   1045c:	ffff07b7          	lui	a5,0xffff0
   10460:	00178793          	addi	a5,a5,1 # ffff0001 <__BSS_END__+0xfffcc21d>
   10464:	00f42623          	sw	a5,12(s0)
   10468:	06042223          	sw	zero,100(s0)
   1046c:	00042023          	sw	zero,0(s0)
   10470:	00042423          	sw	zero,8(s0)
   10474:	00042223          	sw	zero,4(s0)
   10478:	00042823          	sw	zero,16(s0)
   1047c:	00042a23          	sw	zero,20(s0)
   10480:	00042c23          	sw	zero,24(s0)
   10484:	00800613          	li	a2,8
   10488:	00000593          	li	a1,0
   1048c:	05c40513          	addi	a0,s0,92
   10490:	6b0000ef          	jal	10b40 <memset>
   10494:	02042823          	sw	zero,48(s0)
   10498:	02042a23          	sw	zero,52(s0)
   1049c:	04042223          	sw	zero,68(s0)
   104a0:	04042423          	sw	zero,72(s0)
   104a4:	01c12083          	lw	ra,28(sp)
   104a8:	00040513          	mv	a0,s0
   104ac:	01812403          	lw	s0,24(sp)
   104b0:	01412483          	lw	s1,20(sp)
   104b4:	02010113          	addi	sp,sp,32
   104b8:	00008067          	ret
   104bc:	00082403          	lw	s0,0(a6)
   104c0:	00040663          	beqz	s0,104cc <__sfp+0xc0>
   104c4:	00040813          	mv	a6,s0
   104c8:	f6dff06f          	j	10434 <__sfp+0x28>
   104cc:	1ac00593          	li	a1,428
   104d0:	00048513          	mv	a0,s1
   104d4:	01012623          	sw	a6,12(sp)
   104d8:	4b5000ef          	jal	1118c <_malloc_r>
   104dc:	00c12803          	lw	a6,12(sp)
   104e0:	00050413          	mv	s0,a0
   104e4:	04050263          	beqz	a0,10528 <__sfp+0x11c>
   104e8:	00400793          	li	a5,4
   104ec:	00f52223          	sw	a5,4(a0)
   104f0:	00c50513          	addi	a0,a0,12
   104f4:	00042023          	sw	zero,0(s0)
   104f8:	00a42423          	sw	a0,8(s0)
   104fc:	1a000613          	li	a2,416
   10500:	00000593          	li	a1,0
   10504:	01012623          	sw	a6,12(sp)
   10508:	638000ef          	jal	10b40 <memset>
   1050c:	00c12803          	lw	a6,12(sp)
   10510:	fff00693          	li	a3,-1
   10514:	00882023          	sw	s0,0(a6)
   10518:	00040813          	mv	a6,s0
   1051c:	f19ff06f          	j	10434 <__sfp+0x28>
   10520:	d99ff0ef          	jal	102b8 <global_stdio_init.part.0>
   10524:	f05ff06f          	j	10428 <__sfp+0x1c>
   10528:	00082023          	sw	zero,0(a6)
   1052c:	00c00793          	li	a5,12
   10530:	00f4a023          	sw	a5,0(s1)
   10534:	f71ff06f          	j	104a4 <__sfp+0x98>

00010538 <__sinit>:
   10538:	03452783          	lw	a5,52(a0)
   1053c:	00078463          	beqz	a5,10544 <__sinit+0xc>
   10540:	00008067          	ret
   10544:	000107b7          	lui	a5,0x10
   10548:	f381a703          	lw	a4,-200(gp) # 23ab8 <__stdio_exit_handler>
   1054c:	24c78793          	addi	a5,a5,588 # 1024c <cleanup_stdio>
   10550:	02f52a23          	sw	a5,52(a0)
   10554:	fe0716e3          	bnez	a4,10540 <__sinit+0x8>
   10558:	d61ff06f          	j	102b8 <global_stdio_init.part.0>

0001055c <__sfp_lock_acquire>:
   1055c:	00008067          	ret

00010560 <__sfp_lock_release>:
   10560:	00008067          	ret

00010564 <__fp_lock_all>:
   10564:	00023637          	lui	a2,0x23
   10568:	000105b7          	lui	a1,0x10
   1056c:	38060613          	addi	a2,a2,896 # 23380 <__sglue>
   10570:	22858593          	addi	a1,a1,552 # 10228 <__fp_lock>
   10574:	00000513          	li	a0,0
   10578:	01c0006f          	j	10594 <_fwalk_sglue>

0001057c <__fp_unlock_all>:
   1057c:	00023637          	lui	a2,0x23
   10580:	000105b7          	lui	a1,0x10
   10584:	38060613          	addi	a2,a2,896 # 23380 <__sglue>
   10588:	2b058593          	addi	a1,a1,688 # 102b0 <__fp_unlock>
   1058c:	00000513          	li	a0,0
   10590:	0040006f          	j	10594 <_fwalk_sglue>

00010594 <_fwalk_sglue>:
   10594:	fd010113          	addi	sp,sp,-48
   10598:	03212023          	sw	s2,32(sp)
   1059c:	01312e23          	sw	s3,28(sp)
   105a0:	01412c23          	sw	s4,24(sp)
   105a4:	01512a23          	sw	s5,20(sp)
   105a8:	01612823          	sw	s6,16(sp)
   105ac:	01712623          	sw	s7,12(sp)
   105b0:	02112623          	sw	ra,44(sp)
   105b4:	02812423          	sw	s0,40(sp)
   105b8:	02912223          	sw	s1,36(sp)
   105bc:	00060a93          	mv	s5,a2
   105c0:	00050b13          	mv	s6,a0
   105c4:	00058b93          	mv	s7,a1
   105c8:	00000a13          	li	s4,0
   105cc:	00100993          	li	s3,1
   105d0:	fff00913          	li	s2,-1
   105d4:	004aa483          	lw	s1,4(s5)
   105d8:	fff48493          	addi	s1,s1,-1
   105dc:	0204ca63          	bltz	s1,10610 <_fwalk_sglue+0x7c>
   105e0:	008aa403          	lw	s0,8(s5)
   105e4:	00c45783          	lhu	a5,12(s0)
   105e8:	00f9fe63          	bgeu	s3,a5,10604 <_fwalk_sglue+0x70>
   105ec:	00e41783          	lh	a5,14(s0)
   105f0:	00040593          	mv	a1,s0
   105f4:	000b0513          	mv	a0,s6
   105f8:	01278663          	beq	a5,s2,10604 <_fwalk_sglue+0x70>
   105fc:	000b80e7          	jalr	s7
   10600:	00aa6a33          	or	s4,s4,a0
   10604:	fff48493          	addi	s1,s1,-1
   10608:	06840413          	addi	s0,s0,104
   1060c:	fd249ce3          	bne	s1,s2,105e4 <_fwalk_sglue+0x50>
   10610:	000aaa83          	lw	s5,0(s5)
   10614:	fc0a90e3          	bnez	s5,105d4 <_fwalk_sglue+0x40>
   10618:	02c12083          	lw	ra,44(sp)
   1061c:	02812403          	lw	s0,40(sp)
   10620:	02412483          	lw	s1,36(sp)
   10624:	02012903          	lw	s2,32(sp)
   10628:	01c12983          	lw	s3,28(sp)
   1062c:	01412a83          	lw	s5,20(sp)
   10630:	01012b03          	lw	s6,16(sp)
   10634:	00c12b83          	lw	s7,12(sp)
   10638:	000a0513          	mv	a0,s4
   1063c:	01812a03          	lw	s4,24(sp)
   10640:	03010113          	addi	sp,sp,48
   10644:	00008067          	ret

00010648 <_printf_r>:
   10648:	fc010113          	addi	sp,sp,-64
   1064c:	00058e13          	mv	t3,a1
   10650:	00852583          	lw	a1,8(a0)
   10654:	02810313          	addi	t1,sp,40
   10658:	02c12423          	sw	a2,40(sp)
   1065c:	02d12623          	sw	a3,44(sp)
   10660:	000e0613          	mv	a2,t3
   10664:	00030693          	mv	a3,t1
   10668:	00112e23          	sw	ra,28(sp)
   1066c:	02e12823          	sw	a4,48(sp)
   10670:	02f12a23          	sw	a5,52(sp)
   10674:	03012c23          	sw	a6,56(sp)
   10678:	03112e23          	sw	a7,60(sp)
   1067c:	00612623          	sw	t1,12(sp)
   10680:	390010ef          	jal	11a10 <_vfprintf_r>
   10684:	01c12083          	lw	ra,28(sp)
   10688:	04010113          	addi	sp,sp,64
   1068c:	00008067          	ret

00010690 <printf>:
   10690:	f2c1a303          	lw	t1,-212(gp) # 23aac <_impure_ptr>
   10694:	fc010113          	addi	sp,sp,-64
   10698:	02c12423          	sw	a2,40(sp)
   1069c:	02d12623          	sw	a3,44(sp)
   106a0:	02b12223          	sw	a1,36(sp)
   106a4:	02e12823          	sw	a4,48(sp)
   106a8:	02f12a23          	sw	a5,52(sp)
   106ac:	03012c23          	sw	a6,56(sp)
   106b0:	03112e23          	sw	a7,60(sp)
   106b4:	00832583          	lw	a1,8(t1) # 101c0 <frame_dummy+0x1c>
   106b8:	02410693          	addi	a3,sp,36
   106bc:	00050613          	mv	a2,a0
   106c0:	00030513          	mv	a0,t1
   106c4:	00112e23          	sw	ra,28(sp)
   106c8:	00d12623          	sw	a3,12(sp)
   106cc:	344010ef          	jal	11a10 <_vfprintf_r>
   106d0:	01c12083          	lw	ra,28(sp)
   106d4:	04010113          	addi	sp,sp,64
   106d8:	00008067          	ret

000106dc <__sread>:
   106dc:	ff010113          	addi	sp,sp,-16
   106e0:	00812423          	sw	s0,8(sp)
   106e4:	00058413          	mv	s0,a1
   106e8:	00e59583          	lh	a1,14(a1)
   106ec:	00112623          	sw	ra,12(sp)
   106f0:	2ec000ef          	jal	109dc <_read_r>
   106f4:	02054063          	bltz	a0,10714 <__sread+0x38>
   106f8:	05042783          	lw	a5,80(s0)
   106fc:	00c12083          	lw	ra,12(sp)
   10700:	00a787b3          	add	a5,a5,a0
   10704:	04f42823          	sw	a5,80(s0)
   10708:	00812403          	lw	s0,8(sp)
   1070c:	01010113          	addi	sp,sp,16
   10710:	00008067          	ret
   10714:	00c45783          	lhu	a5,12(s0)
   10718:	fffff737          	lui	a4,0xfffff
   1071c:	fff70713          	addi	a4,a4,-1 # ffffefff <__BSS_END__+0xfffdb21b>
   10720:	00e7f7b3          	and	a5,a5,a4
   10724:	00c12083          	lw	ra,12(sp)
   10728:	00f41623          	sh	a5,12(s0)
   1072c:	00812403          	lw	s0,8(sp)
   10730:	01010113          	addi	sp,sp,16
   10734:	00008067          	ret

00010738 <__seofread>:
   10738:	00000513          	li	a0,0
   1073c:	00008067          	ret

00010740 <__swrite>:
   10740:	00c59783          	lh	a5,12(a1)
   10744:	fe010113          	addi	sp,sp,-32
   10748:	00068313          	mv	t1,a3
   1074c:	00112e23          	sw	ra,28(sp)
   10750:	1007f693          	andi	a3,a5,256
   10754:	00058713          	mv	a4,a1
   10758:	00060893          	mv	a7,a2
   1075c:	00050813          	mv	a6,a0
   10760:	02069863          	bnez	a3,10790 <__swrite+0x50>
   10764:	fffff6b7          	lui	a3,0xfffff
   10768:	fff68693          	addi	a3,a3,-1 # ffffefff <__BSS_END__+0xfffdb21b>
   1076c:	01c12083          	lw	ra,28(sp)
   10770:	00d7f7b3          	and	a5,a5,a3
   10774:	00e71583          	lh	a1,14(a4)
   10778:	00f71623          	sh	a5,12(a4)
   1077c:	00030693          	mv	a3,t1
   10780:	00088613          	mv	a2,a7
   10784:	00080513          	mv	a0,a6
   10788:	02010113          	addi	sp,sp,32
   1078c:	2b80006f          	j	10a44 <_write_r>
   10790:	00e59583          	lh	a1,14(a1)
   10794:	00c12423          	sw	a2,8(sp)
   10798:	00200693          	li	a3,2
   1079c:	00000613          	li	a2,0
   107a0:	00612623          	sw	t1,12(sp)
   107a4:	00e12023          	sw	a4,0(sp)
   107a8:	00a12223          	sw	a0,4(sp)
   107ac:	1c8000ef          	jal	10974 <_lseek_r>
   107b0:	00012703          	lw	a4,0(sp)
   107b4:	00c12303          	lw	t1,12(sp)
   107b8:	00812883          	lw	a7,8(sp)
   107bc:	00c71783          	lh	a5,12(a4)
   107c0:	00412803          	lw	a6,4(sp)
   107c4:	fa1ff06f          	j	10764 <__swrite+0x24>

000107c8 <__sseek>:
   107c8:	ff010113          	addi	sp,sp,-16
   107cc:	00812423          	sw	s0,8(sp)
   107d0:	00058413          	mv	s0,a1
   107d4:	00e59583          	lh	a1,14(a1)
   107d8:	00112623          	sw	ra,12(sp)
   107dc:	198000ef          	jal	10974 <_lseek_r>
   107e0:	fff00713          	li	a4,-1
   107e4:	00c41783          	lh	a5,12(s0)
   107e8:	02e50263          	beq	a0,a4,1080c <__sseek+0x44>
   107ec:	00001737          	lui	a4,0x1
   107f0:	00e7e7b3          	or	a5,a5,a4
   107f4:	00c12083          	lw	ra,12(sp)
   107f8:	04a42823          	sw	a0,80(s0)
   107fc:	00f41623          	sh	a5,12(s0)
   10800:	00812403          	lw	s0,8(sp)
   10804:	01010113          	addi	sp,sp,16
   10808:	00008067          	ret
   1080c:	80050713          	addi	a4,a0,-2048
   10810:	80070713          	addi	a4,a4,-2048 # 800 <exit-0xf8b4>
   10814:	00e7f7b3          	and	a5,a5,a4
   10818:	00c12083          	lw	ra,12(sp)
   1081c:	00f41623          	sh	a5,12(s0)
   10820:	00812403          	lw	s0,8(sp)
   10824:	01010113          	addi	sp,sp,16
   10828:	00008067          	ret

0001082c <__sclose>:
   1082c:	00e59583          	lh	a1,14(a1)
   10830:	0040006f          	j	10834 <_close_r>

00010834 <_close_r>:
   10834:	ff010113          	addi	sp,sp,-16
   10838:	00812423          	sw	s0,8(sp)
   1083c:	00912223          	sw	s1,4(sp)
   10840:	00050493          	mv	s1,a0
   10844:	00058513          	mv	a0,a1
   10848:	00112623          	sw	ra,12(sp)
   1084c:	f201ae23          	sw	zero,-196(gp) # 23abc <errno>
   10850:	3ec0b0ef          	jal	1bc3c <_close>
   10854:	fff00793          	li	a5,-1
   10858:	00f50c63          	beq	a0,a5,10870 <_close_r+0x3c>
   1085c:	00c12083          	lw	ra,12(sp)
   10860:	00812403          	lw	s0,8(sp)
   10864:	00412483          	lw	s1,4(sp)
   10868:	01010113          	addi	sp,sp,16
   1086c:	00008067          	ret
   10870:	f3c1a783          	lw	a5,-196(gp) # 23abc <errno>
   10874:	fe0784e3          	beqz	a5,1085c <_close_r+0x28>
   10878:	00c12083          	lw	ra,12(sp)
   1087c:	00812403          	lw	s0,8(sp)
   10880:	00f4a023          	sw	a5,0(s1)
   10884:	00412483          	lw	s1,4(sp)
   10888:	01010113          	addi	sp,sp,16
   1088c:	00008067          	ret

00010890 <_reclaim_reent>:
   10890:	f2c1a783          	lw	a5,-212(gp) # 23aac <_impure_ptr>
   10894:	0ca78e63          	beq	a5,a0,10970 <_reclaim_reent+0xe0>
   10898:	04452583          	lw	a1,68(a0)
   1089c:	fe010113          	addi	sp,sp,-32
   108a0:	00912a23          	sw	s1,20(sp)
   108a4:	00112e23          	sw	ra,28(sp)
   108a8:	00812c23          	sw	s0,24(sp)
   108ac:	00050493          	mv	s1,a0
   108b0:	04058863          	beqz	a1,10900 <_reclaim_reent+0x70>
   108b4:	01212823          	sw	s2,16(sp)
   108b8:	01312623          	sw	s3,12(sp)
   108bc:	00000913          	li	s2,0
   108c0:	08000993          	li	s3,128
   108c4:	012587b3          	add	a5,a1,s2
   108c8:	0007a403          	lw	s0,0(a5)
   108cc:	00040e63          	beqz	s0,108e8 <_reclaim_reent+0x58>
   108d0:	00040593          	mv	a1,s0
   108d4:	00042403          	lw	s0,0(s0)
   108d8:	00048513          	mv	a0,s1
   108dc:	5c8000ef          	jal	10ea4 <_free_r>
   108e0:	fe0418e3          	bnez	s0,108d0 <_reclaim_reent+0x40>
   108e4:	0444a583          	lw	a1,68(s1)
   108e8:	00490913          	addi	s2,s2,4
   108ec:	fd391ce3          	bne	s2,s3,108c4 <_reclaim_reent+0x34>
   108f0:	00048513          	mv	a0,s1
   108f4:	5b0000ef          	jal	10ea4 <_free_r>
   108f8:	01012903          	lw	s2,16(sp)
   108fc:	00c12983          	lw	s3,12(sp)
   10900:	0384a583          	lw	a1,56(s1)
   10904:	00058663          	beqz	a1,10910 <_reclaim_reent+0x80>
   10908:	00048513          	mv	a0,s1
   1090c:	598000ef          	jal	10ea4 <_free_r>
   10910:	0404a403          	lw	s0,64(s1)
   10914:	00040c63          	beqz	s0,1092c <_reclaim_reent+0x9c>
   10918:	00040593          	mv	a1,s0
   1091c:	00042403          	lw	s0,0(s0)
   10920:	00048513          	mv	a0,s1
   10924:	580000ef          	jal	10ea4 <_free_r>
   10928:	fe0418e3          	bnez	s0,10918 <_reclaim_reent+0x88>
   1092c:	04c4a583          	lw	a1,76(s1)
   10930:	00058663          	beqz	a1,1093c <_reclaim_reent+0xac>
   10934:	00048513          	mv	a0,s1
   10938:	56c000ef          	jal	10ea4 <_free_r>
   1093c:	0344a783          	lw	a5,52(s1)
   10940:	00078e63          	beqz	a5,1095c <_reclaim_reent+0xcc>
   10944:	01812403          	lw	s0,24(sp)
   10948:	01c12083          	lw	ra,28(sp)
   1094c:	00048513          	mv	a0,s1
   10950:	01412483          	lw	s1,20(sp)
   10954:	02010113          	addi	sp,sp,32
   10958:	00078067          	jr	a5
   1095c:	01c12083          	lw	ra,28(sp)
   10960:	01812403          	lw	s0,24(sp)
   10964:	01412483          	lw	s1,20(sp)
   10968:	02010113          	addi	sp,sp,32
   1096c:	00008067          	ret
   10970:	00008067          	ret

00010974 <_lseek_r>:
   10974:	ff010113          	addi	sp,sp,-16
   10978:	00058793          	mv	a5,a1
   1097c:	00812423          	sw	s0,8(sp)
   10980:	00912223          	sw	s1,4(sp)
   10984:	00060593          	mv	a1,a2
   10988:	00050493          	mv	s1,a0
   1098c:	00068613          	mv	a2,a3
   10990:	00078513          	mv	a0,a5
   10994:	00112623          	sw	ra,12(sp)
   10998:	f201ae23          	sw	zero,-196(gp) # 23abc <errno>
   1099c:	3dc0b0ef          	jal	1bd78 <_lseek>
   109a0:	fff00793          	li	a5,-1
   109a4:	00f50c63          	beq	a0,a5,109bc <_lseek_r+0x48>
   109a8:	00c12083          	lw	ra,12(sp)
   109ac:	00812403          	lw	s0,8(sp)
   109b0:	00412483          	lw	s1,4(sp)
   109b4:	01010113          	addi	sp,sp,16
   109b8:	00008067          	ret
   109bc:	f3c1a783          	lw	a5,-196(gp) # 23abc <errno>
   109c0:	fe0784e3          	beqz	a5,109a8 <_lseek_r+0x34>
   109c4:	00c12083          	lw	ra,12(sp)
   109c8:	00812403          	lw	s0,8(sp)
   109cc:	00f4a023          	sw	a5,0(s1)
   109d0:	00412483          	lw	s1,4(sp)
   109d4:	01010113          	addi	sp,sp,16
   109d8:	00008067          	ret

000109dc <_read_r>:
   109dc:	ff010113          	addi	sp,sp,-16
   109e0:	00058793          	mv	a5,a1
   109e4:	00812423          	sw	s0,8(sp)
   109e8:	00912223          	sw	s1,4(sp)
   109ec:	00060593          	mv	a1,a2
   109f0:	00050493          	mv	s1,a0
   109f4:	00068613          	mv	a2,a3
   109f8:	00078513          	mv	a0,a5
   109fc:	00112623          	sw	ra,12(sp)
   10a00:	f201ae23          	sw	zero,-196(gp) # 23abc <errno>
   10a04:	3b40b0ef          	jal	1bdb8 <_read>
   10a08:	fff00793          	li	a5,-1
   10a0c:	00f50c63          	beq	a0,a5,10a24 <_read_r+0x48>
   10a10:	00c12083          	lw	ra,12(sp)
   10a14:	00812403          	lw	s0,8(sp)
   10a18:	00412483          	lw	s1,4(sp)
   10a1c:	01010113          	addi	sp,sp,16
   10a20:	00008067          	ret
   10a24:	f3c1a783          	lw	a5,-196(gp) # 23abc <errno>
   10a28:	fe0784e3          	beqz	a5,10a10 <_read_r+0x34>
   10a2c:	00c12083          	lw	ra,12(sp)
   10a30:	00812403          	lw	s0,8(sp)
   10a34:	00f4a023          	sw	a5,0(s1)
   10a38:	00412483          	lw	s1,4(sp)
   10a3c:	01010113          	addi	sp,sp,16
   10a40:	00008067          	ret

00010a44 <_write_r>:
   10a44:	ff010113          	addi	sp,sp,-16
   10a48:	00058793          	mv	a5,a1
   10a4c:	00812423          	sw	s0,8(sp)
   10a50:	00912223          	sw	s1,4(sp)
   10a54:	00060593          	mv	a1,a2
   10a58:	00050493          	mv	s1,a0
   10a5c:	00068613          	mv	a2,a3
   10a60:	00078513          	mv	a0,a5
   10a64:	00112623          	sw	ra,12(sp)
   10a68:	f201ae23          	sw	zero,-196(gp) # 23abc <errno>
   10a6c:	4040b0ef          	jal	1be70 <_write>
   10a70:	fff00793          	li	a5,-1
   10a74:	00f50c63          	beq	a0,a5,10a8c <_write_r+0x48>
   10a78:	00c12083          	lw	ra,12(sp)
   10a7c:	00812403          	lw	s0,8(sp)
   10a80:	00412483          	lw	s1,4(sp)
   10a84:	01010113          	addi	sp,sp,16
   10a88:	00008067          	ret
   10a8c:	f3c1a783          	lw	a5,-196(gp) # 23abc <errno>
   10a90:	fe0784e3          	beqz	a5,10a78 <_write_r+0x34>
   10a94:	00c12083          	lw	ra,12(sp)
   10a98:	00812403          	lw	s0,8(sp)
   10a9c:	00f4a023          	sw	a5,0(s1)
   10aa0:	00412483          	lw	s1,4(sp)
   10aa4:	01010113          	addi	sp,sp,16
   10aa8:	00008067          	ret

00010aac <__libc_init_array>:
   10aac:	ff010113          	addi	sp,sp,-16
   10ab0:	00812423          	sw	s0,8(sp)
   10ab4:	01212023          	sw	s2,0(sp)
   10ab8:	00023437          	lui	s0,0x23
   10abc:	00023937          	lui	s2,0x23
   10ac0:	00112623          	sw	ra,12(sp)
   10ac4:	00912223          	sw	s1,4(sp)
   10ac8:	37490913          	addi	s2,s2,884 # 23374 <__init_array_start>
   10acc:	37440413          	addi	s0,s0,884 # 23374 <__init_array_start>
   10ad0:	02890263          	beq	s2,s0,10af4 <__libc_init_array+0x48>
   10ad4:	40890933          	sub	s2,s2,s0
   10ad8:	40295913          	srai	s2,s2,0x2
   10adc:	00000493          	li	s1,0
   10ae0:	00042783          	lw	a5,0(s0)
   10ae4:	00148493          	addi	s1,s1,1
   10ae8:	00440413          	addi	s0,s0,4
   10aec:	000780e7          	jalr	a5
   10af0:	ff24e8e3          	bltu	s1,s2,10ae0 <__libc_init_array+0x34>
   10af4:	00023937          	lui	s2,0x23
   10af8:	00023437          	lui	s0,0x23
   10afc:	37c90913          	addi	s2,s2,892 # 2337c <__do_global_dtors_aux_fini_array_entry>
   10b00:	37440413          	addi	s0,s0,884 # 23374 <__init_array_start>
   10b04:	02890263          	beq	s2,s0,10b28 <__libc_init_array+0x7c>
   10b08:	40890933          	sub	s2,s2,s0
   10b0c:	40295913          	srai	s2,s2,0x2
   10b10:	00000493          	li	s1,0
   10b14:	00042783          	lw	a5,0(s0)
   10b18:	00148493          	addi	s1,s1,1
   10b1c:	00440413          	addi	s0,s0,4
   10b20:	000780e7          	jalr	a5
   10b24:	ff24e8e3          	bltu	s1,s2,10b14 <__libc_init_array+0x68>
   10b28:	00c12083          	lw	ra,12(sp)
   10b2c:	00812403          	lw	s0,8(sp)
   10b30:	00412483          	lw	s1,4(sp)
   10b34:	00012903          	lw	s2,0(sp)
   10b38:	01010113          	addi	sp,sp,16
   10b3c:	00008067          	ret

00010b40 <memset>:
   10b40:	00f00313          	li	t1,15
   10b44:	00050713          	mv	a4,a0
   10b48:	02c37e63          	bgeu	t1,a2,10b84 <memset+0x44>
   10b4c:	00f77793          	andi	a5,a4,15
   10b50:	0a079063          	bnez	a5,10bf0 <memset+0xb0>
   10b54:	08059263          	bnez	a1,10bd8 <memset+0x98>
   10b58:	ff067693          	andi	a3,a2,-16
   10b5c:	00f67613          	andi	a2,a2,15
   10b60:	00e686b3          	add	a3,a3,a4
   10b64:	00b72023          	sw	a1,0(a4)
   10b68:	00b72223          	sw	a1,4(a4)
   10b6c:	00b72423          	sw	a1,8(a4)
   10b70:	00b72623          	sw	a1,12(a4)
   10b74:	01070713          	addi	a4,a4,16
   10b78:	fed766e3          	bltu	a4,a3,10b64 <memset+0x24>
   10b7c:	00061463          	bnez	a2,10b84 <memset+0x44>
   10b80:	00008067          	ret
   10b84:	40c306b3          	sub	a3,t1,a2
   10b88:	00269693          	slli	a3,a3,0x2
   10b8c:	00000297          	auipc	t0,0x0
   10b90:	005686b3          	add	a3,a3,t0
   10b94:	00c68067          	jr	12(a3)
   10b98:	00b70723          	sb	a1,14(a4)
   10b9c:	00b706a3          	sb	a1,13(a4)
   10ba0:	00b70623          	sb	a1,12(a4)
   10ba4:	00b705a3          	sb	a1,11(a4)
   10ba8:	00b70523          	sb	a1,10(a4)
   10bac:	00b704a3          	sb	a1,9(a4)
   10bb0:	00b70423          	sb	a1,8(a4)
   10bb4:	00b703a3          	sb	a1,7(a4)
   10bb8:	00b70323          	sb	a1,6(a4)
   10bbc:	00b702a3          	sb	a1,5(a4)
   10bc0:	00b70223          	sb	a1,4(a4)
   10bc4:	00b701a3          	sb	a1,3(a4)
   10bc8:	00b70123          	sb	a1,2(a4)
   10bcc:	00b700a3          	sb	a1,1(a4)
   10bd0:	00b70023          	sb	a1,0(a4)
   10bd4:	00008067          	ret
   10bd8:	0ff5f593          	zext.b	a1,a1
   10bdc:	00859693          	slli	a3,a1,0x8
   10be0:	00d5e5b3          	or	a1,a1,a3
   10be4:	01059693          	slli	a3,a1,0x10
   10be8:	00d5e5b3          	or	a1,a1,a3
   10bec:	f6dff06f          	j	10b58 <memset+0x18>
   10bf0:	00279693          	slli	a3,a5,0x2
   10bf4:	00000297          	auipc	t0,0x0
   10bf8:	005686b3          	add	a3,a3,t0
   10bfc:	00008293          	mv	t0,ra
   10c00:	fa0680e7          	jalr	-96(a3)
   10c04:	00028093          	mv	ra,t0
   10c08:	ff078793          	addi	a5,a5,-16
   10c0c:	40f70733          	sub	a4,a4,a5
   10c10:	00f60633          	add	a2,a2,a5
   10c14:	f6c378e3          	bgeu	t1,a2,10b84 <memset+0x44>
   10c18:	f3dff06f          	j	10b54 <memset+0x14>

00010c1c <__call_exitprocs>:
   10c1c:	fd010113          	addi	sp,sp,-48
   10c20:	01412c23          	sw	s4,24(sp)
   10c24:	03212023          	sw	s2,32(sp)
   10c28:	f401a903          	lw	s2,-192(gp) # 23ac0 <__atexit>
   10c2c:	02112623          	sw	ra,44(sp)
   10c30:	0a090863          	beqz	s2,10ce0 <__call_exitprocs+0xc4>
   10c34:	01312e23          	sw	s3,28(sp)
   10c38:	01512a23          	sw	s5,20(sp)
   10c3c:	01612823          	sw	s6,16(sp)
   10c40:	01712623          	sw	s7,12(sp)
   10c44:	02812423          	sw	s0,40(sp)
   10c48:	02912223          	sw	s1,36(sp)
   10c4c:	01812423          	sw	s8,8(sp)
   10c50:	00050b13          	mv	s6,a0
   10c54:	00058b93          	mv	s7,a1
   10c58:	fff00993          	li	s3,-1
   10c5c:	00100a93          	li	s5,1
   10c60:	00492483          	lw	s1,4(s2)
   10c64:	fff48413          	addi	s0,s1,-1
   10c68:	04044e63          	bltz	s0,10cc4 <__call_exitprocs+0xa8>
   10c6c:	00249493          	slli	s1,s1,0x2
   10c70:	009904b3          	add	s1,s2,s1
   10c74:	080b9063          	bnez	s7,10cf4 <__call_exitprocs+0xd8>
   10c78:	00492783          	lw	a5,4(s2)
   10c7c:	0044a683          	lw	a3,4(s1)
   10c80:	fff78793          	addi	a5,a5,-1
   10c84:	0c878463          	beq	a5,s0,10d4c <__call_exitprocs+0x130>
   10c88:	0004a223          	sw	zero,4(s1)
   10c8c:	02068663          	beqz	a3,10cb8 <__call_exitprocs+0x9c>
   10c90:	18892783          	lw	a5,392(s2)
   10c94:	008a9733          	sll	a4,s5,s0
   10c98:	00492c03          	lw	s8,4(s2)
   10c9c:	00f777b3          	and	a5,a4,a5
   10ca0:	06079e63          	bnez	a5,10d1c <__call_exitprocs+0x100>
   10ca4:	000680e7          	jalr	a3
   10ca8:	00492703          	lw	a4,4(s2)
   10cac:	f401a783          	lw	a5,-192(gp) # 23ac0 <__atexit>
   10cb0:	09871863          	bne	a4,s8,10d40 <__call_exitprocs+0x124>
   10cb4:	09279663          	bne	a5,s2,10d40 <__call_exitprocs+0x124>
   10cb8:	fff40413          	addi	s0,s0,-1
   10cbc:	ffc48493          	addi	s1,s1,-4
   10cc0:	fb341ae3          	bne	s0,s3,10c74 <__call_exitprocs+0x58>
   10cc4:	02812403          	lw	s0,40(sp)
   10cc8:	02412483          	lw	s1,36(sp)
   10ccc:	01c12983          	lw	s3,28(sp)
   10cd0:	01412a83          	lw	s5,20(sp)
   10cd4:	01012b03          	lw	s6,16(sp)
   10cd8:	00c12b83          	lw	s7,12(sp)
   10cdc:	00812c03          	lw	s8,8(sp)
   10ce0:	02c12083          	lw	ra,44(sp)
   10ce4:	02012903          	lw	s2,32(sp)
   10ce8:	01812a03          	lw	s4,24(sp)
   10cec:	03010113          	addi	sp,sp,48
   10cf0:	00008067          	ret
   10cf4:	1044a783          	lw	a5,260(s1)
   10cf8:	fff40713          	addi	a4,s0,-1
   10cfc:	f6fb8ee3          	beq	s7,a5,10c78 <__call_exitprocs+0x5c>
   10d00:	ffe40413          	addi	s0,s0,-2
   10d04:	fd3700e3          	beq	a4,s3,10cc4 <__call_exitprocs+0xa8>
   10d08:	1004a783          	lw	a5,256(s1)
   10d0c:	05778463          	beq	a5,s7,10d54 <__call_exitprocs+0x138>
   10d10:	ff848493          	addi	s1,s1,-8
   10d14:	ff3410e3          	bne	s0,s3,10cf4 <__call_exitprocs+0xd8>
   10d18:	fadff06f          	j	10cc4 <__call_exitprocs+0xa8>
   10d1c:	18c92783          	lw	a5,396(s2)
   10d20:	0844a583          	lw	a1,132(s1)
   10d24:	00f77733          	and	a4,a4,a5
   10d28:	02071c63          	bnez	a4,10d60 <__call_exitprocs+0x144>
   10d2c:	000b0513          	mv	a0,s6
   10d30:	000680e7          	jalr	a3
   10d34:	00492703          	lw	a4,4(s2)
   10d38:	f401a783          	lw	a5,-192(gp) # 23ac0 <__atexit>
   10d3c:	f7870ce3          	beq	a4,s8,10cb4 <__call_exitprocs+0x98>
   10d40:	f80782e3          	beqz	a5,10cc4 <__call_exitprocs+0xa8>
   10d44:	00078913          	mv	s2,a5
   10d48:	f19ff06f          	j	10c60 <__call_exitprocs+0x44>
   10d4c:	00892223          	sw	s0,4(s2)
   10d50:	f3dff06f          	j	10c8c <__call_exitprocs+0x70>
   10d54:	00070413          	mv	s0,a4
   10d58:	ffc48493          	addi	s1,s1,-4
   10d5c:	f1dff06f          	j	10c78 <__call_exitprocs+0x5c>
   10d60:	00058513          	mv	a0,a1
   10d64:	000680e7          	jalr	a3
   10d68:	f41ff06f          	j	10ca8 <__call_exitprocs+0x8c>

00010d6c <atexit>:
   10d6c:	00050593          	mv	a1,a0
   10d70:	00000693          	li	a3,0
   10d74:	00000613          	li	a2,0
   10d78:	00000513          	li	a0,0
   10d7c:	66d0406f          	j	15be8 <__register_exitproc>

00010d80 <_malloc_trim_r>:
   10d80:	fe010113          	addi	sp,sp,-32
   10d84:	01212823          	sw	s2,16(sp)
   10d88:	00023937          	lui	s2,0x23
   10d8c:	00812c23          	sw	s0,24(sp)
   10d90:	00912a23          	sw	s1,20(sp)
   10d94:	01312623          	sw	s3,12(sp)
   10d98:	00058413          	mv	s0,a1
   10d9c:	00112e23          	sw	ra,28(sp)
   10da0:	00050993          	mv	s3,a0
   10da4:	4d090913          	addi	s2,s2,1232 # 234d0 <__malloc_av_>
   10da8:	461000ef          	jal	11a08 <__malloc_lock>
   10dac:	00892783          	lw	a5,8(s2)
   10db0:	00001737          	lui	a4,0x1
   10db4:	0047a483          	lw	s1,4(a5)
   10db8:	ffc4f493          	andi	s1,s1,-4
   10dbc:	7ff48793          	addi	a5,s1,2047
   10dc0:	7f078793          	addi	a5,a5,2032
   10dc4:	40878433          	sub	s0,a5,s0
   10dc8:	00c45413          	srli	s0,s0,0xc
   10dcc:	fff40413          	addi	s0,s0,-1
   10dd0:	00c41413          	slli	s0,s0,0xc
   10dd4:	00e44e63          	blt	s0,a4,10df0 <_malloc_trim_r+0x70>
   10dd8:	00000593          	li	a1,0
   10ddc:	00098513          	mv	a0,s3
   10de0:	0f5040ef          	jal	156d4 <_sbrk_r>
   10de4:	00892783          	lw	a5,8(s2)
   10de8:	009787b3          	add	a5,a5,s1
   10dec:	02f50663          	beq	a0,a5,10e18 <_malloc_trim_r+0x98>
   10df0:	00098513          	mv	a0,s3
   10df4:	419000ef          	jal	11a0c <__malloc_unlock>
   10df8:	01c12083          	lw	ra,28(sp)
   10dfc:	01812403          	lw	s0,24(sp)
   10e00:	01412483          	lw	s1,20(sp)
   10e04:	01012903          	lw	s2,16(sp)
   10e08:	00c12983          	lw	s3,12(sp)
   10e0c:	00000513          	li	a0,0
   10e10:	02010113          	addi	sp,sp,32
   10e14:	00008067          	ret
   10e18:	408005b3          	neg	a1,s0
   10e1c:	00098513          	mv	a0,s3
   10e20:	0b5040ef          	jal	156d4 <_sbrk_r>
   10e24:	fff00793          	li	a5,-1
   10e28:	04f50463          	beq	a0,a5,10e70 <_malloc_trim_r+0xf0>
   10e2c:	00892683          	lw	a3,8(s2)
   10e30:	0ac1a783          	lw	a5,172(gp) # 23c2c <__malloc_current_mallinfo>
   10e34:	408484b3          	sub	s1,s1,s0
   10e38:	0014e493          	ori	s1,s1,1
   10e3c:	00098513          	mv	a0,s3
   10e40:	408787b3          	sub	a5,a5,s0
   10e44:	0096a223          	sw	s1,4(a3)
   10e48:	0af1a623          	sw	a5,172(gp) # 23c2c <__malloc_current_mallinfo>
   10e4c:	3c1000ef          	jal	11a0c <__malloc_unlock>
   10e50:	01c12083          	lw	ra,28(sp)
   10e54:	01812403          	lw	s0,24(sp)
   10e58:	01412483          	lw	s1,20(sp)
   10e5c:	01012903          	lw	s2,16(sp)
   10e60:	00c12983          	lw	s3,12(sp)
   10e64:	00100513          	li	a0,1
   10e68:	02010113          	addi	sp,sp,32
   10e6c:	00008067          	ret
   10e70:	00000593          	li	a1,0
   10e74:	00098513          	mv	a0,s3
   10e78:	05d040ef          	jal	156d4 <_sbrk_r>
   10e7c:	00892703          	lw	a4,8(s2)
   10e80:	00f00693          	li	a3,15
   10e84:	40e507b3          	sub	a5,a0,a4
   10e88:	f6f6d4e3          	bge	a3,a5,10df0 <_malloc_trim_r+0x70>
   10e8c:	f301a603          	lw	a2,-208(gp) # 23ab0 <__malloc_sbrk_base>
   10e90:	0017e793          	ori	a5,a5,1
   10e94:	40c50533          	sub	a0,a0,a2
   10e98:	00f72223          	sw	a5,4(a4) # 1004 <exit-0xf0b0>
   10e9c:	0aa1a623          	sw	a0,172(gp) # 23c2c <__malloc_current_mallinfo>
   10ea0:	f51ff06f          	j	10df0 <_malloc_trim_r+0x70>

00010ea4 <_free_r>:
   10ea4:	12058463          	beqz	a1,10fcc <_free_r+0x128>
   10ea8:	fe010113          	addi	sp,sp,-32
   10eac:	00812c23          	sw	s0,24(sp)
   10eb0:	00b12623          	sw	a1,12(sp)
   10eb4:	00050413          	mv	s0,a0
   10eb8:	00112e23          	sw	ra,28(sp)
   10ebc:	34d000ef          	jal	11a08 <__malloc_lock>
   10ec0:	00c12583          	lw	a1,12(sp)
   10ec4:	00023837          	lui	a6,0x23
   10ec8:	4d080813          	addi	a6,a6,1232 # 234d0 <__malloc_av_>
   10ecc:	ffc5a503          	lw	a0,-4(a1)
   10ed0:	ff858713          	addi	a4,a1,-8
   10ed4:	00882883          	lw	a7,8(a6)
   10ed8:	ffe57793          	andi	a5,a0,-2
   10edc:	00f70633          	add	a2,a4,a5
   10ee0:	00462683          	lw	a3,4(a2)
   10ee4:	00157313          	andi	t1,a0,1
   10ee8:	ffc6f693          	andi	a3,a3,-4
   10eec:	18c88863          	beq	a7,a2,1107c <_free_r+0x1d8>
   10ef0:	00d62223          	sw	a3,4(a2)
   10ef4:	00d608b3          	add	a7,a2,a3
   10ef8:	0048a883          	lw	a7,4(a7)
   10efc:	0018f893          	andi	a7,a7,1
   10f00:	08031a63          	bnez	t1,10f94 <_free_r+0xf0>
   10f04:	ff85a303          	lw	t1,-8(a1)
   10f08:	000235b7          	lui	a1,0x23
   10f0c:	4d858593          	addi	a1,a1,1240 # 234d8 <__malloc_av_+0x8>
   10f10:	40670733          	sub	a4,a4,t1
   10f14:	00872503          	lw	a0,8(a4)
   10f18:	006787b3          	add	a5,a5,t1
   10f1c:	12b50a63          	beq	a0,a1,11050 <_free_r+0x1ac>
   10f20:	00c72303          	lw	t1,12(a4)
   10f24:	00652623          	sw	t1,12(a0)
   10f28:	00a32423          	sw	a0,8(t1)
   10f2c:	18088c63          	beqz	a7,110c4 <_free_r+0x220>
   10f30:	0017e693          	ori	a3,a5,1
   10f34:	00d72223          	sw	a3,4(a4)
   10f38:	00f62023          	sw	a5,0(a2)
   10f3c:	1ff00693          	li	a3,511
   10f40:	0af6e263          	bltu	a3,a5,10fe4 <_free_r+0x140>
   10f44:	ff87f693          	andi	a3,a5,-8
   10f48:	00868693          	addi	a3,a3,8
   10f4c:	00482583          	lw	a1,4(a6)
   10f50:	00d806b3          	add	a3,a6,a3
   10f54:	0006a603          	lw	a2,0(a3)
   10f58:	0057d513          	srli	a0,a5,0x5
   10f5c:	00100793          	li	a5,1
   10f60:	00a797b3          	sll	a5,a5,a0
   10f64:	00b7e7b3          	or	a5,a5,a1
   10f68:	ff868593          	addi	a1,a3,-8
   10f6c:	00c72423          	sw	a2,8(a4)
   10f70:	00b72623          	sw	a1,12(a4)
   10f74:	00f82223          	sw	a5,4(a6)
   10f78:	00e6a023          	sw	a4,0(a3)
   10f7c:	00e62623          	sw	a4,12(a2)
   10f80:	00040513          	mv	a0,s0
   10f84:	01812403          	lw	s0,24(sp)
   10f88:	01c12083          	lw	ra,28(sp)
   10f8c:	02010113          	addi	sp,sp,32
   10f90:	27d0006f          	j	11a0c <__malloc_unlock>
   10f94:	02089e63          	bnez	a7,10fd0 <_free_r+0x12c>
   10f98:	000235b7          	lui	a1,0x23
   10f9c:	00d787b3          	add	a5,a5,a3
   10fa0:	4d858593          	addi	a1,a1,1240 # 234d8 <__malloc_av_+0x8>
   10fa4:	00862683          	lw	a3,8(a2)
   10fa8:	0017e893          	ori	a7,a5,1
   10fac:	00f70533          	add	a0,a4,a5
   10fb0:	16b68063          	beq	a3,a1,11110 <_free_r+0x26c>
   10fb4:	00c62603          	lw	a2,12(a2)
   10fb8:	00c6a623          	sw	a2,12(a3)
   10fbc:	00d62423          	sw	a3,8(a2)
   10fc0:	01172223          	sw	a7,4(a4)
   10fc4:	00f52023          	sw	a5,0(a0)
   10fc8:	f75ff06f          	j	10f3c <_free_r+0x98>
   10fcc:	00008067          	ret
   10fd0:	00156513          	ori	a0,a0,1
   10fd4:	fea5ae23          	sw	a0,-4(a1)
   10fd8:	00f62023          	sw	a5,0(a2)
   10fdc:	1ff00693          	li	a3,511
   10fe0:	f6f6f2e3          	bgeu	a3,a5,10f44 <_free_r+0xa0>
   10fe4:	0097d693          	srli	a3,a5,0x9
   10fe8:	00400613          	li	a2,4
   10fec:	0ed66063          	bltu	a2,a3,110cc <_free_r+0x228>
   10ff0:	0067d693          	srli	a3,a5,0x6
   10ff4:	03968593          	addi	a1,a3,57
   10ff8:	00359593          	slli	a1,a1,0x3
   10ffc:	03868613          	addi	a2,a3,56
   11000:	00b805b3          	add	a1,a6,a1
   11004:	0005a683          	lw	a3,0(a1)
   11008:	ff858593          	addi	a1,a1,-8
   1100c:	00d59863          	bne	a1,a3,1101c <_free_r+0x178>
   11010:	11c0006f          	j	1112c <_free_r+0x288>
   11014:	0086a683          	lw	a3,8(a3)
   11018:	00d58863          	beq	a1,a3,11028 <_free_r+0x184>
   1101c:	0046a603          	lw	a2,4(a3)
   11020:	ffc67613          	andi	a2,a2,-4
   11024:	fec7e8e3          	bltu	a5,a2,11014 <_free_r+0x170>
   11028:	00c6a583          	lw	a1,12(a3)
   1102c:	00b72623          	sw	a1,12(a4)
   11030:	00d72423          	sw	a3,8(a4)
   11034:	00040513          	mv	a0,s0
   11038:	01812403          	lw	s0,24(sp)
   1103c:	01c12083          	lw	ra,28(sp)
   11040:	00e5a423          	sw	a4,8(a1)
   11044:	00e6a623          	sw	a4,12(a3)
   11048:	02010113          	addi	sp,sp,32
   1104c:	1c10006f          	j	11a0c <__malloc_unlock>
   11050:	0a089063          	bnez	a7,110f0 <_free_r+0x24c>
   11054:	00c62583          	lw	a1,12(a2)
   11058:	00862603          	lw	a2,8(a2)
   1105c:	00f686b3          	add	a3,a3,a5
   11060:	0016e793          	ori	a5,a3,1
   11064:	00b62623          	sw	a1,12(a2)
   11068:	00c5a423          	sw	a2,8(a1)
   1106c:	00f72223          	sw	a5,4(a4)
   11070:	00d70733          	add	a4,a4,a3
   11074:	00d72023          	sw	a3,0(a4)
   11078:	f09ff06f          	j	10f80 <_free_r+0xdc>
   1107c:	00d786b3          	add	a3,a5,a3
   11080:	02031063          	bnez	t1,110a0 <_free_r+0x1fc>
   11084:	ff85a783          	lw	a5,-8(a1)
   11088:	40f70733          	sub	a4,a4,a5
   1108c:	00872603          	lw	a2,8(a4)
   11090:	00f686b3          	add	a3,a3,a5
   11094:	00c72783          	lw	a5,12(a4)
   11098:	00f62623          	sw	a5,12(a2)
   1109c:	00c7a423          	sw	a2,8(a5)
   110a0:	0016e613          	ori	a2,a3,1
   110a4:	f341a783          	lw	a5,-204(gp) # 23ab4 <__malloc_trim_threshold>
   110a8:	00c72223          	sw	a2,4(a4)
   110ac:	00e82423          	sw	a4,8(a6)
   110b0:	ecf6e8e3          	bltu	a3,a5,10f80 <_free_r+0xdc>
   110b4:	f4c1a583          	lw	a1,-180(gp) # 23acc <__malloc_top_pad>
   110b8:	00040513          	mv	a0,s0
   110bc:	cc5ff0ef          	jal	10d80 <_malloc_trim_r>
   110c0:	ec1ff06f          	j	10f80 <_free_r+0xdc>
   110c4:	00d787b3          	add	a5,a5,a3
   110c8:	eddff06f          	j	10fa4 <_free_r+0x100>
   110cc:	01400613          	li	a2,20
   110d0:	02d67863          	bgeu	a2,a3,11100 <_free_r+0x25c>
   110d4:	05400613          	li	a2,84
   110d8:	06d66863          	bltu	a2,a3,11148 <_free_r+0x2a4>
   110dc:	00c7d693          	srli	a3,a5,0xc
   110e0:	06f68593          	addi	a1,a3,111
   110e4:	00359593          	slli	a1,a1,0x3
   110e8:	06e68613          	addi	a2,a3,110
   110ec:	f15ff06f          	j	11000 <_free_r+0x15c>
   110f0:	0017e693          	ori	a3,a5,1
   110f4:	00d72223          	sw	a3,4(a4)
   110f8:	00f62023          	sw	a5,0(a2)
   110fc:	e85ff06f          	j	10f80 <_free_r+0xdc>
   11100:	05c68593          	addi	a1,a3,92
   11104:	00359593          	slli	a1,a1,0x3
   11108:	05b68613          	addi	a2,a3,91
   1110c:	ef5ff06f          	j	11000 <_free_r+0x15c>
   11110:	00e82a23          	sw	a4,20(a6)
   11114:	00e82823          	sw	a4,16(a6)
   11118:	00b72623          	sw	a1,12(a4)
   1111c:	00b72423          	sw	a1,8(a4)
   11120:	01172223          	sw	a7,4(a4)
   11124:	00f52023          	sw	a5,0(a0)
   11128:	e59ff06f          	j	10f80 <_free_r+0xdc>
   1112c:	00482503          	lw	a0,4(a6)
   11130:	40265613          	srai	a2,a2,0x2
   11134:	00100793          	li	a5,1
   11138:	00c797b3          	sll	a5,a5,a2
   1113c:	00a7e7b3          	or	a5,a5,a0
   11140:	00f82223          	sw	a5,4(a6)
   11144:	ee9ff06f          	j	1102c <_free_r+0x188>
   11148:	15400613          	li	a2,340
   1114c:	00d66c63          	bltu	a2,a3,11164 <_free_r+0x2c0>
   11150:	00f7d693          	srli	a3,a5,0xf
   11154:	07868593          	addi	a1,a3,120
   11158:	00359593          	slli	a1,a1,0x3
   1115c:	07768613          	addi	a2,a3,119
   11160:	ea1ff06f          	j	11000 <_free_r+0x15c>
   11164:	55400613          	li	a2,1364
   11168:	00d66c63          	bltu	a2,a3,11180 <_free_r+0x2dc>
   1116c:	0127d693          	srli	a3,a5,0x12
   11170:	07d68593          	addi	a1,a3,125
   11174:	00359593          	slli	a1,a1,0x3
   11178:	07c68613          	addi	a2,a3,124
   1117c:	e85ff06f          	j	11000 <_free_r+0x15c>
   11180:	3f800593          	li	a1,1016
   11184:	07e00613          	li	a2,126
   11188:	e79ff06f          	j	11000 <_free_r+0x15c>

0001118c <_malloc_r>:
   1118c:	fc010113          	addi	sp,sp,-64
   11190:	02812c23          	sw	s0,56(sp)
   11194:	02112e23          	sw	ra,60(sp)
   11198:	00b58793          	addi	a5,a1,11
   1119c:	01600713          	li	a4,22
   111a0:	00050413          	mv	s0,a0
   111a4:	08f76e63          	bltu	a4,a5,11240 <_malloc_r+0xb4>
   111a8:	01000693          	li	a3,16
   111ac:	06b6ec63          	bltu	a3,a1,11224 <_malloc_r+0x98>
   111b0:	059000ef          	jal	11a08 <__malloc_lock>
   111b4:	01000693          	li	a3,16
   111b8:	01800713          	li	a4,24
   111bc:	00200893          	li	a7,2
   111c0:	00023837          	lui	a6,0x23
   111c4:	4d080813          	addi	a6,a6,1232 # 234d0 <__malloc_av_>
   111c8:	00e80733          	add	a4,a6,a4
   111cc:	00472783          	lw	a5,4(a4)
   111d0:	ff870613          	addi	a2,a4,-8
   111d4:	44c78c63          	beq	a5,a2,1162c <_malloc_r+0x4a0>
   111d8:	0047a703          	lw	a4,4(a5)
   111dc:	00c7a603          	lw	a2,12(a5)
   111e0:	0087a583          	lw	a1,8(a5)
   111e4:	ffc77713          	andi	a4,a4,-4
   111e8:	00e78733          	add	a4,a5,a4
   111ec:	00472683          	lw	a3,4(a4)
   111f0:	00c5a623          	sw	a2,12(a1)
   111f4:	00f12623          	sw	a5,12(sp)
   111f8:	00b62423          	sw	a1,8(a2)
   111fc:	0016e693          	ori	a3,a3,1
   11200:	00040513          	mv	a0,s0
   11204:	00d72223          	sw	a3,4(a4)
   11208:	005000ef          	jal	11a0c <__malloc_unlock>
   1120c:	00c12783          	lw	a5,12(sp)
   11210:	03c12083          	lw	ra,60(sp)
   11214:	03812403          	lw	s0,56(sp)
   11218:	00878513          	addi	a0,a5,8
   1121c:	04010113          	addi	sp,sp,64
   11220:	00008067          	ret
   11224:	00c00793          	li	a5,12
   11228:	00f42023          	sw	a5,0(s0)
   1122c:	00000513          	li	a0,0
   11230:	03c12083          	lw	ra,60(sp)
   11234:	03812403          	lw	s0,56(sp)
   11238:	04010113          	addi	sp,sp,64
   1123c:	00008067          	ret
   11240:	ff87f693          	andi	a3,a5,-8
   11244:	fe07c0e3          	bltz	a5,11224 <_malloc_r+0x98>
   11248:	fcb6eee3          	bltu	a3,a1,11224 <_malloc_r+0x98>
   1124c:	00d12623          	sw	a3,12(sp)
   11250:	7b8000ef          	jal	11a08 <__malloc_lock>
   11254:	00c12683          	lw	a3,12(sp)
   11258:	1f700793          	li	a5,503
   1125c:	4cd7f663          	bgeu	a5,a3,11728 <_malloc_r+0x59c>
   11260:	0096d793          	srli	a5,a3,0x9
   11264:	16078e63          	beqz	a5,113e0 <_malloc_r+0x254>
   11268:	00400713          	li	a4,4
   1126c:	42f76863          	bltu	a4,a5,1169c <_malloc_r+0x510>
   11270:	0066d793          	srli	a5,a3,0x6
   11274:	03978893          	addi	a7,a5,57
   11278:	03878e13          	addi	t3,a5,56
   1127c:	00389513          	slli	a0,a7,0x3
   11280:	00023837          	lui	a6,0x23
   11284:	4d080813          	addi	a6,a6,1232 # 234d0 <__malloc_av_>
   11288:	00a80533          	add	a0,a6,a0
   1128c:	00452783          	lw	a5,4(a0)
   11290:	ff850513          	addi	a0,a0,-8
   11294:	02f50863          	beq	a0,a5,112c4 <_malloc_r+0x138>
   11298:	00f00313          	li	t1,15
   1129c:	0140006f          	j	112b0 <_malloc_r+0x124>
   112a0:	00c7a583          	lw	a1,12(a5)
   112a4:	34065463          	bgez	a2,115ec <_malloc_r+0x460>
   112a8:	00b50e63          	beq	a0,a1,112c4 <_malloc_r+0x138>
   112ac:	00058793          	mv	a5,a1
   112b0:	0047a703          	lw	a4,4(a5)
   112b4:	ffc77713          	andi	a4,a4,-4
   112b8:	40d70633          	sub	a2,a4,a3
   112bc:	fec352e3          	bge	t1,a2,112a0 <_malloc_r+0x114>
   112c0:	000e0893          	mv	a7,t3
   112c4:	01082783          	lw	a5,16(a6)
   112c8:	00023e37          	lui	t3,0x23
   112cc:	4d8e0e13          	addi	t3,t3,1240 # 234d8 <__malloc_av_+0x8>
   112d0:	2dc78c63          	beq	a5,t3,115a8 <_malloc_r+0x41c>
   112d4:	0047a703          	lw	a4,4(a5)
   112d8:	00f00593          	li	a1,15
   112dc:	ffc77713          	andi	a4,a4,-4
   112e0:	40d70633          	sub	a2,a4,a3
   112e4:	46c5cc63          	blt	a1,a2,1175c <_malloc_r+0x5d0>
   112e8:	01c82a23          	sw	t3,20(a6)
   112ec:	01c82823          	sw	t3,16(a6)
   112f0:	44065263          	bgez	a2,11734 <_malloc_r+0x5a8>
   112f4:	1ff00613          	li	a2,511
   112f8:	00482303          	lw	t1,4(a6)
   112fc:	34e66063          	bltu	a2,a4,1163c <_malloc_r+0x4b0>
   11300:	ff877613          	andi	a2,a4,-8
   11304:	00860613          	addi	a2,a2,8
   11308:	00c80633          	add	a2,a6,a2
   1130c:	00062583          	lw	a1,0(a2)
   11310:	00575513          	srli	a0,a4,0x5
   11314:	00100713          	li	a4,1
   11318:	00a71733          	sll	a4,a4,a0
   1131c:	00e36333          	or	t1,t1,a4
   11320:	ff860713          	addi	a4,a2,-8
   11324:	00b7a423          	sw	a1,8(a5)
   11328:	00e7a623          	sw	a4,12(a5)
   1132c:	00682223          	sw	t1,4(a6)
   11330:	00f62023          	sw	a5,0(a2)
   11334:	00f5a623          	sw	a5,12(a1)
   11338:	4028d793          	srai	a5,a7,0x2
   1133c:	00100513          	li	a0,1
   11340:	00f51533          	sll	a0,a0,a5
   11344:	0aa36663          	bltu	t1,a0,113f0 <_malloc_r+0x264>
   11348:	006577b3          	and	a5,a0,t1
   1134c:	02079463          	bnez	a5,11374 <_malloc_r+0x1e8>
   11350:	00151513          	slli	a0,a0,0x1
   11354:	ffc8f893          	andi	a7,a7,-4
   11358:	006577b3          	and	a5,a0,t1
   1135c:	00488893          	addi	a7,a7,4
   11360:	00079a63          	bnez	a5,11374 <_malloc_r+0x1e8>
   11364:	00151513          	slli	a0,a0,0x1
   11368:	006577b3          	and	a5,a0,t1
   1136c:	00488893          	addi	a7,a7,4
   11370:	fe078ae3          	beqz	a5,11364 <_malloc_r+0x1d8>
   11374:	00f00e93          	li	t4,15
   11378:	00389f13          	slli	t5,a7,0x3
   1137c:	01e80f33          	add	t5,a6,t5
   11380:	000f0313          	mv	t1,t5
   11384:	00c32703          	lw	a4,12(t1)
   11388:	00088f93          	mv	t6,a7
   1138c:	32e30a63          	beq	t1,a4,116c0 <_malloc_r+0x534>
   11390:	00472603          	lw	a2,4(a4)
   11394:	00070793          	mv	a5,a4
   11398:	00c72703          	lw	a4,12(a4)
   1139c:	ffc67613          	andi	a2,a2,-4
   113a0:	40d605b3          	sub	a1,a2,a3
   113a4:	32beca63          	blt	t4,a1,116d8 <_malloc_r+0x54c>
   113a8:	fe05c2e3          	bltz	a1,1138c <_malloc_r+0x200>
   113ac:	00c78633          	add	a2,a5,a2
   113b0:	00462683          	lw	a3,4(a2)
   113b4:	0087a583          	lw	a1,8(a5)
   113b8:	00040513          	mv	a0,s0
   113bc:	0016e693          	ori	a3,a3,1
   113c0:	00d62223          	sw	a3,4(a2)
   113c4:	00e5a623          	sw	a4,12(a1)
   113c8:	00b72423          	sw	a1,8(a4)
   113cc:	00f12623          	sw	a5,12(sp)
   113d0:	63c000ef          	jal	11a0c <__malloc_unlock>
   113d4:	00c12783          	lw	a5,12(sp)
   113d8:	00878513          	addi	a0,a5,8
   113dc:	e55ff06f          	j	11230 <_malloc_r+0xa4>
   113e0:	20000513          	li	a0,512
   113e4:	04000893          	li	a7,64
   113e8:	03f00e13          	li	t3,63
   113ec:	e95ff06f          	j	11280 <_malloc_r+0xf4>
   113f0:	00882783          	lw	a5,8(a6)
   113f4:	0047a703          	lw	a4,4(a5)
   113f8:	ffc77313          	andi	t1,a4,-4
   113fc:	40d30633          	sub	a2,t1,a3
   11400:	00d36663          	bltu	t1,a3,1140c <_malloc_r+0x280>
   11404:	01062713          	slti	a4,a2,16
   11408:	1a070463          	beqz	a4,115b0 <_malloc_r+0x424>
   1140c:	f4c1a583          	lw	a1,-180(gp) # 23acc <__malloc_top_pad>
   11410:	f301a603          	lw	a2,-208(gp) # 23ab0 <__malloc_sbrk_base>
   11414:	fff00713          	li	a4,-1
   11418:	00b685b3          	add	a1,a3,a1
   1141c:	42e60463          	beq	a2,a4,11844 <_malloc_r+0x6b8>
   11420:	00001737          	lui	a4,0x1
   11424:	00f70713          	addi	a4,a4,15 # 100f <exit-0xf0a5>
   11428:	00e585b3          	add	a1,a1,a4
   1142c:	fffff737          	lui	a4,0xfffff
   11430:	00e5f5b3          	and	a1,a1,a4
   11434:	00040513          	mv	a0,s0
   11438:	01012e23          	sw	a6,28(sp)
   1143c:	00f12c23          	sw	a5,24(sp)
   11440:	00d12a23          	sw	a3,20(sp)
   11444:	00612823          	sw	t1,16(sp)
   11448:	00b12623          	sw	a1,12(sp)
   1144c:	288040ef          	jal	156d4 <_sbrk_r>
   11450:	fff00713          	li	a4,-1
   11454:	00c12583          	lw	a1,12(sp)
   11458:	01012303          	lw	t1,16(sp)
   1145c:	01412683          	lw	a3,20(sp)
   11460:	01812783          	lw	a5,24(sp)
   11464:	01c12803          	lw	a6,28(sp)
   11468:	00050e13          	mv	t3,a0
   1146c:	34e50663          	beq	a0,a4,117b8 <_malloc_r+0x62c>
   11470:	00678733          	add	a4,a5,t1
   11474:	34e56063          	bltu	a0,a4,117b4 <_malloc_r+0x628>
   11478:	0ac18e93          	addi	t4,gp,172 # 23c2c <__malloc_current_mallinfo>
   1147c:	000ea603          	lw	a2,0(t4)
   11480:	00c58633          	add	a2,a1,a2
   11484:	00cea023          	sw	a2,0(t4)
   11488:	48a70a63          	beq	a4,a0,1191c <_malloc_r+0x790>
   1148c:	f301af03          	lw	t5,-208(gp) # 23ab0 <__malloc_sbrk_base>
   11490:	fff00513          	li	a0,-1
   11494:	4aaf0263          	beq	t5,a0,11938 <_malloc_r+0x7ac>
   11498:	40ee0733          	sub	a4,t3,a4
   1149c:	00c70733          	add	a4,a4,a2
   114a0:	00eea023          	sw	a4,0(t4)
   114a4:	007e7f13          	andi	t5,t3,7
   114a8:	3a0f0e63          	beqz	t5,11864 <_malloc_r+0x6d8>
   114ac:	ff8e7e13          	andi	t3,t3,-8
   114b0:	000018b7          	lui	a7,0x1
   114b4:	008e0e13          	addi	t3,t3,8
   114b8:	00888893          	addi	a7,a7,8 # 1008 <exit-0xf0ac>
   114bc:	00be0633          	add	a2,t3,a1
   114c0:	41e885b3          	sub	a1,a7,t5
   114c4:	40c585b3          	sub	a1,a1,a2
   114c8:	01459593          	slli	a1,a1,0x14
   114cc:	0145d593          	srli	a1,a1,0x14
   114d0:	00040513          	mv	a0,s0
   114d4:	03012623          	sw	a6,44(sp)
   114d8:	03d12423          	sw	t4,40(sp)
   114dc:	02f12223          	sw	a5,36(sp)
   114e0:	02d12023          	sw	a3,32(sp)
   114e4:	00612e23          	sw	t1,28(sp)
   114e8:	01c12c23          	sw	t3,24(sp)
   114ec:	01e12a23          	sw	t5,20(sp)
   114f0:	00c12823          	sw	a2,16(sp)
   114f4:	00b12623          	sw	a1,12(sp)
   114f8:	1dc040ef          	jal	156d4 <_sbrk_r>
   114fc:	00050713          	mv	a4,a0
   11500:	fff00513          	li	a0,-1
   11504:	00c12583          	lw	a1,12(sp)
   11508:	01012603          	lw	a2,16(sp)
   1150c:	01412f03          	lw	t5,20(sp)
   11510:	01812e03          	lw	t3,24(sp)
   11514:	01c12303          	lw	t1,28(sp)
   11518:	02012683          	lw	a3,32(sp)
   1151c:	02412783          	lw	a5,36(sp)
   11520:	02812e83          	lw	t4,40(sp)
   11524:	02c12803          	lw	a6,44(sp)
   11528:	44a70e63          	beq	a4,a0,11984 <_malloc_r+0x7f8>
   1152c:	000ea603          	lw	a2,0(t4)
   11530:	41c70733          	sub	a4,a4,t3
   11534:	00b70733          	add	a4,a4,a1
   11538:	00176713          	ori	a4,a4,1
   1153c:	01c82423          	sw	t3,8(a6)
   11540:	00c58633          	add	a2,a1,a2
   11544:	00ee2223          	sw	a4,4(t3)
   11548:	00cea023          	sw	a2,0(t4)
   1154c:	03078e63          	beq	a5,a6,11588 <_malloc_r+0x3fc>
   11550:	00f00513          	li	a0,15
   11554:	3e657663          	bgeu	a0,t1,11940 <_malloc_r+0x7b4>
   11558:	0047a583          	lw	a1,4(a5)
   1155c:	ff430713          	addi	a4,t1,-12
   11560:	ff877713          	andi	a4,a4,-8
   11564:	0015f593          	andi	a1,a1,1
   11568:	00e5e5b3          	or	a1,a1,a4
   1156c:	00b7a223          	sw	a1,4(a5)
   11570:	00500893          	li	a7,5
   11574:	00e785b3          	add	a1,a5,a4
   11578:	0115a223          	sw	a7,4(a1)
   1157c:	0115a423          	sw	a7,8(a1)
   11580:	40e56a63          	bltu	a0,a4,11994 <_malloc_r+0x808>
   11584:	004e2703          	lw	a4,4(t3)
   11588:	f481a583          	lw	a1,-184(gp) # 23ac8 <__malloc_max_sbrked_mem>
   1158c:	00c5f463          	bgeu	a1,a2,11594 <_malloc_r+0x408>
   11590:	f4c1a423          	sw	a2,-184(gp) # 23ac8 <__malloc_max_sbrked_mem>
   11594:	f441a583          	lw	a1,-188(gp) # 23ac4 <__malloc_max_total_mem>
   11598:	00c5f463          	bgeu	a1,a2,115a0 <_malloc_r+0x414>
   1159c:	f4c1a223          	sw	a2,-188(gp) # 23ac4 <__malloc_max_total_mem>
   115a0:	000e0793          	mv	a5,t3
   115a4:	21c0006f          	j	117c0 <_malloc_r+0x634>
   115a8:	00482303          	lw	t1,4(a6)
   115ac:	d8dff06f          	j	11338 <_malloc_r+0x1ac>
   115b0:	0016e713          	ori	a4,a3,1
   115b4:	00e7a223          	sw	a4,4(a5)
   115b8:	00d786b3          	add	a3,a5,a3
   115bc:	00166613          	ori	a2,a2,1
   115c0:	00d82423          	sw	a3,8(a6)
   115c4:	00040513          	mv	a0,s0
   115c8:	00c6a223          	sw	a2,4(a3)
   115cc:	00f12623          	sw	a5,12(sp)
   115d0:	43c000ef          	jal	11a0c <__malloc_unlock>
   115d4:	00c12783          	lw	a5,12(sp)
   115d8:	03c12083          	lw	ra,60(sp)
   115dc:	03812403          	lw	s0,56(sp)
   115e0:	00878513          	addi	a0,a5,8
   115e4:	04010113          	addi	sp,sp,64
   115e8:	00008067          	ret
   115ec:	0087a603          	lw	a2,8(a5)
   115f0:	00e78733          	add	a4,a5,a4
   115f4:	00472683          	lw	a3,4(a4) # fffff004 <__BSS_END__+0xfffdb220>
   115f8:	00b62623          	sw	a1,12(a2)
   115fc:	00f12623          	sw	a5,12(sp)
   11600:	0016e693          	ori	a3,a3,1
   11604:	00c5a423          	sw	a2,8(a1)
   11608:	00040513          	mv	a0,s0
   1160c:	00d72223          	sw	a3,4(a4)
   11610:	3fc000ef          	jal	11a0c <__malloc_unlock>
   11614:	00c12783          	lw	a5,12(sp)
   11618:	03c12083          	lw	ra,60(sp)
   1161c:	03812403          	lw	s0,56(sp)
   11620:	00878513          	addi	a0,a5,8
   11624:	04010113          	addi	sp,sp,64
   11628:	00008067          	ret
   1162c:	00c72783          	lw	a5,12(a4)
   11630:	00288893          	addi	a7,a7,2
   11634:	c8f708e3          	beq	a4,a5,112c4 <_malloc_r+0x138>
   11638:	ba1ff06f          	j	111d8 <_malloc_r+0x4c>
   1163c:	00975613          	srli	a2,a4,0x9
   11640:	00400593          	li	a1,4
   11644:	14c5fe63          	bgeu	a1,a2,117a0 <_malloc_r+0x614>
   11648:	01400593          	li	a1,20
   1164c:	28c5e263          	bltu	a1,a2,118d0 <_malloc_r+0x744>
   11650:	05c60513          	addi	a0,a2,92
   11654:	00351513          	slli	a0,a0,0x3
   11658:	05b60593          	addi	a1,a2,91
   1165c:	00a80533          	add	a0,a6,a0
   11660:	00052603          	lw	a2,0(a0)
   11664:	ff850513          	addi	a0,a0,-8
   11668:	00c51863          	bne	a0,a2,11678 <_malloc_r+0x4ec>
   1166c:	1e00006f          	j	1184c <_malloc_r+0x6c0>
   11670:	00862603          	lw	a2,8(a2)
   11674:	00c50863          	beq	a0,a2,11684 <_malloc_r+0x4f8>
   11678:	00462583          	lw	a1,4(a2)
   1167c:	ffc5f593          	andi	a1,a1,-4
   11680:	feb768e3          	bltu	a4,a1,11670 <_malloc_r+0x4e4>
   11684:	00c62503          	lw	a0,12(a2)
   11688:	00a7a623          	sw	a0,12(a5)
   1168c:	00c7a423          	sw	a2,8(a5)
   11690:	00f52423          	sw	a5,8(a0)
   11694:	00f62623          	sw	a5,12(a2)
   11698:	ca1ff06f          	j	11338 <_malloc_r+0x1ac>
   1169c:	01400713          	li	a4,20
   116a0:	14f77063          	bgeu	a4,a5,117e0 <_malloc_r+0x654>
   116a4:	05400713          	li	a4,84
   116a8:	24f76263          	bltu	a4,a5,118ec <_malloc_r+0x760>
   116ac:	00c6d793          	srli	a5,a3,0xc
   116b0:	06f78893          	addi	a7,a5,111
   116b4:	06e78e13          	addi	t3,a5,110
   116b8:	00389513          	slli	a0,a7,0x3
   116bc:	bc5ff06f          	j	11280 <_malloc_r+0xf4>
   116c0:	001f8f93          	addi	t6,t6,1
   116c4:	003ff793          	andi	a5,t6,3
   116c8:	00830313          	addi	t1,t1,8
   116cc:	12078863          	beqz	a5,117fc <_malloc_r+0x670>
   116d0:	00c32703          	lw	a4,12(t1)
   116d4:	cb9ff06f          	j	1138c <_malloc_r+0x200>
   116d8:	0087a503          	lw	a0,8(a5)
   116dc:	0016e893          	ori	a7,a3,1
   116e0:	0117a223          	sw	a7,4(a5)
   116e4:	00e52623          	sw	a4,12(a0)
   116e8:	00a72423          	sw	a0,8(a4)
   116ec:	00d786b3          	add	a3,a5,a3
   116f0:	00d82a23          	sw	a3,20(a6)
   116f4:	00d82823          	sw	a3,16(a6)
   116f8:	0015e713          	ori	a4,a1,1
   116fc:	00c78633          	add	a2,a5,a2
   11700:	01c6a623          	sw	t3,12(a3)
   11704:	01c6a423          	sw	t3,8(a3)
   11708:	00e6a223          	sw	a4,4(a3)
   1170c:	00040513          	mv	a0,s0
   11710:	00b62023          	sw	a1,0(a2)
   11714:	00f12623          	sw	a5,12(sp)
   11718:	2f4000ef          	jal	11a0c <__malloc_unlock>
   1171c:	00c12783          	lw	a5,12(sp)
   11720:	00878513          	addi	a0,a5,8
   11724:	b0dff06f          	j	11230 <_malloc_r+0xa4>
   11728:	0036d893          	srli	a7,a3,0x3
   1172c:	00868713          	addi	a4,a3,8
   11730:	a91ff06f          	j	111c0 <_malloc_r+0x34>
   11734:	00e78733          	add	a4,a5,a4
   11738:	00472683          	lw	a3,4(a4)
   1173c:	00f12623          	sw	a5,12(sp)
   11740:	00040513          	mv	a0,s0
   11744:	0016e693          	ori	a3,a3,1
   11748:	00d72223          	sw	a3,4(a4)
   1174c:	2c0000ef          	jal	11a0c <__malloc_unlock>
   11750:	00c12783          	lw	a5,12(sp)
   11754:	00878513          	addi	a0,a5,8
   11758:	ad9ff06f          	j	11230 <_malloc_r+0xa4>
   1175c:	0016e593          	ori	a1,a3,1
   11760:	00b7a223          	sw	a1,4(a5)
   11764:	00d786b3          	add	a3,a5,a3
   11768:	00d82a23          	sw	a3,20(a6)
   1176c:	00d82823          	sw	a3,16(a6)
   11770:	00166593          	ori	a1,a2,1
   11774:	00e78733          	add	a4,a5,a4
   11778:	01c6a623          	sw	t3,12(a3)
   1177c:	01c6a423          	sw	t3,8(a3)
   11780:	00b6a223          	sw	a1,4(a3)
   11784:	00040513          	mv	a0,s0
   11788:	00c72023          	sw	a2,0(a4)
   1178c:	00f12623          	sw	a5,12(sp)
   11790:	27c000ef          	jal	11a0c <__malloc_unlock>
   11794:	00c12783          	lw	a5,12(sp)
   11798:	00878513          	addi	a0,a5,8
   1179c:	a95ff06f          	j	11230 <_malloc_r+0xa4>
   117a0:	00675613          	srli	a2,a4,0x6
   117a4:	03960513          	addi	a0,a2,57
   117a8:	00351513          	slli	a0,a0,0x3
   117ac:	03860593          	addi	a1,a2,56
   117b0:	eadff06f          	j	1165c <_malloc_r+0x4d0>
   117b4:	15078a63          	beq	a5,a6,11908 <_malloc_r+0x77c>
   117b8:	00882783          	lw	a5,8(a6)
   117bc:	0047a703          	lw	a4,4(a5)
   117c0:	ffc77713          	andi	a4,a4,-4
   117c4:	40d70633          	sub	a2,a4,a3
   117c8:	00d76663          	bltu	a4,a3,117d4 <_malloc_r+0x648>
   117cc:	01062713          	slti	a4,a2,16
   117d0:	de0700e3          	beqz	a4,115b0 <_malloc_r+0x424>
   117d4:	00040513          	mv	a0,s0
   117d8:	234000ef          	jal	11a0c <__malloc_unlock>
   117dc:	a51ff06f          	j	1122c <_malloc_r+0xa0>
   117e0:	05c78893          	addi	a7,a5,92
   117e4:	05b78e13          	addi	t3,a5,91
   117e8:	00389513          	slli	a0,a7,0x3
   117ec:	a95ff06f          	j	11280 <_malloc_r+0xf4>
   117f0:	008f2783          	lw	a5,8(t5)
   117f4:	fff88893          	addi	a7,a7,-1
   117f8:	21e79463          	bne	a5,t5,11a00 <_malloc_r+0x874>
   117fc:	0038f793          	andi	a5,a7,3
   11800:	ff8f0f13          	addi	t5,t5,-8
   11804:	fe0796e3          	bnez	a5,117f0 <_malloc_r+0x664>
   11808:	00482703          	lw	a4,4(a6)
   1180c:	fff54793          	not	a5,a0
   11810:	00e7f7b3          	and	a5,a5,a4
   11814:	00f82223          	sw	a5,4(a6)
   11818:	00151513          	slli	a0,a0,0x1
   1181c:	fff50713          	addi	a4,a0,-1
   11820:	bcf778e3          	bgeu	a4,a5,113f0 <_malloc_r+0x264>
   11824:	00f57733          	and	a4,a0,a5
   11828:	00071a63          	bnez	a4,1183c <_malloc_r+0x6b0>
   1182c:	00151513          	slli	a0,a0,0x1
   11830:	00f57733          	and	a4,a0,a5
   11834:	004f8f93          	addi	t6,t6,4
   11838:	fe070ae3          	beqz	a4,1182c <_malloc_r+0x6a0>
   1183c:	000f8893          	mv	a7,t6
   11840:	b39ff06f          	j	11378 <_malloc_r+0x1ec>
   11844:	01058593          	addi	a1,a1,16
   11848:	bedff06f          	j	11434 <_malloc_r+0x2a8>
   1184c:	4025d593          	srai	a1,a1,0x2
   11850:	00100713          	li	a4,1
   11854:	00b71733          	sll	a4,a4,a1
   11858:	00e36333          	or	t1,t1,a4
   1185c:	00682223          	sw	t1,4(a6)
   11860:	e29ff06f          	j	11688 <_malloc_r+0x4fc>
   11864:	00be0633          	add	a2,t3,a1
   11868:	40c005b3          	neg	a1,a2
   1186c:	01459593          	slli	a1,a1,0x14
   11870:	0145d593          	srli	a1,a1,0x14
   11874:	00040513          	mv	a0,s0
   11878:	03012423          	sw	a6,40(sp)
   1187c:	03d12223          	sw	t4,36(sp)
   11880:	02f12023          	sw	a5,32(sp)
   11884:	00d12e23          	sw	a3,28(sp)
   11888:	00612c23          	sw	t1,24(sp)
   1188c:	01c12a23          	sw	t3,20(sp)
   11890:	00b12623          	sw	a1,12(sp)
   11894:	00c12823          	sw	a2,16(sp)
   11898:	63d030ef          	jal	156d4 <_sbrk_r>
   1189c:	00050713          	mv	a4,a0
   118a0:	fff00513          	li	a0,-1
   118a4:	00c12583          	lw	a1,12(sp)
   118a8:	01412e03          	lw	t3,20(sp)
   118ac:	01812303          	lw	t1,24(sp)
   118b0:	01c12683          	lw	a3,28(sp)
   118b4:	02012783          	lw	a5,32(sp)
   118b8:	02412e83          	lw	t4,36(sp)
   118bc:	02812803          	lw	a6,40(sp)
   118c0:	c6a716e3          	bne	a4,a0,1152c <_malloc_r+0x3a0>
   118c4:	01012703          	lw	a4,16(sp)
   118c8:	00000593          	li	a1,0
   118cc:	c61ff06f          	j	1152c <_malloc_r+0x3a0>
   118d0:	05400593          	li	a1,84
   118d4:	06c5ec63          	bltu	a1,a2,1194c <_malloc_r+0x7c0>
   118d8:	00c75613          	srli	a2,a4,0xc
   118dc:	06f60513          	addi	a0,a2,111
   118e0:	00351513          	slli	a0,a0,0x3
   118e4:	06e60593          	addi	a1,a2,110
   118e8:	d75ff06f          	j	1165c <_malloc_r+0x4d0>
   118ec:	15400713          	li	a4,340
   118f0:	06f76c63          	bltu	a4,a5,11968 <_malloc_r+0x7dc>
   118f4:	00f6d793          	srli	a5,a3,0xf
   118f8:	07878893          	addi	a7,a5,120
   118fc:	07778e13          	addi	t3,a5,119
   11900:	00389513          	slli	a0,a7,0x3
   11904:	97dff06f          	j	11280 <_malloc_r+0xf4>
   11908:	0ac18e93          	addi	t4,gp,172 # 23c2c <__malloc_current_mallinfo>
   1190c:	000ea603          	lw	a2,0(t4)
   11910:	00c58633          	add	a2,a1,a2
   11914:	00cea023          	sw	a2,0(t4)
   11918:	b75ff06f          	j	1148c <_malloc_r+0x300>
   1191c:	01451513          	slli	a0,a0,0x14
   11920:	b60516e3          	bnez	a0,1148c <_malloc_r+0x300>
   11924:	00882e03          	lw	t3,8(a6)
   11928:	00b305b3          	add	a1,t1,a1
   1192c:	0015e713          	ori	a4,a1,1
   11930:	00ee2223          	sw	a4,4(t3)
   11934:	c55ff06f          	j	11588 <_malloc_r+0x3fc>
   11938:	f3c1a823          	sw	t3,-208(gp) # 23ab0 <__malloc_sbrk_base>
   1193c:	b69ff06f          	j	114a4 <_malloc_r+0x318>
   11940:	00100793          	li	a5,1
   11944:	00fe2223          	sw	a5,4(t3)
   11948:	e8dff06f          	j	117d4 <_malloc_r+0x648>
   1194c:	15400593          	li	a1,340
   11950:	06c5ec63          	bltu	a1,a2,119c8 <_malloc_r+0x83c>
   11954:	00f75613          	srli	a2,a4,0xf
   11958:	07860513          	addi	a0,a2,120
   1195c:	00351513          	slli	a0,a0,0x3
   11960:	07760593          	addi	a1,a2,119
   11964:	cf9ff06f          	j	1165c <_malloc_r+0x4d0>
   11968:	55400713          	li	a4,1364
   1196c:	06f76c63          	bltu	a4,a5,119e4 <_malloc_r+0x858>
   11970:	0126d793          	srli	a5,a3,0x12
   11974:	07d78893          	addi	a7,a5,125
   11978:	07c78e13          	addi	t3,a5,124
   1197c:	00389513          	slli	a0,a7,0x3
   11980:	901ff06f          	j	11280 <_malloc_r+0xf4>
   11984:	ff8f0f13          	addi	t5,t5,-8
   11988:	01e60733          	add	a4,a2,t5
   1198c:	00000593          	li	a1,0
   11990:	b9dff06f          	j	1152c <_malloc_r+0x3a0>
   11994:	00878593          	addi	a1,a5,8
   11998:	00040513          	mv	a0,s0
   1199c:	01012a23          	sw	a6,20(sp)
   119a0:	01d12823          	sw	t4,16(sp)
   119a4:	00d12623          	sw	a3,12(sp)
   119a8:	cfcff0ef          	jal	10ea4 <_free_r>
   119ac:	01412803          	lw	a6,20(sp)
   119b0:	01012e83          	lw	t4,16(sp)
   119b4:	00c12683          	lw	a3,12(sp)
   119b8:	00882e03          	lw	t3,8(a6)
   119bc:	000ea603          	lw	a2,0(t4)
   119c0:	004e2703          	lw	a4,4(t3)
   119c4:	bc5ff06f          	j	11588 <_malloc_r+0x3fc>
   119c8:	55400593          	li	a1,1364
   119cc:	02c5e463          	bltu	a1,a2,119f4 <_malloc_r+0x868>
   119d0:	01275613          	srli	a2,a4,0x12
   119d4:	07d60513          	addi	a0,a2,125
   119d8:	00351513          	slli	a0,a0,0x3
   119dc:	07c60593          	addi	a1,a2,124
   119e0:	c7dff06f          	j	1165c <_malloc_r+0x4d0>
   119e4:	3f800513          	li	a0,1016
   119e8:	07f00893          	li	a7,127
   119ec:	07e00e13          	li	t3,126
   119f0:	891ff06f          	j	11280 <_malloc_r+0xf4>
   119f4:	3f800513          	li	a0,1016
   119f8:	07e00593          	li	a1,126
   119fc:	c61ff06f          	j	1165c <_malloc_r+0x4d0>
   11a00:	00482783          	lw	a5,4(a6)
   11a04:	e15ff06f          	j	11818 <_malloc_r+0x68c>

00011a08 <__malloc_lock>:
   11a08:	00008067          	ret

00011a0c <__malloc_unlock>:
   11a0c:	00008067          	ret

00011a10 <_vfprintf_r>:
   11a10:	e3010113          	addi	sp,sp,-464
   11a14:	1c112623          	sw	ra,460(sp)
   11a18:	1c812423          	sw	s0,456(sp)
   11a1c:	1c912223          	sw	s1,452(sp)
   11a20:	1ba12023          	sw	s10,416(sp)
   11a24:	00d12c23          	sw	a3,24(sp)
   11a28:	00060d13          	mv	s10,a2
   11a2c:	00058493          	mv	s1,a1
   11a30:	00050413          	mv	s0,a0
   11a34:	00a12623          	sw	a0,12(sp)
   11a38:	48d030ef          	jal	156c4 <_localeconv_r>
   11a3c:	00052703          	lw	a4,0(a0)
   11a40:	00070513          	mv	a0,a4
   11a44:	02e12a23          	sw	a4,52(sp)
   11a48:	795030ef          	jal	159dc <strlen>
   11a4c:	02a12823          	sw	a0,48(sp)
   11a50:	0c012823          	sw	zero,208(sp)
   11a54:	00040863          	beqz	s0,11a64 <_vfprintf_r+0x54>
   11a58:	03442783          	lw	a5,52(s0)
   11a5c:	00079463          	bnez	a5,11a64 <_vfprintf_r+0x54>
   11a60:	5cd0106f          	j	1382c <_vfprintf_r+0x1e1c>
   11a64:	00c49703          	lh	a4,12(s1)
   11a68:	0644a783          	lw	a5,100(s1)
   11a6c:	00002637          	lui	a2,0x2
   11a70:	01271693          	slli	a3,a4,0x12
   11a74:	0006ce63          	bltz	a3,11a90 <_vfprintf_r+0x80>
   11a78:	ffffe6b7          	lui	a3,0xffffe
   11a7c:	fff68693          	addi	a3,a3,-1 # ffffdfff <__BSS_END__+0xfffda21b>
   11a80:	00c76733          	or	a4,a4,a2
   11a84:	00d7f7b3          	and	a5,a5,a3
   11a88:	00e49623          	sh	a4,12(s1)
   11a8c:	06f4a223          	sw	a5,100(s1)
   11a90:	01279713          	slli	a4,a5,0x12
   11a94:	00075463          	bgez	a4,11a9c <_vfprintf_r+0x8c>
   11a98:	1f10206f          	j	14488 <_vfprintf_r+0x2a78>
   11a9c:	00c49783          	lh	a5,12(s1)
   11aa0:	0087f713          	andi	a4,a5,8
   11aa4:	2c070463          	beqz	a4,11d6c <_vfprintf_r+0x35c>
   11aa8:	0104a703          	lw	a4,16(s1)
   11aac:	2c070063          	beqz	a4,11d6c <_vfprintf_r+0x35c>
   11ab0:	01a7f793          	andi	a5,a5,26
   11ab4:	00a00713          	li	a4,10
   11ab8:	2ce78c63          	beq	a5,a4,11d90 <_vfprintf_r+0x380>
   11abc:	000227b7          	lui	a5,0x22
   11ac0:	1b312e23          	sw	s3,444(sp)
   11ac4:	1b412c23          	sw	s4,440(sp)
   11ac8:	0ec10993          	addi	s3,sp,236
   11acc:	00022a37          	lui	s4,0x22
   11ad0:	c2878793          	addi	a5,a5,-984 # 21c28 <__clzsi2+0x1ac>
   11ad4:	1b612823          	sw	s6,432(sp)
   11ad8:	1d212023          	sw	s2,448(sp)
   11adc:	1b512a23          	sw	s5,436(sp)
   11ae0:	1b712623          	sw	s7,428(sp)
   11ae4:	1b812423          	sw	s8,424(sp)
   11ae8:	1b912223          	sw	s9,420(sp)
   11aec:	19b12e23          	sw	s11,412(sp)
   11af0:	0c012623          	sw	zero,204(sp)
   11af4:	0c012423          	sw	zero,200(sp)
   11af8:	0d312223          	sw	s3,196(sp)
   11afc:	00098b13          	mv	s6,s3
   11b00:	02f12223          	sw	a5,36(sp)
   11b04:	d94a0a13          	addi	s4,s4,-620 # 21d94 <zeroes.0>
   11b08:	02012423          	sw	zero,40(sp)
   11b0c:	02012c23          	sw	zero,56(sp)
   11b10:	02012e23          	sw	zero,60(sp)
   11b14:	04012623          	sw	zero,76(sp)
   11b18:	04012023          	sw	zero,64(sp)
   11b1c:	00012a23          	sw	zero,20(sp)
   11b20:	01000413          	li	s0,16
   11b24:	000d4783          	lbu	a5,0(s10)
   11b28:	000d0913          	mv	s2,s10
   11b2c:	fdb78713          	addi	a4,a5,-37
   11b30:	06070263          	beqz	a4,11b94 <_vfprintf_r+0x184>
   11b34:	06078063          	beqz	a5,11b94 <_vfprintf_r+0x184>
   11b38:	00090c13          	mv	s8,s2
   11b3c:	00194783          	lbu	a5,1(s2)
   11b40:	00190913          	addi	s2,s2,1
   11b44:	00078663          	beqz	a5,11b50 <_vfprintf_r+0x140>
   11b48:	fdb78713          	addi	a4,a5,-37
   11b4c:	fe0716e3          	bnez	a4,11b38 <_vfprintf_r+0x128>
   11b50:	41a90cb3          	sub	s9,s2,s10
   11b54:	05a90063          	beq	s2,s10,11b94 <_vfprintf_r+0x184>
   11b58:	0cc12783          	lw	a5,204(sp)
   11b5c:	0c812503          	lw	a0,200(sp)
   11b60:	01ab2023          	sw	s10,0(s6)
   11b64:	019787b3          	add	a5,a5,s9
   11b68:	00150513          	addi	a0,a0,1
   11b6c:	019b2223          	sw	s9,4(s6)
   11b70:	0cf12623          	sw	a5,204(sp)
   11b74:	0ca12423          	sw	a0,200(sp)
   11b78:	00700793          	li	a5,7
   11b7c:	008b0b13          	addi	s6,s6,8
   11b80:	24a7c463          	blt	a5,a0,11dc8 <_vfprintf_r+0x3b8>
   11b84:	01412783          	lw	a5,20(sp)
   11b88:	019787b3          	add	a5,a5,s9
   11b8c:	00f12a23          	sw	a5,20(sp)
   11b90:	001c4783          	lbu	a5,1(s8)
   11b94:	00079463          	bnez	a5,11b9c <_vfprintf_r+0x18c>
   11b98:	5950106f          	j	1392c <_vfprintf_r+0x1f1c>
   11b9c:	00194883          	lbu	a7,1(s2)
   11ba0:	00190d13          	addi	s10,s2,1
   11ba4:	0a0101a3          	sb	zero,163(sp)
   11ba8:	fff00913          	li	s2,-1
   11bac:	00012823          	sw	zero,16(sp)
   11bb0:	00000b93          	li	s7,0
   11bb4:	05a00c13          	li	s8,90
   11bb8:	001d0d13          	addi	s10,s10,1
   11bbc:	fe088793          	addi	a5,a7,-32
   11bc0:	04fc6c63          	bltu	s8,a5,11c18 <_vfprintf_r+0x208>
   11bc4:	02412703          	lw	a4,36(sp)
   11bc8:	00279793          	slli	a5,a5,0x2
   11bcc:	00e787b3          	add	a5,a5,a4
   11bd0:	0007a783          	lw	a5,0(a5)
   11bd4:	00078067          	jr	a5
   11bd8:	fd088793          	addi	a5,a7,-48
   11bdc:	00012823          	sw	zero,16(sp)
   11be0:	00900693          	li	a3,9
   11be4:	01012703          	lw	a4,16(sp)
   11be8:	01012603          	lw	a2,16(sp)
   11bec:	000d4883          	lbu	a7,0(s10)
   11bf0:	00271713          	slli	a4,a4,0x2
   11bf4:	00c70733          	add	a4,a4,a2
   11bf8:	00171713          	slli	a4,a4,0x1
   11bfc:	00e787b3          	add	a5,a5,a4
   11c00:	00f12823          	sw	a5,16(sp)
   11c04:	fd088793          	addi	a5,a7,-48
   11c08:	001d0d13          	addi	s10,s10,1
   11c0c:	fcf6fce3          	bgeu	a3,a5,11be4 <_vfprintf_r+0x1d4>
   11c10:	fe088793          	addi	a5,a7,-32
   11c14:	fafc78e3          	bgeu	s8,a5,11bc4 <_vfprintf_r+0x1b4>
   11c18:	00089463          	bnez	a7,11c20 <_vfprintf_r+0x210>
   11c1c:	5110106f          	j	1392c <_vfprintf_r+0x1f1c>
   11c20:	00100f13          	li	t5,1
   11c24:	13110623          	sb	a7,300(sp)
   11c28:	0a0101a3          	sb	zero,163(sp)
   11c2c:	12c10793          	addi	a5,sp,300
   11c30:	000f0c13          	mv	s8,t5
   11c34:	00012e23          	sw	zero,28(sp)
   11c38:	00000913          	li	s2,0
   11c3c:	02012623          	sw	zero,44(sp)
   11c40:	00000c93          	li	s9,0
   11c44:	00000313          	li	t1,0
   11c48:	02f12023          	sw	a5,32(sp)
   11c4c:	0cc12603          	lw	a2,204(sp)
   11c50:	084bfd93          	andi	s11,s7,132
   11c54:	00060813          	mv	a6,a2
   11c58:	060d84e3          	beqz	s11,124c0 <_vfprintf_r+0xab0>
   11c5c:	0a314703          	lbu	a4,163(sp)
   11c60:	06070863          	beqz	a4,11cd0 <_vfprintf_r+0x2c0>
   11c64:	0c812583          	lw	a1,200(sp)
   11c68:	00000713          	li	a4,0
   11c6c:	0a310513          	addi	a0,sp,163
   11c70:	00ab2023          	sw	a0,0(s6)
   11c74:	00160613          	addi	a2,a2,1 # 2001 <exit-0xe0b3>
   11c78:	00100513          	li	a0,1
   11c7c:	00158593          	addi	a1,a1,1
   11c80:	00ab2223          	sw	a0,4(s6)
   11c84:	0cc12623          	sw	a2,204(sp)
   11c88:	0cb12423          	sw	a1,200(sp)
   11c8c:	00700513          	li	a0,7
   11c90:	008b0b13          	addi	s6,s6,8
   11c94:	5eb54863          	blt	a0,a1,12284 <_vfprintf_r+0x874>
   11c98:	02070c63          	beqz	a4,11cd0 <_vfprintf_r+0x2c0>
   11c9c:	0c812583          	lw	a1,200(sp)
   11ca0:	0a410713          	addi	a4,sp,164
   11ca4:	00eb2023          	sw	a4,0(s6)
   11ca8:	00260613          	addi	a2,a2,2
   11cac:	00200713          	li	a4,2
   11cb0:	00158593          	addi	a1,a1,1
   11cb4:	00eb2223          	sw	a4,4(s6)
   11cb8:	0cc12623          	sw	a2,204(sp)
   11cbc:	0cb12423          	sw	a1,200(sp)
   11cc0:	00700713          	li	a4,7
   11cc4:	008b0b13          	addi	s6,s6,8
   11cc8:	00b75463          	bge	a4,a1,11cd0 <_vfprintf_r+0x2c0>
   11ccc:	1140106f          	j	12de0 <_vfprintf_r+0x13d0>
   11cd0:	08000713          	li	a4,128
   11cd4:	00ed9463          	bne	s11,a4,11cdc <_vfprintf_r+0x2cc>
   11cd8:	7b90006f          	j	12c90 <_vfprintf_r+0x1280>
   11cdc:	41e90933          	sub	s2,s2,t5
   11ce0:	7f204e63          	bgtz	s2,124dc <_vfprintf_r+0xacc>
   11ce4:	100bf713          	andi	a4,s7,256
   11ce8:	0e0712e3          	bnez	a4,125cc <_vfprintf_r+0xbbc>
   11cec:	02012783          	lw	a5,32(sp)
   11cf0:	01e60633          	add	a2,a2,t5
   11cf4:	0cc12623          	sw	a2,204(sp)
   11cf8:	00fb2023          	sw	a5,0(s6)
   11cfc:	0c812783          	lw	a5,200(sp)
   11d00:	01eb2223          	sw	t5,4(s6)
   11d04:	00700713          	li	a4,7
   11d08:	00178793          	addi	a5,a5,1
   11d0c:	0cf12423          	sw	a5,200(sp)
   11d10:	6cf74a63          	blt	a4,a5,123e4 <_vfprintf_r+0x9d4>
   11d14:	008b0b13          	addi	s6,s6,8
   11d18:	004bfe13          	andi	t3,s7,4
   11d1c:	000e0a63          	beqz	t3,11d30 <_vfprintf_r+0x320>
   11d20:	01012783          	lw	a5,16(sp)
   11d24:	41878933          	sub	s2,a5,s8
   11d28:	01205463          	blez	s2,11d30 <_vfprintf_r+0x320>
   11d2c:	0f00106f          	j	12e1c <_vfprintf_r+0x140c>
   11d30:	01012303          	lw	t1,16(sp)
   11d34:	01835463          	bge	t1,s8,11d3c <_vfprintf_r+0x32c>
   11d38:	000c0313          	mv	t1,s8
   11d3c:	01412783          	lw	a5,20(sp)
   11d40:	006787b3          	add	a5,a5,t1
   11d44:	00f12a23          	sw	a5,20(sp)
   11d48:	08061e63          	bnez	a2,11de4 <_vfprintf_r+0x3d4>
   11d4c:	01c12783          	lw	a5,28(sp)
   11d50:	0c012423          	sw	zero,200(sp)
   11d54:	00078863          	beqz	a5,11d64 <_vfprintf_r+0x354>
   11d58:	01c12583          	lw	a1,28(sp)
   11d5c:	00c12503          	lw	a0,12(sp)
   11d60:	944ff0ef          	jal	10ea4 <_free_r>
   11d64:	00098b13          	mv	s6,s3
   11d68:	dbdff06f          	j	11b24 <_vfprintf_r+0x114>
   11d6c:	00c12503          	lw	a0,12(sp)
   11d70:	00048593          	mv	a1,s1
   11d74:	698030ef          	jal	1540c <__swsetup_r>
   11d78:	00050463          	beqz	a0,11d80 <_vfprintf_r+0x370>
   11d7c:	70c0206f          	j	14488 <_vfprintf_r+0x2a78>
   11d80:	00c49783          	lh	a5,12(s1)
   11d84:	00a00713          	li	a4,10
   11d88:	01a7f793          	andi	a5,a5,26
   11d8c:	d2e798e3          	bne	a5,a4,11abc <_vfprintf_r+0xac>
   11d90:	00e49783          	lh	a5,14(s1)
   11d94:	d207c4e3          	bltz	a5,11abc <_vfprintf_r+0xac>
   11d98:	01812683          	lw	a3,24(sp)
   11d9c:	00c12503          	lw	a0,12(sp)
   11da0:	000d0613          	mv	a2,s10
   11da4:	00048593          	mv	a1,s1
   11da8:	441020ef          	jal	149e8 <__sbprintf>
   11dac:	00a12a23          	sw	a0,20(sp)
   11db0:	08c0006f          	j	11e3c <_vfprintf_r+0x42c>
   11db4:	000d4883          	lbu	a7,0(s10)
   11db8:	e01ff06f          	j	11bb8 <_vfprintf_r+0x1a8>
   11dbc:	000d4883          	lbu	a7,0(s10)
   11dc0:	020beb93          	ori	s7,s7,32
   11dc4:	df5ff06f          	j	11bb8 <_vfprintf_r+0x1a8>
   11dc8:	00c12503          	lw	a0,12(sp)
   11dcc:	0c410613          	addi	a2,sp,196
   11dd0:	00048593          	mv	a1,s1
   11dd4:	4d5020ef          	jal	14aa8 <__sprint_r>
   11dd8:	02051863          	bnez	a0,11e08 <_vfprintf_r+0x3f8>
   11ddc:	00098b13          	mv	s6,s3
   11de0:	da5ff06f          	j	11b84 <_vfprintf_r+0x174>
   11de4:	00c12503          	lw	a0,12(sp)
   11de8:	0c410613          	addi	a2,sp,196
   11dec:	00048593          	mv	a1,s1
   11df0:	4b9020ef          	jal	14aa8 <__sprint_r>
   11df4:	f4050ce3          	beqz	a0,11d4c <_vfprintf_r+0x33c>
   11df8:	01c12583          	lw	a1,28(sp)
   11dfc:	00058663          	beqz	a1,11e08 <_vfprintf_r+0x3f8>
   11e00:	00c12503          	lw	a0,12(sp)
   11e04:	8a0ff0ef          	jal	10ea4 <_free_r>
   11e08:	00c4d783          	lhu	a5,12(s1)
   11e0c:	1c012903          	lw	s2,448(sp)
   11e10:	1bc12983          	lw	s3,444(sp)
   11e14:	0407f793          	andi	a5,a5,64
   11e18:	1b812a03          	lw	s4,440(sp)
   11e1c:	1b412a83          	lw	s5,436(sp)
   11e20:	1b012b03          	lw	s6,432(sp)
   11e24:	1ac12b83          	lw	s7,428(sp)
   11e28:	1a812c03          	lw	s8,424(sp)
   11e2c:	1a412c83          	lw	s9,420(sp)
   11e30:	19c12d83          	lw	s11,412(sp)
   11e34:	00078463          	beqz	a5,11e3c <_vfprintf_r+0x42c>
   11e38:	6500206f          	j	14488 <_vfprintf_r+0x2a78>
   11e3c:	1cc12083          	lw	ra,460(sp)
   11e40:	1c812403          	lw	s0,456(sp)
   11e44:	01412503          	lw	a0,20(sp)
   11e48:	1c412483          	lw	s1,452(sp)
   11e4c:	1a012d03          	lw	s10,416(sp)
   11e50:	1d010113          	addi	sp,sp,464
   11e54:	00008067          	ret
   11e58:	008bf793          	andi	a5,s7,8
   11e5c:	00078463          	beqz	a5,11e64 <_vfprintf_r+0x454>
   11e60:	5200106f          	j	13380 <_vfprintf_r+0x1970>
   11e64:	01812783          	lw	a5,24(sp)
   11e68:	09010513          	addi	a0,sp,144
   11e6c:	01112e23          	sw	a7,28(sp)
   11e70:	00778793          	addi	a5,a5,7
   11e74:	ff87f793          	andi	a5,a5,-8
   11e78:	0047a603          	lw	a2,4(a5)
   11e7c:	0007a583          	lw	a1,0(a5)
   11e80:	00878793          	addi	a5,a5,8
   11e84:	00f12c23          	sw	a5,24(sp)
   11e88:	1250f0ef          	jal	217ac <__extenddftf2>
   11e8c:	09012603          	lw	a2,144(sp)
   11e90:	09412683          	lw	a3,148(sp)
   11e94:	09812703          	lw	a4,152(sp)
   11e98:	09c12783          	lw	a5,156(sp)
   11e9c:	01c12883          	lw	a7,28(sp)
   11ea0:	0d010513          	addi	a0,sp,208
   11ea4:	01112e23          	sw	a7,28(sp)
   11ea8:	0cf12e23          	sw	a5,220(sp)
   11eac:	0cc12823          	sw	a2,208(sp)
   11eb0:	0cd12a23          	sw	a3,212(sp)
   11eb4:	0ce12c23          	sw	a4,216(sp)
   11eb8:	050040ef          	jal	15f08 <_ldcheck>
   11ebc:	0aa12423          	sw	a0,168(sp)
   11ec0:	00200793          	li	a5,2
   11ec4:	01c12883          	lw	a7,28(sp)
   11ec8:	00f51463          	bne	a0,a5,11ed0 <_vfprintf_r+0x4c0>
   11ecc:	1bd0106f          	j	13888 <_vfprintf_r+0x1e78>
   11ed0:	00100793          	li	a5,1
   11ed4:	00f51463          	bne	a0,a5,11edc <_vfprintf_r+0x4cc>
   11ed8:	3450106f          	j	13a1c <_vfprintf_r+0x200c>
   11edc:	fdf8fc13          	andi	s8,a7,-33
   11ee0:	04100793          	li	a5,65
   11ee4:	00fc0463          	beq	s8,a5,11eec <_vfprintf_r+0x4dc>
   11ee8:	3850106f          	j	13a6c <_vfprintf_r+0x205c>
   11eec:	03000793          	li	a5,48
   11ef0:	0af10223          	sb	a5,164(sp)
   11ef4:	06100713          	li	a4,97
   11ef8:	05800793          	li	a5,88
   11efc:	00e89463          	bne	a7,a4,11f04 <_vfprintf_r+0x4f4>
   11f00:	7fd0106f          	j	13efc <_vfprintf_r+0x24ec>
   11f04:	0af102a3          	sb	a5,165(sp)
   11f08:	06300793          	li	a5,99
   11f0c:	0127d463          	bge	a5,s2,11f14 <_vfprintf_r+0x504>
   11f10:	7f50106f          	j	13f04 <_vfprintf_r+0x24f4>
   11f14:	0dc12703          	lw	a4,220(sp)
   11f18:	0d012683          	lw	a3,208(sp)
   11f1c:	0d412603          	lw	a2,212(sp)
   11f20:	0d812583          	lw	a1,216(sp)
   11f24:	00075463          	bgez	a4,11f2c <_vfprintf_r+0x51c>
   11f28:	73c0206f          	j	14664 <_vfprintf_r+0x2c54>
   11f2c:	12c10793          	addi	a5,sp,300
   11f30:	04012223          	sw	zero,68(sp)
   11f34:	00012e23          	sw	zero,28(sp)
   11f38:	02f12023          	sw	a5,32(sp)
   11f3c:	09010d93          	addi	s11,sp,144
   11f40:	002be793          	ori	a5,s7,2
   11f44:	08c12223          	sw	a2,132(sp)
   11f48:	08b12423          	sw	a1,136(sp)
   11f4c:	000d8513          	mv	a0,s11
   11f50:	08010593          	addi	a1,sp,128
   11f54:	0a810613          	addi	a2,sp,168
   11f58:	05112a23          	sw	a7,84(sp)
   11f5c:	02f12623          	sw	a5,44(sp)
   11f60:	08d12023          	sw	a3,128(sp)
   11f64:	08e12623          	sw	a4,140(sp)
   11f68:	301030ef          	jal	15a68 <frexpl>
   11f6c:	09812703          	lw	a4,152(sp)
   11f70:	09012603          	lw	a2,144(sp)
   11f74:	09412683          	lw	a3,148(sp)
   11f78:	08e12423          	sw	a4,136(sp)
   11f7c:	09c12703          	lw	a4,156(sp)
   11f80:	08c12023          	sw	a2,128(sp)
   11f84:	08d12223          	sw	a3,132(sp)
   11f88:	07010613          	addi	a2,sp,112
   11f8c:	3ffc06b7          	lui	a3,0x3ffc0
   11f90:	08010593          	addi	a1,sp,128
   11f94:	000d8513          	mv	a0,s11
   11f98:	06d12e23          	sw	a3,124(sp)
   11f9c:	08e12623          	sw	a4,140(sp)
   11fa0:	06012823          	sw	zero,112(sp)
   11fa4:	06012a23          	sw	zero,116(sp)
   11fa8:	06012c23          	sw	zero,120(sp)
   11fac:	6950c0ef          	jal	1ee40 <__multf3>
   11fb0:	09012e03          	lw	t3,144(sp)
   11fb4:	09412803          	lw	a6,148(sp)
   11fb8:	09812603          	lw	a2,152(sp)
   11fbc:	09c12683          	lw	a3,156(sp)
   11fc0:	08010593          	addi	a1,sp,128
   11fc4:	000d8513          	mv	a0,s11
   11fc8:	05c12823          	sw	t3,80(sp)
   11fcc:	05012423          	sw	a6,72(sp)
   11fd0:	02c12c23          	sw	a2,56(sp)
   11fd4:	02d12423          	sw	a3,40(sp)
   11fd8:	08012023          	sw	zero,128(sp)
   11fdc:	08012223          	sw	zero,132(sp)
   11fe0:	08012423          	sw	zero,136(sp)
   11fe4:	08012623          	sw	zero,140(sp)
   11fe8:	3010c0ef          	jal	1eae8 <__eqtf2>
   11fec:	02812683          	lw	a3,40(sp)
   11ff0:	03812603          	lw	a2,56(sp)
   11ff4:	04812803          	lw	a6,72(sp)
   11ff8:	05012e03          	lw	t3,80(sp)
   11ffc:	05412883          	lw	a7,84(sp)
   12000:	00051663          	bnez	a0,1200c <_vfprintf_r+0x5fc>
   12004:	00100713          	li	a4,1
   12008:	0ae12423          	sw	a4,168(sp)
   1200c:	06100713          	li	a4,97
   12010:	00e89463          	bne	a7,a4,12018 <_vfprintf_r+0x608>
   12014:	0f90206f          	j	1490c <_vfprintf_r+0x2efc>
   12018:	00022737          	lui	a4,0x22
   1201c:	b0070793          	addi	a5,a4,-1280 # 21b00 <__clzsi2+0x84>
   12020:	02f12423          	sw	a5,40(sp)
   12024:	03612c23          	sw	s6,56(sp)
   12028:	04912a23          	sw	s1,84(sp)
   1202c:	02012b83          	lw	s7,32(sp)
   12030:	02812483          	lw	s1,40(sp)
   12034:	05112423          	sw	a7,72(sp)
   12038:	05a12823          	sw	s10,80(sp)
   1203c:	000e0c93          	mv	s9,t3
   12040:	00080a93          	mv	s5,a6
   12044:	00060b13          	mv	s6,a2
   12048:	00068c13          	mv	s8,a3
   1204c:	03c0006f          	j	12088 <_vfprintf_r+0x678>
   12050:	08010593          	addi	a1,sp,128
   12054:	000d8513          	mv	a0,s11
   12058:	09912823          	sw	s9,144(sp)
   1205c:	09512a23          	sw	s5,148(sp)
   12060:	09612c23          	sw	s6,152(sp)
   12064:	09812e23          	sw	s8,156(sp)
   12068:	08012023          	sw	zero,128(sp)
   1206c:	08012223          	sw	zero,132(sp)
   12070:	08012423          	sw	zero,136(sp)
   12074:	08012623          	sw	zero,140(sp)
   12078:	2710c0ef          	jal	1eae8 <__eqtf2>
   1207c:	00051463          	bnez	a0,12084 <_vfprintf_r+0x674>
   12080:	7140206f          	j	14794 <_vfprintf_r+0x2d84>
   12084:	fff90913          	addi	s2,s2,-1
   12088:	400307b7          	lui	a5,0x40030
   1208c:	07010613          	addi	a2,sp,112
   12090:	08010593          	addi	a1,sp,128
   12094:	000d8513          	mv	a0,s11
   12098:	06f12e23          	sw	a5,124(sp)
   1209c:	09912023          	sw	s9,128(sp)
   120a0:	09512223          	sw	s5,132(sp)
   120a4:	09612423          	sw	s6,136(sp)
   120a8:	09812623          	sw	s8,140(sp)
   120ac:	06012823          	sw	zero,112(sp)
   120b0:	06012a23          	sw	zero,116(sp)
   120b4:	06012c23          	sw	zero,120(sp)
   120b8:	5890c0ef          	jal	1ee40 <__multf3>
   120bc:	000d8513          	mv	a0,s11
   120c0:	4ac0f0ef          	jal	2156c <__fixtfsi>
   120c4:	00050593          	mv	a1,a0
   120c8:	00050d13          	mv	s10,a0
   120cc:	000d8513          	mv	a0,s11
   120d0:	09012c03          	lw	s8,144(sp)
   120d4:	09412b03          	lw	s6,148(sp)
   120d8:	09812a83          	lw	s5,152(sp)
   120dc:	09c12c83          	lw	s9,156(sp)
   120e0:	5800f0ef          	jal	21660 <__floatsitf>
   120e4:	09812703          	lw	a4,152(sp)
   120e8:	09012603          	lw	a2,144(sp)
   120ec:	09412683          	lw	a3,148(sp)
   120f0:	06e12423          	sw	a4,104(sp)
   120f4:	09c12703          	lw	a4,156(sp)
   120f8:	06c12023          	sw	a2,96(sp)
   120fc:	07010593          	addi	a1,sp,112
   12100:	06010613          	addi	a2,sp,96
   12104:	08010513          	addi	a0,sp,128
   12108:	07812823          	sw	s8,112(sp)
   1210c:	07612a23          	sw	s6,116(sp)
   12110:	07512c23          	sw	s5,120(sp)
   12114:	07912e23          	sw	s9,124(sp)
   12118:	06e12623          	sw	a4,108(sp)
   1211c:	06d12223          	sw	a3,100(sp)
   12120:	0440e0ef          	jal	20164 <__subtf3>
   12124:	01a48733          	add	a4,s1,s10
   12128:	00074703          	lbu	a4,0(a4)
   1212c:	000b8593          	mv	a1,s7
   12130:	001b8b93          	addi	s7,s7,1
   12134:	08012c83          	lw	s9,128(sp)
   12138:	08412a83          	lw	s5,132(sp)
   1213c:	08812b03          	lw	s6,136(sp)
   12140:	08c12c03          	lw	s8,140(sp)
   12144:	feeb8fa3          	sb	a4,-1(s7)
   12148:	f00914e3          	bnez	s2,12050 <_vfprintf_r+0x640>
   1214c:	04812883          	lw	a7,72(sp)
   12150:	000a8813          	mv	a6,s5
   12154:	000b0613          	mv	a2,s6
   12158:	000c0693          	mv	a3,s8
   1215c:	00058a93          	mv	s5,a1
   12160:	3ffe0937          	lui	s2,0x3ffe0
   12164:	08010593          	addi	a1,sp,128
   12168:	000d8513          	mv	a0,s11
   1216c:	05112e23          	sw	a7,92(sp)
   12170:	05412483          	lw	s1,84(sp)
   12174:	000d0c13          	mv	s8,s10
   12178:	09912823          	sw	s9,144(sp)
   1217c:	05012d03          	lw	s10,80(sp)
   12180:	05912c23          	sw	s9,88(sp)
   12184:	09012a23          	sw	a6,148(sp)
   12188:	05012a23          	sw	a6,84(sp)
   1218c:	08c12c23          	sw	a2,152(sp)
   12190:	04c12823          	sw	a2,80(sp)
   12194:	08d12e23          	sw	a3,156(sp)
   12198:	04d12423          	sw	a3,72(sp)
   1219c:	08012023          	sw	zero,128(sp)
   121a0:	08012223          	sw	zero,132(sp)
   121a4:	08012423          	sw	zero,136(sp)
   121a8:	09212623          	sw	s2,140(sp)
   121ac:	22d0c0ef          	jal	1ebd8 <__getf2>
   121b0:	03812b03          	lw	s6,56(sp)
   121b4:	05c12883          	lw	a7,92(sp)
   121b8:	02a04263          	bgtz	a0,121dc <_vfprintf_r+0x7cc>
   121bc:	08010593          	addi	a1,sp,128
   121c0:	000d8513          	mv	a0,s11
   121c4:	03112c23          	sw	a7,56(sp)
   121c8:	1210c0ef          	jal	1eae8 <__eqtf2>
   121cc:	03812883          	lw	a7,56(sp)
   121d0:	04051c63          	bnez	a0,12228 <_vfprintf_r+0x818>
   121d4:	001c7793          	andi	a5,s8,1
   121d8:	04078863          	beqz	a5,12228 <_vfprintf_r+0x818>
   121dc:	02812783          	lw	a5,40(sp)
   121e0:	0b512823          	sw	s5,176(sp)
   121e4:	fffbc603          	lbu	a2,-1(s7)
   121e8:	00f7c583          	lbu	a1,15(a5) # 4003000f <__BSS_END__+0x4000c22b>
   121ec:	000b8693          	mv	a3,s7
   121f0:	02c59063          	bne	a1,a2,12210 <_vfprintf_r+0x800>
   121f4:	03000513          	li	a0,48
   121f8:	fea68fa3          	sb	a0,-1(a3) # 3ffbffff <__BSS_END__+0x3ff9c21b>
   121fc:	0b012683          	lw	a3,176(sp)
   12200:	fff68793          	addi	a5,a3,-1
   12204:	0af12823          	sw	a5,176(sp)
   12208:	fff6c603          	lbu	a2,-1(a3)
   1220c:	fec586e3          	beq	a1,a2,121f8 <_vfprintf_r+0x7e8>
   12210:	00160593          	addi	a1,a2,1
   12214:	03900513          	li	a0,57
   12218:	0ff5f593          	zext.b	a1,a1
   1221c:	00a61463          	bne	a2,a0,12224 <_vfprintf_r+0x814>
   12220:	0780206f          	j	14298 <_vfprintf_r+0x2888>
   12224:	feb68fa3          	sb	a1,-1(a3)
   12228:	0a812603          	lw	a2,168(sp)
   1222c:	02012783          	lw	a5,32(sp)
   12230:	00f88693          	addi	a3,a7,15
   12234:	fff60c13          	addi	s8,a2,-1
   12238:	40fb87b3          	sub	a5,s7,a5
   1223c:	0ad10a23          	sb	a3,180(sp)
   12240:	0b812423          	sw	s8,168(sp)
   12244:	02f12423          	sw	a5,40(sp)
   12248:	000c5463          	bgez	s8,12250 <_vfprintf_r+0x840>
   1224c:	6a40206f          	j	148f0 <_vfprintf_r+0x2ee0>
   12250:	02b00713          	li	a4,43
   12254:	0ae10aa3          	sb	a4,181(sp)
   12258:	00900713          	li	a4,9
   1225c:	01875463          	bge	a4,s8,12264 <_vfprintf_r+0x854>
   12260:	7510106f          	j	141b0 <_vfprintf_r+0x27a0>
   12264:	0b610713          	addi	a4,sp,182
   12268:	19010793          	addi	a5,sp,400
   1226c:	030c0693          	addi	a3,s8,48
   12270:	00d70023          	sb	a3,0(a4)
   12274:	40f70733          	sub	a4,a4,a5
   12278:	0dd70793          	addi	a5,a4,221
   1227c:	02f12c23          	sw	a5,56(sp)
   12280:	7c50106f          	j	14244 <_vfprintf_r+0x2834>
   12284:	00c12503          	lw	a0,12(sp)
   12288:	0c410613          	addi	a2,sp,196
   1228c:	00048593          	mv	a1,s1
   12290:	04612a23          	sw	t1,84(sp)
   12294:	05e12823          	sw	t5,80(sp)
   12298:	05112423          	sw	a7,72(sp)
   1229c:	04e12223          	sw	a4,68(sp)
   122a0:	009020ef          	jal	14aa8 <__sprint_r>
   122a4:	b4051ae3          	bnez	a0,11df8 <_vfprintf_r+0x3e8>
   122a8:	0cc12603          	lw	a2,204(sp)
   122ac:	05412303          	lw	t1,84(sp)
   122b0:	05012f03          	lw	t5,80(sp)
   122b4:	04812883          	lw	a7,72(sp)
   122b8:	04412703          	lw	a4,68(sp)
   122bc:	00098b13          	mv	s6,s3
   122c0:	9d9ff06f          	j	11c98 <_vfprintf_r+0x288>
   122c4:	0c812903          	lw	s2,200(sp)
   122c8:	02812783          	lw	a5,40(sp)
   122cc:	00100713          	li	a4,1
   122d0:	00e60633          	add	a2,a2,a4
   122d4:	00e90933          	add	s2,s2,a4
   122d8:	008b0d93          	addi	s11,s6,8
   122dc:	6cf754e3          	bge	a4,a5,131a4 <_vfprintf_r+0x1794>
   122e0:	02012783          	lw	a5,32(sp)
   122e4:	00100713          	li	a4,1
   122e8:	00eb2223          	sw	a4,4(s6)
   122ec:	00fb2023          	sw	a5,0(s6)
   122f0:	0cc12623          	sw	a2,204(sp)
   122f4:	0d212423          	sw	s2,200(sp)
   122f8:	00700713          	li	a4,7
   122fc:	01275463          	bge	a4,s2,12304 <_vfprintf_r+0x8f4>
   12300:	3c00106f          	j	136c0 <_vfprintf_r+0x1cb0>
   12304:	03012783          	lw	a5,48(sp)
   12308:	00190913          	addi	s2,s2,1 # 3ffe0001 <__BSS_END__+0x3ffbc21d>
   1230c:	0d212423          	sw	s2,200(sp)
   12310:	00f60633          	add	a2,a2,a5
   12314:	03412783          	lw	a5,52(sp)
   12318:	0cc12623          	sw	a2,204(sp)
   1231c:	00700713          	li	a4,7
   12320:	00fda023          	sw	a5,0(s11)
   12324:	03012783          	lw	a5,48(sp)
   12328:	008d8d93          	addi	s11,s11,8
   1232c:	fefdae23          	sw	a5,-4(s11)
   12330:	01275463          	bge	a4,s2,12338 <_vfprintf_r+0x928>
   12334:	3640106f          	j	13698 <_vfprintf_r+0x1c88>
   12338:	0d812703          	lw	a4,216(sp)
   1233c:	0d012503          	lw	a0,208(sp)
   12340:	0d412583          	lw	a1,212(sp)
   12344:	02812783          	lw	a5,40(sp)
   12348:	08e12c23          	sw	a4,152(sp)
   1234c:	0dc12703          	lw	a4,220(sp)
   12350:	08a12823          	sw	a0,144(sp)
   12354:	08b12a23          	sw	a1,148(sp)
   12358:	09010513          	addi	a0,sp,144
   1235c:	08010593          	addi	a1,sp,128
   12360:	02c12623          	sw	a2,44(sp)
   12364:	08012023          	sw	zero,128(sp)
   12368:	08012223          	sw	zero,132(sp)
   1236c:	08012423          	sw	zero,136(sp)
   12370:	08012623          	sw	zero,140(sp)
   12374:	08e12e23          	sw	a4,156(sp)
   12378:	fff78b13          	addi	s6,a5,-1
   1237c:	76c0c0ef          	jal	1eae8 <__eqtf2>
   12380:	02c12603          	lw	a2,44(sp)
   12384:	660506e3          	beqz	a0,131f0 <_vfprintf_r+0x17e0>
   12388:	02012783          	lw	a5,32(sp)
   1238c:	00190913          	addi	s2,s2,1
   12390:	01660633          	add	a2,a2,s6
   12394:	00178793          	addi	a5,a5,1
   12398:	0d212423          	sw	s2,200(sp)
   1239c:	0cc12623          	sw	a2,204(sp)
   123a0:	00fda023          	sw	a5,0(s11)
   123a4:	016da223          	sw	s6,4(s11)
   123a8:	00700793          	li	a5,7
   123ac:	6127cee3          	blt	a5,s2,131c8 <_vfprintf_r+0x17b8>
   123b0:	008d8d93          	addi	s11,s11,8
   123b4:	03812783          	lw	a5,56(sp)
   123b8:	03812683          	lw	a3,56(sp)
   123bc:	0b410713          	addi	a4,sp,180
   123c0:	00c78633          	add	a2,a5,a2
   123c4:	00190793          	addi	a5,s2,1
   123c8:	00eda023          	sw	a4,0(s11)
   123cc:	0cc12623          	sw	a2,204(sp)
   123d0:	0cf12423          	sw	a5,200(sp)
   123d4:	00dda223          	sw	a3,4(s11)
   123d8:	00700713          	li	a4,7
   123dc:	008d8b13          	addi	s6,s11,8
   123e0:	92f75ce3          	bge	a4,a5,11d18 <_vfprintf_r+0x308>
   123e4:	00c12503          	lw	a0,12(sp)
   123e8:	0c410613          	addi	a2,sp,196
   123ec:	00048593          	mv	a1,s1
   123f0:	6b8020ef          	jal	14aa8 <__sprint_r>
   123f4:	a00512e3          	bnez	a0,11df8 <_vfprintf_r+0x3e8>
   123f8:	0cc12603          	lw	a2,204(sp)
   123fc:	00098b13          	mv	s6,s3
   12400:	919ff06f          	j	11d18 <_vfprintf_r+0x308>
   12404:	01812783          	lw	a5,24(sp)
   12408:	00100f13          	li	t5,1
   1240c:	0a0101a3          	sb	zero,163(sp)
   12410:	0007a783          	lw	a5,0(a5)
   12414:	12f10623          	sb	a5,300(sp)
   12418:	01812783          	lw	a5,24(sp)
   1241c:	00478793          	addi	a5,a5,4
   12420:	00f12c23          	sw	a5,24(sp)
   12424:	809ff06f          	j	11c2c <_vfprintf_r+0x21c>
   12428:	01812783          	lw	a5,24(sp)
   1242c:	0a0101a3          	sb	zero,163(sp)
   12430:	0007a783          	lw	a5,0(a5)
   12434:	02f12023          	sw	a5,32(sp)
   12438:	01812783          	lw	a5,24(sp)
   1243c:	00478a93          	addi	s5,a5,4
   12440:	02012783          	lw	a5,32(sp)
   12444:	00079463          	bnez	a5,1244c <_vfprintf_r+0xa3c>
   12448:	0e80106f          	j	13530 <_vfprintf_r+0x1b20>
   1244c:	01112c23          	sw	a7,24(sp)
   12450:	00095463          	bgez	s2,12458 <_vfprintf_r+0xa48>
   12454:	1e00106f          	j	13634 <_vfprintf_r+0x1c24>
   12458:	02012c03          	lw	s8,32(sp)
   1245c:	00090613          	mv	a2,s2
   12460:	00000593          	li	a1,0
   12464:	000c0513          	mv	a0,s8
   12468:	108030ef          	jal	15570 <memchr>
   1246c:	00a12e23          	sw	a0,28(sp)
   12470:	0a314703          	lbu	a4,163(sp)
   12474:	01812883          	lw	a7,24(sp)
   12478:	00051463          	bnez	a0,12480 <_vfprintf_r+0xa70>
   1247c:	0180206f          	j	14494 <_vfprintf_r+0x2a84>
   12480:	41850f33          	sub	t5,a0,s8
   12484:	ffff4693          	not	a3,t5
   12488:	41f6d693          	srai	a3,a3,0x1f
   1248c:	00df7c33          	and	s8,t5,a3
   12490:	00070463          	beqz	a4,12498 <_vfprintf_r+0xa88>
   12494:	1c80106f          	j	1365c <_vfprintf_r+0x1c4c>
   12498:	01512c23          	sw	s5,24(sp)
   1249c:	0cc12603          	lw	a2,204(sp)
   124a0:	00012e23          	sw	zero,28(sp)
   124a4:	02012623          	sw	zero,44(sp)
   124a8:	084bfd93          	andi	s11,s7,132
   124ac:	00000913          	li	s2,0
   124b0:	00000c93          	li	s9,0
   124b4:	00000313          	li	t1,0
   124b8:	00060813          	mv	a6,a2
   124bc:	fa0d9063          	bnez	s11,11c5c <_vfprintf_r+0x24c>
   124c0:	01012783          	lw	a5,16(sp)
   124c4:	41878733          	sub	a4,a5,s8
   124c8:	4ae048e3          	bgtz	a4,13178 <_vfprintf_r+0x1768>
   124cc:	0a314703          	lbu	a4,163(sp)
   124d0:	f8071a63          	bnez	a4,11c64 <_vfprintf_r+0x254>
   124d4:	41e90933          	sub	s2,s2,t5
   124d8:	812056e3          	blez	s2,11ce4 <_vfprintf_r+0x2d4>
   124dc:	00022837          	lui	a6,0x22
   124e0:	0c812583          	lw	a1,200(sp)
   124e4:	d9480813          	addi	a6,a6,-620 # 21d94 <zeroes.0>
   124e8:	09245263          	bge	s0,s2,1256c <_vfprintf_r+0xb5c>
   124ec:	000b0793          	mv	a5,s6
   124f0:	00700d93          	li	s11,7
   124f4:	05112223          	sw	a7,68(sp)
   124f8:	000f0a93          	mv	s5,t5
   124fc:	04612423          	sw	t1,72(sp)
   12500:	000a0b13          	mv	s6,s4
   12504:	00c0006f          	j	12510 <_vfprintf_r+0xb00>
   12508:	ff090913          	addi	s2,s2,-16
   1250c:	05245663          	bge	s0,s2,12558 <_vfprintf_r+0xb48>
   12510:	01060613          	addi	a2,a2,16
   12514:	00158593          	addi	a1,a1,1
   12518:	0147a023          	sw	s4,0(a5)
   1251c:	0087a223          	sw	s0,4(a5)
   12520:	0cc12623          	sw	a2,204(sp)
   12524:	0cb12423          	sw	a1,200(sp)
   12528:	00878793          	addi	a5,a5,8
   1252c:	fcbddee3          	bge	s11,a1,12508 <_vfprintf_r+0xaf8>
   12530:	00c12503          	lw	a0,12(sp)
   12534:	0c410613          	addi	a2,sp,196
   12538:	00048593          	mv	a1,s1
   1253c:	56c020ef          	jal	14aa8 <__sprint_r>
   12540:	8a051ce3          	bnez	a0,11df8 <_vfprintf_r+0x3e8>
   12544:	ff090913          	addi	s2,s2,-16
   12548:	0cc12603          	lw	a2,204(sp)
   1254c:	0c812583          	lw	a1,200(sp)
   12550:	00098793          	mv	a5,s3
   12554:	fb244ee3          	blt	s0,s2,12510 <_vfprintf_r+0xb00>
   12558:	04412883          	lw	a7,68(sp)
   1255c:	04812303          	lw	t1,72(sp)
   12560:	000b0813          	mv	a6,s6
   12564:	000a8f13          	mv	t5,s5
   12568:	00078b13          	mv	s6,a5
   1256c:	01260633          	add	a2,a2,s2
   12570:	00158593          	addi	a1,a1,1
   12574:	010b2023          	sw	a6,0(s6)
   12578:	012b2223          	sw	s2,4(s6)
   1257c:	0cc12623          	sw	a2,204(sp)
   12580:	0cb12423          	sw	a1,200(sp)
   12584:	00700713          	li	a4,7
   12588:	008b0b13          	addi	s6,s6,8
   1258c:	f4b75c63          	bge	a4,a1,11ce4 <_vfprintf_r+0x2d4>
   12590:	00c12503          	lw	a0,12(sp)
   12594:	0c410613          	addi	a2,sp,196
   12598:	00048593          	mv	a1,s1
   1259c:	04612823          	sw	t1,80(sp)
   125a0:	05e12423          	sw	t5,72(sp)
   125a4:	05112223          	sw	a7,68(sp)
   125a8:	500020ef          	jal	14aa8 <__sprint_r>
   125ac:	840516e3          	bnez	a0,11df8 <_vfprintf_r+0x3e8>
   125b0:	100bf713          	andi	a4,s7,256
   125b4:	0cc12603          	lw	a2,204(sp)
   125b8:	05012303          	lw	t1,80(sp)
   125bc:	04812f03          	lw	t5,72(sp)
   125c0:	04412883          	lw	a7,68(sp)
   125c4:	00098b13          	mv	s6,s3
   125c8:	f2070263          	beqz	a4,11cec <_vfprintf_r+0x2dc>
   125cc:	06500713          	li	a4,101
   125d0:	cf175ae3          	bge	a4,a7,122c4 <_vfprintf_r+0x8b4>
   125d4:	0d412703          	lw	a4,212(sp)
   125d8:	0d012583          	lw	a1,208(sp)
   125dc:	0d812503          	lw	a0,216(sp)
   125e0:	08e12a23          	sw	a4,148(sp)
   125e4:	0dc12703          	lw	a4,220(sp)
   125e8:	08b12823          	sw	a1,144(sp)
   125ec:	08a12c23          	sw	a0,152(sp)
   125f0:	08010593          	addi	a1,sp,128
   125f4:	09010513          	addi	a0,sp,144
   125f8:	04c12223          	sw	a2,68(sp)
   125fc:	04612423          	sw	t1,72(sp)
   12600:	08012023          	sw	zero,128(sp)
   12604:	08012223          	sw	zero,132(sp)
   12608:	08012423          	sw	zero,136(sp)
   1260c:	08012623          	sw	zero,140(sp)
   12610:	08e12e23          	sw	a4,156(sp)
   12614:	4d40c0ef          	jal	1eae8 <__eqtf2>
   12618:	04412603          	lw	a2,68(sp)
   1261c:	04812303          	lw	t1,72(sp)
   12620:	120516e3          	bnez	a0,12f4c <_vfprintf_r+0x153c>
   12624:	0c812783          	lw	a5,200(sp)
   12628:	00022737          	lui	a4,0x22
   1262c:	b1c70713          	addi	a4,a4,-1252 # 21b1c <__clzsi2+0xa0>
   12630:	00eb2023          	sw	a4,0(s6)
   12634:	00160613          	addi	a2,a2,1
   12638:	00100713          	li	a4,1
   1263c:	00178793          	addi	a5,a5,1
   12640:	00eb2223          	sw	a4,4(s6)
   12644:	0cc12623          	sw	a2,204(sp)
   12648:	0cf12423          	sw	a5,200(sp)
   1264c:	00700713          	li	a4,7
   12650:	008b0b13          	addi	s6,s6,8
   12654:	00f75463          	bge	a4,a5,1265c <_vfprintf_r+0xc4c>
   12658:	1e00106f          	j	13838 <_vfprintf_r+0x1e28>
   1265c:	0a812783          	lw	a5,168(sp)
   12660:	02812703          	lw	a4,40(sp)
   12664:	40e7d6e3          	bge	a5,a4,13270 <_vfprintf_r+0x1860>
   12668:	03012703          	lw	a4,48(sp)
   1266c:	0c812783          	lw	a5,200(sp)
   12670:	008b0b13          	addi	s6,s6,8
   12674:	00e60633          	add	a2,a2,a4
   12678:	03412703          	lw	a4,52(sp)
   1267c:	00178793          	addi	a5,a5,1
   12680:	0cc12623          	sw	a2,204(sp)
   12684:	feeb2c23          	sw	a4,-8(s6)
   12688:	03012703          	lw	a4,48(sp)
   1268c:	0cf12423          	sw	a5,200(sp)
   12690:	feeb2e23          	sw	a4,-4(s6)
   12694:	00700713          	li	a4,7
   12698:	60f746e3          	blt	a4,a5,134a4 <_vfprintf_r+0x1a94>
   1269c:	02812783          	lw	a5,40(sp)
   126a0:	fff78913          	addi	s2,a5,-1
   126a4:	e7205a63          	blez	s2,11d18 <_vfprintf_r+0x308>
   126a8:	00022837          	lui	a6,0x22
   126ac:	01000c93          	li	s9,16
   126b0:	0c812783          	lw	a5,200(sp)
   126b4:	00700d93          	li	s11,7
   126b8:	d9480a93          	addi	s5,a6,-620 # 21d94 <zeroes.0>
   126bc:	012cca63          	blt	s9,s2,126d0 <_vfprintf_r+0xcc0>
   126c0:	1bd0006f          	j	1307c <_vfprintf_r+0x166c>
   126c4:	ff090913          	addi	s2,s2,-16
   126c8:	012cc463          	blt	s9,s2,126d0 <_vfprintf_r+0xcc0>
   126cc:	1900106f          	j	1385c <_vfprintf_r+0x1e4c>
   126d0:	01060613          	addi	a2,a2,16
   126d4:	00178793          	addi	a5,a5,1
   126d8:	015b2023          	sw	s5,0(s6)
   126dc:	019b2223          	sw	s9,4(s6)
   126e0:	0cc12623          	sw	a2,204(sp)
   126e4:	0cf12423          	sw	a5,200(sp)
   126e8:	008b0b13          	addi	s6,s6,8
   126ec:	fcfddce3          	bge	s11,a5,126c4 <_vfprintf_r+0xcb4>
   126f0:	00c12503          	lw	a0,12(sp)
   126f4:	0c410613          	addi	a2,sp,196
   126f8:	00048593          	mv	a1,s1
   126fc:	3ac020ef          	jal	14aa8 <__sprint_r>
   12700:	ee051c63          	bnez	a0,11df8 <_vfprintf_r+0x3e8>
   12704:	0cc12603          	lw	a2,204(sp)
   12708:	0c812783          	lw	a5,200(sp)
   1270c:	00098b13          	mv	s6,s3
   12710:	fb5ff06f          	j	126c4 <_vfprintf_r+0xcb4>
   12714:	020bf793          	andi	a5,s7,32
   12718:	0c079863          	bnez	a5,127e8 <_vfprintf_r+0xdd8>
   1271c:	01812783          	lw	a5,24(sp)
   12720:	010bf713          	andi	a4,s7,16
   12724:	00478793          	addi	a5,a5,4
   12728:	00070463          	beqz	a4,12730 <_vfprintf_r+0xd20>
   1272c:	5f10106f          	j	1451c <_vfprintf_r+0x2b0c>
   12730:	01812703          	lw	a4,24(sp)
   12734:	040bf693          	andi	a3,s7,64
   12738:	00072703          	lw	a4,0(a4)
   1273c:	00069463          	bnez	a3,12744 <_vfprintf_r+0xd34>
   12740:	27c0106f          	j	139bc <_vfprintf_r+0x1fac>
   12744:	01071d93          	slli	s11,a4,0x10
   12748:	410ddd93          	srai	s11,s11,0x10
   1274c:	41fdd813          	srai	a6,s11,0x1f
   12750:	00f12c23          	sw	a5,24(sp)
   12754:	00080693          	mv	a3,a6
   12758:	0a06ca63          	bltz	a3,1280c <_vfprintf_r+0xdfc>
   1275c:	0c094863          	bltz	s2,1282c <_vfprintf_r+0xe1c>
   12760:	010de7b3          	or	a5,s11,a6
   12764:	f7fbfb93          	andi	s7,s7,-129
   12768:	0c079263          	bnez	a5,1282c <_vfprintf_r+0xe1c>
   1276c:	0c091063          	bnez	s2,1282c <_vfprintf_r+0xe1c>
   12770:	0a314e83          	lbu	t4,163(sp)
   12774:	000e9463          	bnez	t4,1277c <_vfprintf_r+0xd6c>
   12778:	2800106f          	j	139f8 <_vfprintf_r+0x1fe8>
   1277c:	00000c13          	li	s8,0
   12780:	19010793          	addi	a5,sp,400
   12784:	00000313          	li	t1,0
   12788:	00012e23          	sw	zero,28(sp)
   1278c:	00000f13          	li	t5,0
   12790:	00000913          	li	s2,0
   12794:	02f12023          	sw	a5,32(sp)
   12798:	001c0c13          	addi	s8,s8,1
   1279c:	00031463          	bnez	t1,127a4 <_vfprintf_r+0xd94>
   127a0:	1e80206f          	j	14988 <_vfprintf_r+0x2f78>
   127a4:	0cc12603          	lw	a2,204(sp)
   127a8:	0c812583          	lw	a1,200(sp)
   127ac:	084bfd93          	andi	s11,s7,132
   127b0:	002c0c13          	addi	s8,s8,2
   127b4:	00060813          	mv	a6,a2
   127b8:	00058513          	mv	a0,a1
   127bc:	5e0d8e63          	beqz	s11,12db8 <_vfprintf_r+0x13a8>
   127c0:	02012623          	sw	zero,44(sp)
   127c4:	00000c93          	li	s9,0
   127c8:	00000313          	li	t1,0
   127cc:	cc0e8a63          	beqz	t4,11ca0 <_vfprintf_r+0x290>
   127d0:	00200713          	li	a4,2
   127d4:	c98ff06f          	j	11c6c <_vfprintf_r+0x25c>
   127d8:	020bf793          	andi	a5,s7,32
   127dc:	010bee13          	ori	t3,s7,16
   127e0:	320788e3          	beqz	a5,13310 <_vfprintf_r+0x1900>
   127e4:	000e0b93          	mv	s7,t3
   127e8:	01812783          	lw	a5,24(sp)
   127ec:	00778793          	addi	a5,a5,7
   127f0:	ff87f793          	andi	a5,a5,-8
   127f4:	0047a683          	lw	a3,4(a5)
   127f8:	00878713          	addi	a4,a5,8
   127fc:	00e12c23          	sw	a4,24(sp)
   12800:	0007ad83          	lw	s11,0(a5)
   12804:	00068813          	mv	a6,a3
   12808:	f406dae3          	bgez	a3,1275c <_vfprintf_r+0xd4c>
   1280c:	01b037b3          	snez	a5,s11
   12810:	41000833          	neg	a6,a6
   12814:	40f80833          	sub	a6,a6,a5
   12818:	02d00793          	li	a5,45
   1281c:	0af101a3          	sb	a5,163(sp)
   12820:	41b00db3          	neg	s11,s11
   12824:	00094463          	bltz	s2,1282c <_vfprintf_r+0xe1c>
   12828:	f7fbfb93          	andi	s7,s7,-129
   1282c:	1e081263          	bnez	a6,12a10 <_vfprintf_r+0x1000>
   12830:	00900793          	li	a5,9
   12834:	1db7ee63          	bltu	a5,s11,12a10 <_vfprintf_r+0x1000>
   12838:	030d8713          	addi	a4,s11,48
   1283c:	18e107a3          	sb	a4,399(sp)
   12840:	00090c13          	mv	s8,s2
   12844:	392058e3          	blez	s2,133d4 <_vfprintf_r+0x19c4>
   12848:	0a314e83          	lbu	t4,163(sp)
   1284c:	18f10793          	addi	a5,sp,399
   12850:	00000313          	li	t1,0
   12854:	00100f13          	li	t5,1
   12858:	02f12023          	sw	a5,32(sp)
   1285c:	00012e23          	sw	zero,28(sp)
   12860:	f20e8ee3          	beqz	t4,1279c <_vfprintf_r+0xd8c>
   12864:	001c0c13          	addi	s8,s8,1
   12868:	f35ff06f          	j	1279c <_vfprintf_r+0xd8c>
   1286c:	01812783          	lw	a5,24(sp)
   12870:	0007a783          	lw	a5,0(a5)
   12874:	00f12823          	sw	a5,16(sp)
   12878:	2007d4e3          	bgez	a5,13280 <_vfprintf_r+0x1870>
   1287c:	01012783          	lw	a5,16(sp)
   12880:	40f007b3          	neg	a5,a5
   12884:	00f12823          	sw	a5,16(sp)
   12888:	01812783          	lw	a5,24(sp)
   1288c:	00478793          	addi	a5,a5,4
   12890:	00f12c23          	sw	a5,24(sp)
   12894:	000d4883          	lbu	a7,0(s10)
   12898:	004beb93          	ori	s7,s7,4
   1289c:	b1cff06f          	j	11bb8 <_vfprintf_r+0x1a8>
   128a0:	02b00793          	li	a5,43
   128a4:	000d4883          	lbu	a7,0(s10)
   128a8:	0af101a3          	sb	a5,163(sp)
   128ac:	b0cff06f          	j	11bb8 <_vfprintf_r+0x1a8>
   128b0:	000d4883          	lbu	a7,0(s10)
   128b4:	080beb93          	ori	s7,s7,128
   128b8:	b00ff06f          	j	11bb8 <_vfprintf_r+0x1a8>
   128bc:	000d4883          	lbu	a7,0(s10)
   128c0:	02a00793          	li	a5,42
   128c4:	001d0693          	addi	a3,s10,1
   128c8:	00f89463          	bne	a7,a5,128d0 <_vfprintf_r+0xec0>
   128cc:	0000206f          	j	148cc <_vfprintf_r+0x2ebc>
   128d0:	fd088793          	addi	a5,a7,-48
   128d4:	00900613          	li	a2,9
   128d8:	00000913          	li	s2,0
   128dc:	02f66463          	bltu	a2,a5,12904 <_vfprintf_r+0xef4>
   128e0:	00291713          	slli	a4,s2,0x2
   128e4:	0006c883          	lbu	a7,0(a3)
   128e8:	01270933          	add	s2,a4,s2
   128ec:	00191913          	slli	s2,s2,0x1
   128f0:	00f90933          	add	s2,s2,a5
   128f4:	fd088793          	addi	a5,a7,-48
   128f8:	00168693          	addi	a3,a3,1
   128fc:	fef672e3          	bgeu	a2,a5,128e0 <_vfprintf_r+0xed0>
   12900:	36094ce3          	bltz	s2,13478 <_vfprintf_r+0x1a68>
   12904:	00068d13          	mv	s10,a3
   12908:	ab4ff06f          	j	11bbc <_vfprintf_r+0x1ac>
   1290c:	00c12a83          	lw	s5,12(sp)
   12910:	000a8513          	mv	a0,s5
   12914:	5b1020ef          	jal	156c4 <_localeconv_r>
   12918:	00452783          	lw	a5,4(a0)
   1291c:	00078513          	mv	a0,a5
   12920:	04f12023          	sw	a5,64(sp)
   12924:	0b8030ef          	jal	159dc <strlen>
   12928:	00050793          	mv	a5,a0
   1292c:	000a8513          	mv	a0,s5
   12930:	04f12623          	sw	a5,76(sp)
   12934:	00078a93          	mv	s5,a5
   12938:	58d020ef          	jal	156c4 <_localeconv_r>
   1293c:	00852703          	lw	a4,8(a0)
   12940:	000d4883          	lbu	a7,0(s10)
   12944:	02e12e23          	sw	a4,60(sp)
   12948:	a60a8863          	beqz	s5,11bb8 <_vfprintf_r+0x1a8>
   1294c:	a6070663          	beqz	a4,11bb8 <_vfprintf_r+0x1a8>
   12950:	00074783          	lbu	a5,0(a4)
   12954:	a6078263          	beqz	a5,11bb8 <_vfprintf_r+0x1a8>
   12958:	400beb93          	ori	s7,s7,1024
   1295c:	a5cff06f          	j	11bb8 <_vfprintf_r+0x1a8>
   12960:	000d4883          	lbu	a7,0(s10)
   12964:	001beb93          	ori	s7,s7,1
   12968:	a50ff06f          	j	11bb8 <_vfprintf_r+0x1a8>
   1296c:	0a314783          	lbu	a5,163(sp)
   12970:	000d4883          	lbu	a7,0(s10)
   12974:	a4079263          	bnez	a5,11bb8 <_vfprintf_r+0x1a8>
   12978:	02000793          	li	a5,32
   1297c:	0af101a3          	sb	a5,163(sp)
   12980:	a38ff06f          	j	11bb8 <_vfprintf_r+0x1a8>
   12984:	020bf793          	andi	a5,s7,32
   12988:	010bee13          	ori	t3,s7,16
   1298c:	04079463          	bnez	a5,129d4 <_vfprintf_r+0xfc4>
   12990:	01812783          	lw	a5,24(sp)
   12994:	01812703          	lw	a4,24(sp)
   12998:	0a0101a3          	sb	zero,163(sp)
   1299c:	00478793          	addi	a5,a5,4
   129a0:	00072d83          	lw	s11,0(a4)
   129a4:	00000813          	li	a6,0
   129a8:	00095463          	bgez	s2,129b0 <_vfprintf_r+0xfa0>
   129ac:	10c0106f          	j	13ab8 <_vfprintf_r+0x20a8>
   129b0:	00f12c23          	sw	a5,24(sp)
   129b4:	f7fe7b93          	andi	s7,t3,-129
   129b8:	e60d9ce3          	bnez	s11,12830 <_vfprintf_r+0xe20>
   129bc:	e6091ae3          	bnez	s2,12830 <_vfprintf_r+0xe20>
   129c0:	00000313          	li	t1,0
   129c4:	2100006f          	j	12bd4 <_vfprintf_r+0x11c4>
   129c8:	020bf793          	andi	a5,s7,32
   129cc:	160784e3          	beqz	a5,13334 <_vfprintf_r+0x1924>
   129d0:	000b8e13          	mv	t3,s7
   129d4:	01812783          	lw	a5,24(sp)
   129d8:	0a0101a3          	sb	zero,163(sp)
   129dc:	00778793          	addi	a5,a5,7
   129e0:	ff87f793          	andi	a5,a5,-8
   129e4:	00878713          	addi	a4,a5,8
   129e8:	00e12c23          	sw	a4,24(sp)
   129ec:	0007ad83          	lw	s11,0(a5)
   129f0:	0047a803          	lw	a6,4(a5)
   129f4:	26094ee3          	bltz	s2,13470 <_vfprintf_r+0x1a60>
   129f8:	f7fe7b93          	andi	s7,t3,-129
   129fc:	e20918e3          	bnez	s2,1282c <_vfprintf_r+0xe1c>
   12a00:	010de7b3          	or	a5,s11,a6
   12a04:	e20794e3          	bnez	a5,1282c <_vfprintf_r+0xe1c>
   12a08:	00000313          	li	t1,0
   12a0c:	1c80006f          	j	12bd4 <_vfprintf_r+0x11c4>
   12a10:	400bfc93          	andi	s9,s7,1024
   12a14:	03612023          	sw	s6,32(sp)
   12a18:	03712623          	sw	s7,44(sp)
   12a1c:	05212223          	sw	s2,68(sp)
   12a20:	000d8b13          	mv	s6,s11
   12a24:	03112423          	sw	a7,40(sp)
   12a28:	00048d93          	mv	s11,s1
   12a2c:	00000913          	li	s2,0
   12a30:	00080b93          	mv	s7,a6
   12a34:	19010493          	addi	s1,sp,400
   12a38:	0340006f          	j	12a6c <_vfprintf_r+0x105c>
   12a3c:	000b0513          	mv	a0,s6
   12a40:	000b8593          	mv	a1,s7
   12a44:	00a00613          	li	a2,10
   12a48:	00000693          	li	a3,0
   12a4c:	01612e23          	sw	s6,28(sp)
   12a50:	000b8c13          	mv	s8,s7
   12a54:	4e0090ef          	jal	1bf34 <__udivdi3>
   12a58:	000a8493          	mv	s1,s5
   12a5c:	00050b13          	mv	s6,a0
   12a60:	00058b93          	mv	s7,a1
   12a64:	000c1463          	bnez	s8,12a6c <_vfprintf_r+0x105c>
   12a68:	2590106f          	j	144c0 <_vfprintf_r+0x2ab0>
   12a6c:	00a00613          	li	a2,10
   12a70:	00000693          	li	a3,0
   12a74:	000b0513          	mv	a0,s6
   12a78:	000b8593          	mv	a1,s7
   12a7c:	26d090ef          	jal	1c4e8 <__umoddi3>
   12a80:	03050793          	addi	a5,a0,48
   12a84:	fef48fa3          	sb	a5,-1(s1)
   12a88:	fff48a93          	addi	s5,s1,-1
   12a8c:	00190913          	addi	s2,s2,1
   12a90:	fa0c86e3          	beqz	s9,12a3c <_vfprintf_r+0x102c>
   12a94:	03c12783          	lw	a5,60(sp)
   12a98:	0007c783          	lbu	a5,0(a5)
   12a9c:	f0178713          	addi	a4,a5,-255
   12aa0:	f8070ee3          	beqz	a4,12a3c <_vfprintf_r+0x102c>
   12aa4:	f9279ce3          	bne	a5,s2,12a3c <_vfprintf_r+0x102c>
   12aa8:	000b8463          	beqz	s7,12ab0 <_vfprintf_r+0x10a0>
   12aac:	3e40106f          	j	13e90 <_vfprintf_r+0x2480>
   12ab0:	00900793          	li	a5,9
   12ab4:	0167f463          	bgeu	a5,s6,12abc <_vfprintf_r+0x10ac>
   12ab8:	3d80106f          	j	13e90 <_vfprintf_r+0x2480>
   12abc:	02812883          	lw	a7,40(sp)
   12ac0:	03212423          	sw	s2,40(sp)
   12ac4:	04412903          	lw	s2,68(sp)
   12ac8:	19010713          	addi	a4,sp,400
   12acc:	02012b03          	lw	s6,32(sp)
   12ad0:	41570f33          	sub	t5,a4,s5
   12ad4:	03512023          	sw	s5,32(sp)
   12ad8:	02c12b83          	lw	s7,44(sp)
   12adc:	000d8493          	mv	s1,s11
   12ae0:	00090c13          	mv	s8,s2
   12ae4:	01e95463          	bge	s2,t5,12aec <_vfprintf_r+0x10dc>
   12ae8:	000f0c13          	mv	s8,t5
   12aec:	0a314e83          	lbu	t4,163(sp)
   12af0:	00000313          	li	t1,0
   12af4:	00012e23          	sw	zero,28(sp)
   12af8:	d69ff06f          	j	12860 <_vfprintf_r+0xe50>
   12afc:	000d4883          	lbu	a7,0(s10)
   12b00:	008beb93          	ori	s7,s7,8
   12b04:	8b4ff06f          	j	11bb8 <_vfprintf_r+0x1a8>
   12b08:	020bf793          	andi	a5,s7,32
   12b0c:	010be693          	ori	a3,s7,16
   12b10:	7e078263          	beqz	a5,132f4 <_vfprintf_r+0x18e4>
   12b14:	01812783          	lw	a5,24(sp)
   12b18:	00778793          	addi	a5,a5,7
   12b1c:	ff87f793          	andi	a5,a5,-8
   12b20:	00878713          	addi	a4,a5,8
   12b24:	00e12c23          	sw	a4,24(sp)
   12b28:	0047a603          	lw	a2,4(a5)
   12b2c:	0007a703          	lw	a4,0(a5)
   12b30:	0a0101a3          	sb	zero,163(sp)
   12b34:	bff6fb93          	andi	s7,a3,-1025
   12b38:	3a094263          	bltz	s2,12edc <_vfprintf_r+0x14cc>
   12b3c:	00c767b3          	or	a5,a4,a2
   12b40:	b7f6fb93          	andi	s7,a3,-1153
   12b44:	38079c63          	bnez	a5,12edc <_vfprintf_r+0x14cc>
   12b48:	38091a63          	bnez	s2,12edc <_vfprintf_r+0x14cc>
   12b4c:	0016fc13          	andi	s8,a3,1
   12b50:	620c0863          	beqz	s8,13180 <_vfprintf_r+0x1770>
   12b54:	03000793          	li	a5,48
   12b58:	18f107a3          	sb	a5,399(sp)
   12b5c:	18f10793          	addi	a5,sp,399
   12b60:	000c0f13          	mv	t5,s8
   12b64:	00012e23          	sw	zero,28(sp)
   12b68:	02012623          	sw	zero,44(sp)
   12b6c:	00000c93          	li	s9,0
   12b70:	00000313          	li	t1,0
   12b74:	02f12023          	sw	a5,32(sp)
   12b78:	8d4ff06f          	j	11c4c <_vfprintf_r+0x23c>
   12b7c:	000d4883          	lbu	a7,0(s10)
   12b80:	06800793          	li	a5,104
   12b84:	10f888e3          	beq	a7,a5,13494 <_vfprintf_r+0x1a84>
   12b88:	040beb93          	ori	s7,s7,64
   12b8c:	82cff06f          	j	11bb8 <_vfprintf_r+0x1a8>
   12b90:	000087b7          	lui	a5,0x8
   12b94:	83078793          	addi	a5,a5,-2000 # 7830 <exit-0x8884>
   12b98:	01812703          	lw	a4,24(sp)
   12b9c:	0af11223          	sh	a5,164(sp)
   12ba0:	01812783          	lw	a5,24(sp)
   12ba4:	0a0101a3          	sb	zero,163(sp)
   12ba8:	00072703          	lw	a4,0(a4)
   12bac:	00478793          	addi	a5,a5,4
   12bb0:	00000613          	li	a2,0
   12bb4:	02094ee3          	bltz	s2,133f0 <_vfprintf_r+0x19e0>
   12bb8:	f7fbfe13          	andi	t3,s7,-129
   12bbc:	002e6b93          	ori	s7,t3,2
   12bc0:	540718e3          	bnez	a4,13910 <_vfprintf_r+0x1f00>
   12bc4:	540916e3          	bnez	s2,13910 <_vfprintf_r+0x1f00>
   12bc8:	00f12c23          	sw	a5,24(sp)
   12bcc:	00200313          	li	t1,2
   12bd0:	07800893          	li	a7,120
   12bd4:	19010793          	addi	a5,sp,400
   12bd8:	0a314e83          	lbu	t4,163(sp)
   12bdc:	00000913          	li	s2,0
   12be0:	00000c13          	li	s8,0
   12be4:	00000f13          	li	t5,0
   12be8:	02f12023          	sw	a5,32(sp)
   12bec:	00012e23          	sw	zero,28(sp)
   12bf0:	c71ff06f          	j	12860 <_vfprintf_r+0xe50>
   12bf4:	020bf793          	andi	a5,s7,32
   12bf8:	7c079a63          	bnez	a5,133cc <_vfprintf_r+0x19bc>
   12bfc:	01812783          	lw	a5,24(sp)
   12c00:	010bf713          	andi	a4,s7,16
   12c04:	00478793          	addi	a5,a5,4
   12c08:	00070463          	beqz	a4,12c10 <_vfprintf_r+0x1200>
   12c0c:	1090106f          	j	14514 <_vfprintf_r+0x2b04>
   12c10:	01812703          	lw	a4,24(sp)
   12c14:	040bf693          	andi	a3,s7,64
   12c18:	00072703          	lw	a4,0(a4)
   12c1c:	5c0680e3          	beqz	a3,139dc <_vfprintf_r+0x1fcc>
   12c20:	01071713          	slli	a4,a4,0x10
   12c24:	01075713          	srli	a4,a4,0x10
   12c28:	00f12c23          	sw	a5,24(sp)
   12c2c:	000b8693          	mv	a3,s7
   12c30:	00000613          	li	a2,0
   12c34:	efdff06f          	j	12b30 <_vfprintf_r+0x1120>
   12c38:	01812703          	lw	a4,24(sp)
   12c3c:	020bf793          	andi	a5,s7,32
   12c40:	00470713          	addi	a4,a4,4
   12c44:	76079263          	bnez	a5,133a8 <_vfprintf_r+0x1998>
   12c48:	010bf793          	andi	a5,s7,16
   12c4c:	4a0796e3          	bnez	a5,138f8 <_vfprintf_r+0x1ee8>
   12c50:	040bf793          	andi	a5,s7,64
   12c54:	00078463          	beqz	a5,12c5c <_vfprintf_r+0x124c>
   12c58:	1d80106f          	j	13e30 <_vfprintf_r+0x2420>
   12c5c:	200bfe13          	andi	t3,s7,512
   12c60:	480e0ce3          	beqz	t3,138f8 <_vfprintf_r+0x1ee8>
   12c64:	01812783          	lw	a5,24(sp)
   12c68:	01412683          	lw	a3,20(sp)
   12c6c:	00e12c23          	sw	a4,24(sp)
   12c70:	0007a783          	lw	a5,0(a5)
   12c74:	00d78023          	sb	a3,0(a5)
   12c78:	eadfe06f          	j	11b24 <_vfprintf_r+0x114>
   12c7c:	000d4883          	lbu	a7,0(s10)
   12c80:	06c00793          	li	a5,108
   12c84:	00f880e3          	beq	a7,a5,13484 <_vfprintf_r+0x1a74>
   12c88:	010beb93          	ori	s7,s7,16
   12c8c:	f2dfe06f          	j	11bb8 <_vfprintf_r+0x1a8>
   12c90:	01012783          	lw	a5,16(sp)
   12c94:	41878db3          	sub	s11,a5,s8
   12c98:	01b04463          	bgtz	s11,12ca0 <_vfprintf_r+0x1290>
   12c9c:	840ff06f          	j	11cdc <_vfprintf_r+0x2cc>
   12ca0:	01000e93          	li	t4,16
   12ca4:	0c812583          	lw	a1,200(sp)
   12ca8:	00022837          	lui	a6,0x22
   12cac:	01bec463          	blt	t4,s11,12cb4 <_vfprintf_r+0x12a4>
   12cb0:	1850106f          	j	14634 <_vfprintf_r+0x2c24>
   12cb4:	000b0793          	mv	a5,s6
   12cb8:	05212423          	sw	s2,72(sp)
   12cbc:	00700293          	li	t0,7
   12cc0:	000d8913          	mv	s2,s11
   12cc4:	05112223          	sw	a7,68(sp)
   12cc8:	000d0d93          	mv	s11,s10
   12ccc:	000f0b13          	mv	s6,t5
   12cd0:	00030d13          	mv	s10,t1
   12cd4:	d9480a93          	addi	s5,a6,-620 # 21d94 <zeroes.0>
   12cd8:	00c0006f          	j	12ce4 <_vfprintf_r+0x12d4>
   12cdc:	ff090913          	addi	s2,s2,-16
   12ce0:	052eda63          	bge	t4,s2,12d34 <_vfprintf_r+0x1324>
   12ce4:	01060613          	addi	a2,a2,16
   12ce8:	00158593          	addi	a1,a1,1
   12cec:	0157a023          	sw	s5,0(a5)
   12cf0:	01d7a223          	sw	t4,4(a5)
   12cf4:	0cc12623          	sw	a2,204(sp)
   12cf8:	0cb12423          	sw	a1,200(sp)
   12cfc:	00878793          	addi	a5,a5,8
   12d00:	fcb2dee3          	bge	t0,a1,12cdc <_vfprintf_r+0x12cc>
   12d04:	00c12503          	lw	a0,12(sp)
   12d08:	0c410613          	addi	a2,sp,196
   12d0c:	00048593          	mv	a1,s1
   12d10:	599010ef          	jal	14aa8 <__sprint_r>
   12d14:	8e051263          	bnez	a0,11df8 <_vfprintf_r+0x3e8>
   12d18:	01000e93          	li	t4,16
   12d1c:	ff090913          	addi	s2,s2,-16
   12d20:	0cc12603          	lw	a2,204(sp)
   12d24:	0c812583          	lw	a1,200(sp)
   12d28:	00098793          	mv	a5,s3
   12d2c:	00700293          	li	t0,7
   12d30:	fb2ecae3          	blt	t4,s2,12ce4 <_vfprintf_r+0x12d4>
   12d34:	000d0313          	mv	t1,s10
   12d38:	04412883          	lw	a7,68(sp)
   12d3c:	000d8d13          	mv	s10,s11
   12d40:	00090d93          	mv	s11,s2
   12d44:	04812903          	lw	s2,72(sp)
   12d48:	000b0f13          	mv	t5,s6
   12d4c:	000a8813          	mv	a6,s5
   12d50:	00078b13          	mv	s6,a5
   12d54:	01b60633          	add	a2,a2,s11
   12d58:	00158593          	addi	a1,a1,1
   12d5c:	010b2023          	sw	a6,0(s6)
   12d60:	01bb2223          	sw	s11,4(s6)
   12d64:	0cc12623          	sw	a2,204(sp)
   12d68:	0cb12423          	sw	a1,200(sp)
   12d6c:	00700713          	li	a4,7
   12d70:	008b0b13          	addi	s6,s6,8
   12d74:	00b74463          	blt	a4,a1,12d7c <_vfprintf_r+0x136c>
   12d78:	f65fe06f          	j	11cdc <_vfprintf_r+0x2cc>
   12d7c:	00c12503          	lw	a0,12(sp)
   12d80:	0c410613          	addi	a2,sp,196
   12d84:	00048593          	mv	a1,s1
   12d88:	04612823          	sw	t1,80(sp)
   12d8c:	05e12423          	sw	t5,72(sp)
   12d90:	05112223          	sw	a7,68(sp)
   12d94:	515010ef          	jal	14aa8 <__sprint_r>
   12d98:	00050463          	beqz	a0,12da0 <_vfprintf_r+0x1390>
   12d9c:	85cff06f          	j	11df8 <_vfprintf_r+0x3e8>
   12da0:	0cc12603          	lw	a2,204(sp)
   12da4:	04412883          	lw	a7,68(sp)
   12da8:	04812f03          	lw	t5,72(sp)
   12dac:	05012303          	lw	t1,80(sp)
   12db0:	00098b13          	mv	s6,s3
   12db4:	f29fe06f          	j	11cdc <_vfprintf_r+0x2cc>
   12db8:	01012783          	lw	a5,16(sp)
   12dbc:	02012623          	sw	zero,44(sp)
   12dc0:	00000c93          	li	s9,0
   12dc4:	41878733          	sub	a4,a5,s8
   12dc8:	00000313          	li	t1,0
   12dcc:	2ae04c63          	bgtz	a4,13084 <_vfprintf_r+0x1674>
   12dd0:	000e9463          	bnez	t4,12dd8 <_vfprintf_r+0x13c8>
   12dd4:	ecdfe06f          	j	11ca0 <_vfprintf_r+0x290>
   12dd8:	00200713          	li	a4,2
   12ddc:	e91fe06f          	j	11c6c <_vfprintf_r+0x25c>
   12de0:	00c12503          	lw	a0,12(sp)
   12de4:	0c410613          	addi	a2,sp,196
   12de8:	00048593          	mv	a1,s1
   12dec:	04612823          	sw	t1,80(sp)
   12df0:	05e12423          	sw	t5,72(sp)
   12df4:	05112223          	sw	a7,68(sp)
   12df8:	4b1010ef          	jal	14aa8 <__sprint_r>
   12dfc:	00050463          	beqz	a0,12e04 <_vfprintf_r+0x13f4>
   12e00:	ff9fe06f          	j	11df8 <_vfprintf_r+0x3e8>
   12e04:	0cc12603          	lw	a2,204(sp)
   12e08:	05012303          	lw	t1,80(sp)
   12e0c:	04812f03          	lw	t5,72(sp)
   12e10:	04412883          	lw	a7,68(sp)
   12e14:	00098b13          	mv	s6,s3
   12e18:	eb9fe06f          	j	11cd0 <_vfprintf_r+0x2c0>
   12e1c:	01000c93          	li	s9,16
   12e20:	0c812783          	lw	a5,200(sp)
   12e24:	00022837          	lui	a6,0x22
   12e28:	012cc463          	blt	s9,s2,12e30 <_vfprintf_r+0x1420>
   12e2c:	76c0106f          	j	14598 <_vfprintf_r+0x2b88>
   12e30:	00c12a83          	lw	s5,12(sp)
   12e34:	00700d93          	li	s11,7
   12e38:	da480b93          	addi	s7,a6,-604 # 21da4 <blanks.1>
   12e3c:	00c0006f          	j	12e48 <_vfprintf_r+0x1438>
   12e40:	ff090913          	addi	s2,s2,-16
   12e44:	052cd863          	bge	s9,s2,12e94 <_vfprintf_r+0x1484>
   12e48:	01060613          	addi	a2,a2,16
   12e4c:	00178793          	addi	a5,a5,1
   12e50:	017b2023          	sw	s7,0(s6)
   12e54:	019b2223          	sw	s9,4(s6)
   12e58:	0cc12623          	sw	a2,204(sp)
   12e5c:	0cf12423          	sw	a5,200(sp)
   12e60:	008b0b13          	addi	s6,s6,8
   12e64:	fcfddee3          	bge	s11,a5,12e40 <_vfprintf_r+0x1430>
   12e68:	0c410613          	addi	a2,sp,196
   12e6c:	00048593          	mv	a1,s1
   12e70:	000a8513          	mv	a0,s5
   12e74:	435010ef          	jal	14aa8 <__sprint_r>
   12e78:	00050463          	beqz	a0,12e80 <_vfprintf_r+0x1470>
   12e7c:	f7dfe06f          	j	11df8 <_vfprintf_r+0x3e8>
   12e80:	ff090913          	addi	s2,s2,-16
   12e84:	0cc12603          	lw	a2,204(sp)
   12e88:	0c812783          	lw	a5,200(sp)
   12e8c:	00098b13          	mv	s6,s3
   12e90:	fb2ccce3          	blt	s9,s2,12e48 <_vfprintf_r+0x1438>
   12e94:	000b8813          	mv	a6,s7
   12e98:	01260633          	add	a2,a2,s2
   12e9c:	00178793          	addi	a5,a5,1
   12ea0:	0cc12623          	sw	a2,204(sp)
   12ea4:	0cf12423          	sw	a5,200(sp)
   12ea8:	010b2023          	sw	a6,0(s6)
   12eac:	012b2223          	sw	s2,4(s6)
   12eb0:	00700713          	li	a4,7
   12eb4:	00f74463          	blt	a4,a5,12ebc <_vfprintf_r+0x14ac>
   12eb8:	e79fe06f          	j	11d30 <_vfprintf_r+0x320>
   12ebc:	00c12503          	lw	a0,12(sp)
   12ec0:	0c410613          	addi	a2,sp,196
   12ec4:	00048593          	mv	a1,s1
   12ec8:	3e1010ef          	jal	14aa8 <__sprint_r>
   12ecc:	00050463          	beqz	a0,12ed4 <_vfprintf_r+0x14c4>
   12ed0:	f29fe06f          	j	11df8 <_vfprintf_r+0x3e8>
   12ed4:	0cc12603          	lw	a2,204(sp)
   12ed8:	e59fe06f          	j	11d30 <_vfprintf_r+0x320>
   12edc:	19010793          	addi	a5,sp,400
   12ee0:	02f12023          	sw	a5,32(sp)
   12ee4:	01d61593          	slli	a1,a2,0x1d
   12ee8:	00777693          	andi	a3,a4,7
   12eec:	00375713          	srli	a4,a4,0x3
   12ef0:	00078513          	mv	a0,a5
   12ef4:	00e58733          	add	a4,a1,a4
   12ef8:	03068693          	addi	a3,a3,48
   12efc:	00365613          	srli	a2,a2,0x3
   12f00:	00c765b3          	or	a1,a4,a2
   12f04:	fed78fa3          	sb	a3,-1(a5)
   12f08:	fff78793          	addi	a5,a5,-1
   12f0c:	fc059ce3          	bnez	a1,12ee4 <_vfprintf_r+0x14d4>
   12f10:	02f12023          	sw	a5,32(sp)
   12f14:	fd068693          	addi	a3,a3,-48
   12f18:	00068663          	beqz	a3,12f24 <_vfprintf_r+0x1514>
   12f1c:	001bf713          	andi	a4,s7,1
   12f20:	38071c63          	bnez	a4,132b8 <_vfprintf_r+0x18a8>
   12f24:	02012703          	lw	a4,32(sp)
   12f28:	19010793          	addi	a5,sp,400
   12f2c:	00090c13          	mv	s8,s2
   12f30:	40e78f33          	sub	t5,a5,a4
   12f34:	37e94663          	blt	s2,t5,132a0 <_vfprintf_r+0x1890>
   12f38:	00012e23          	sw	zero,28(sp)
   12f3c:	02012623          	sw	zero,44(sp)
   12f40:	00000c93          	li	s9,0
   12f44:	00000313          	li	t1,0
   12f48:	d05fe06f          	j	11c4c <_vfprintf_r+0x23c>
   12f4c:	0a812503          	lw	a0,168(sp)
   12f50:	00a054e3          	blez	a0,13758 <_vfprintf_r+0x1d48>
   12f54:	02812783          	lw	a5,40(sp)
   12f58:	00030913          	mv	s2,t1
   12f5c:	5067c463          	blt	a5,t1,13464 <_vfprintf_r+0x1a54>
   12f60:	03205863          	blez	s2,12f90 <_vfprintf_r+0x1580>
   12f64:	0c812703          	lw	a4,200(sp)
   12f68:	02012783          	lw	a5,32(sp)
   12f6c:	01260633          	add	a2,a2,s2
   12f70:	00170713          	addi	a4,a4,1
   12f74:	00fb2023          	sw	a5,0(s6)
   12f78:	012b2223          	sw	s2,4(s6)
   12f7c:	0cc12623          	sw	a2,204(sp)
   12f80:	0ce12423          	sw	a4,200(sp)
   12f84:	00700593          	li	a1,7
   12f88:	008b0b13          	addi	s6,s6,8
   12f8c:	5ae5c4e3          	blt	a1,a4,13d34 <_vfprintf_r+0x2324>
   12f90:	fff94713          	not	a4,s2
   12f94:	41f75713          	srai	a4,a4,0x1f
   12f98:	00e97933          	and	s2,s2,a4
   12f9c:	41230933          	sub	s2,t1,s2
   12fa0:	5d204463          	bgtz	s2,13568 <_vfprintf_r+0x1b58>
   12fa4:	02012783          	lw	a5,32(sp)
   12fa8:	400bf713          	andi	a4,s7,1024
   12fac:	00678db3          	add	s11,a5,t1
   12fb0:	360716e3          	bnez	a4,13b1c <_vfprintf_r+0x210c>
   12fb4:	0a812903          	lw	s2,168(sp)
   12fb8:	02812783          	lw	a5,40(sp)
   12fbc:	00f94663          	blt	s2,a5,12fc8 <_vfprintf_r+0x15b8>
   12fc0:	001bf713          	andi	a4,s7,1
   12fc4:	600702e3          	beqz	a4,13dc8 <_vfprintf_r+0x23b8>
   12fc8:	03012783          	lw	a5,48(sp)
   12fcc:	0c812703          	lw	a4,200(sp)
   12fd0:	00700593          	li	a1,7
   12fd4:	00f60633          	add	a2,a2,a5
   12fd8:	03412783          	lw	a5,52(sp)
   12fdc:	00170713          	addi	a4,a4,1
   12fe0:	0cc12623          	sw	a2,204(sp)
   12fe4:	00fb2023          	sw	a5,0(s6)
   12fe8:	03012783          	lw	a5,48(sp)
   12fec:	0ce12423          	sw	a4,200(sp)
   12ff0:	008b0b13          	addi	s6,s6,8
   12ff4:	fefb2e23          	sw	a5,-4(s6)
   12ff8:	00e5d463          	bge	a1,a4,13000 <_vfprintf_r+0x15f0>
   12ffc:	3580106f          	j	14354 <_vfprintf_r+0x2944>
   13000:	02812703          	lw	a4,40(sp)
   13004:	02012783          	lw	a5,32(sp)
   13008:	41270933          	sub	s2,a4,s2
   1300c:	00e787b3          	add	a5,a5,a4
   13010:	41b78cb3          	sub	s9,a5,s11
   13014:	01995463          	bge	s2,s9,1301c <_vfprintf_r+0x160c>
   13018:	00090c93          	mv	s9,s2
   1301c:	03905863          	blez	s9,1304c <_vfprintf_r+0x163c>
   13020:	0c812703          	lw	a4,200(sp)
   13024:	01960633          	add	a2,a2,s9
   13028:	01bb2023          	sw	s11,0(s6)
   1302c:	00170713          	addi	a4,a4,1
   13030:	019b2223          	sw	s9,4(s6)
   13034:	0cc12623          	sw	a2,204(sp)
   13038:	0ce12423          	sw	a4,200(sp)
   1303c:	00700793          	li	a5,7
   13040:	008b0b13          	addi	s6,s6,8
   13044:	00e7d463          	bge	a5,a4,1304c <_vfprintf_r+0x163c>
   13048:	48c0106f          	j	144d4 <_vfprintf_r+0x2ac4>
   1304c:	fffcc713          	not	a4,s9
   13050:	41f75713          	srai	a4,a4,0x1f
   13054:	00ecf7b3          	and	a5,s9,a4
   13058:	40f90933          	sub	s2,s2,a5
   1305c:	01204463          	bgtz	s2,13064 <_vfprintf_r+0x1654>
   13060:	cb9fe06f          	j	11d18 <_vfprintf_r+0x308>
   13064:	00022837          	lui	a6,0x22
   13068:	01000c93          	li	s9,16
   1306c:	0c812783          	lw	a5,200(sp)
   13070:	00700d93          	li	s11,7
   13074:	d9480a93          	addi	s5,a6,-620 # 21d94 <zeroes.0>
   13078:	592ccc63          	blt	s9,s2,13610 <_vfprintf_r+0x1c00>
   1307c:	d9480813          	addi	a6,a6,-620
   13080:	7e00006f          	j	13860 <_vfprintf_r+0x1e50>
   13084:	00200d93          	li	s11,2
   13088:	01000e93          	li	t4,16
   1308c:	00080613          	mv	a2,a6
   13090:	00050593          	mv	a1,a0
   13094:	00022837          	lui	a6,0x22
   13098:	00eec463          	blt	t4,a4,130a0 <_vfprintf_r+0x1690>
   1309c:	41c0106f          	j	144b8 <_vfprintf_r+0x2aa8>
   130a0:	000b0793          	mv	a5,s6
   130a4:	05212423          	sw	s2,72(sp)
   130a8:	00700393          	li	t2,7
   130ac:	05112223          	sw	a7,68(sp)
   130b0:	00070913          	mv	s2,a4
   130b4:	05e12823          	sw	t5,80(sp)
   130b8:	00030b13          	mv	s6,t1
   130bc:	da480a93          	addi	s5,a6,-604 # 21da4 <blanks.1>
   130c0:	00c0006f          	j	130cc <_vfprintf_r+0x16bc>
   130c4:	ff090913          	addi	s2,s2,-16
   130c8:	052edc63          	bge	t4,s2,13120 <_vfprintf_r+0x1710>
   130cc:	01060613          	addi	a2,a2,16
   130d0:	00158593          	addi	a1,a1,1
   130d4:	0157a023          	sw	s5,0(a5)
   130d8:	01d7a223          	sw	t4,4(a5)
   130dc:	0cc12623          	sw	a2,204(sp)
   130e0:	0cb12423          	sw	a1,200(sp)
   130e4:	00878793          	addi	a5,a5,8
   130e8:	fcb3dee3          	bge	t2,a1,130c4 <_vfprintf_r+0x16b4>
   130ec:	00c12503          	lw	a0,12(sp)
   130f0:	0c410613          	addi	a2,sp,196
   130f4:	00048593          	mv	a1,s1
   130f8:	1b1010ef          	jal	14aa8 <__sprint_r>
   130fc:	00050463          	beqz	a0,13104 <_vfprintf_r+0x16f4>
   13100:	cf9fe06f          	j	11df8 <_vfprintf_r+0x3e8>
   13104:	01000e93          	li	t4,16
   13108:	ff090913          	addi	s2,s2,-16
   1310c:	0cc12603          	lw	a2,204(sp)
   13110:	0c812583          	lw	a1,200(sp)
   13114:	00098793          	mv	a5,s3
   13118:	00700393          	li	t2,7
   1311c:	fb2ec8e3          	blt	t4,s2,130cc <_vfprintf_r+0x16bc>
   13120:	00090713          	mv	a4,s2
   13124:	04412883          	lw	a7,68(sp)
   13128:	04812903          	lw	s2,72(sp)
   1312c:	05012f03          	lw	t5,80(sp)
   13130:	000b0313          	mv	t1,s6
   13134:	000a8813          	mv	a6,s5
   13138:	00078b13          	mv	s6,a5
   1313c:	00c70633          	add	a2,a4,a2
   13140:	00158593          	addi	a1,a1,1
   13144:	00eb2223          	sw	a4,4(s6)
   13148:	0cc12623          	sw	a2,204(sp)
   1314c:	0cb12423          	sw	a1,200(sp)
   13150:	010b2023          	sw	a6,0(s6)
   13154:	00700713          	li	a4,7
   13158:	5ab74863          	blt	a4,a1,13708 <_vfprintf_r+0x1cf8>
   1315c:	0a314703          	lbu	a4,163(sp)
   13160:	008b0b13          	addi	s6,s6,8
   13164:	12071863          	bnez	a4,13294 <_vfprintf_r+0x1884>
   13168:	000d9463          	bnez	s11,13170 <_vfprintf_r+0x1760>
   1316c:	b71fe06f          	j	11cdc <_vfprintf_r+0x2cc>
   13170:	00000d93          	li	s11,0
   13174:	b2dfe06f          	j	11ca0 <_vfprintf_r+0x290>
   13178:	0c812503          	lw	a0,200(sp)
   1317c:	f0dff06f          	j	13088 <_vfprintf_r+0x1678>
   13180:	19010793          	addi	a5,sp,400
   13184:	00000f13          	li	t5,0
   13188:	00000913          	li	s2,0
   1318c:	02012623          	sw	zero,44(sp)
   13190:	00000c93          	li	s9,0
   13194:	00000313          	li	t1,0
   13198:	00012e23          	sw	zero,28(sp)
   1319c:	02f12023          	sw	a5,32(sp)
   131a0:	aadfe06f          	j	11c4c <_vfprintf_r+0x23c>
   131a4:	00ebf5b3          	and	a1,s7,a4
   131a8:	92059c63          	bnez	a1,122e0 <_vfprintf_r+0x8d0>
   131ac:	02012783          	lw	a5,32(sp)
   131b0:	00eb2223          	sw	a4,4(s6)
   131b4:	0cc12623          	sw	a2,204(sp)
   131b8:	00fb2023          	sw	a5,0(s6)
   131bc:	0d212423          	sw	s2,200(sp)
   131c0:	00700793          	li	a5,7
   131c4:	9f27d863          	bge	a5,s2,123b4 <_vfprintf_r+0x9a4>
   131c8:	00c12503          	lw	a0,12(sp)
   131cc:	0c410613          	addi	a2,sp,196
   131d0:	00048593          	mv	a1,s1
   131d4:	0d5010ef          	jal	14aa8 <__sprint_r>
   131d8:	00050463          	beqz	a0,131e0 <_vfprintf_r+0x17d0>
   131dc:	c1dfe06f          	j	11df8 <_vfprintf_r+0x3e8>
   131e0:	0cc12603          	lw	a2,204(sp)
   131e4:	0c812903          	lw	s2,200(sp)
   131e8:	00098d93          	mv	s11,s3
   131ec:	9c8ff06f          	j	123b4 <_vfprintf_r+0x9a4>
   131f0:	02812703          	lw	a4,40(sp)
   131f4:	00100793          	li	a5,1
   131f8:	9ae7de63          	bge	a5,a4,123b4 <_vfprintf_r+0x9a4>
   131fc:	01100793          	li	a5,17
   13200:	00022837          	lui	a6,0x22
   13204:	00e7c463          	blt	a5,a4,1320c <_vfprintf_r+0x17fc>
   13208:	7140106f          	j	1491c <_vfprintf_r+0x2f0c>
   1320c:	01000c93          	li	s9,16
   13210:	00700793          	li	a5,7
   13214:	d9480a93          	addi	s5,a6,-620 # 21d94 <zeroes.0>
   13218:	00c0006f          	j	13224 <_vfprintf_r+0x1814>
   1321c:	ff0b0b13          	addi	s6,s6,-16
   13220:	756cd063          	bge	s9,s6,13960 <_vfprintf_r+0x1f50>
   13224:	01060613          	addi	a2,a2,16
   13228:	00190913          	addi	s2,s2,1
   1322c:	015da023          	sw	s5,0(s11)
   13230:	019da223          	sw	s9,4(s11)
   13234:	0cc12623          	sw	a2,204(sp)
   13238:	0d212423          	sw	s2,200(sp)
   1323c:	008d8d93          	addi	s11,s11,8
   13240:	fd27dee3          	bge	a5,s2,1321c <_vfprintf_r+0x180c>
   13244:	00c12503          	lw	a0,12(sp)
   13248:	0c410613          	addi	a2,sp,196
   1324c:	00048593          	mv	a1,s1
   13250:	059010ef          	jal	14aa8 <__sprint_r>
   13254:	00050463          	beqz	a0,1325c <_vfprintf_r+0x184c>
   13258:	ba1fe06f          	j	11df8 <_vfprintf_r+0x3e8>
   1325c:	0cc12603          	lw	a2,204(sp)
   13260:	0c812903          	lw	s2,200(sp)
   13264:	00098d93          	mv	s11,s3
   13268:	00700793          	li	a5,7
   1326c:	fb1ff06f          	j	1321c <_vfprintf_r+0x180c>
   13270:	001bf793          	andi	a5,s7,1
   13274:	00079463          	bnez	a5,1327c <_vfprintf_r+0x186c>
   13278:	aa1fe06f          	j	11d18 <_vfprintf_r+0x308>
   1327c:	becff06f          	j	12668 <_vfprintf_r+0xc58>
   13280:	01812783          	lw	a5,24(sp)
   13284:	000d4883          	lbu	a7,0(s10)
   13288:	00478793          	addi	a5,a5,4
   1328c:	00f12c23          	sw	a5,24(sp)
   13290:	929fe06f          	j	11bb8 <_vfprintf_r+0x1a8>
   13294:	000d8713          	mv	a4,s11
   13298:	00000d93          	li	s11,0
   1329c:	9d1fe06f          	j	11c6c <_vfprintf_r+0x25c>
   132a0:	000f0c13          	mv	s8,t5
   132a4:	00012e23          	sw	zero,28(sp)
   132a8:	02012623          	sw	zero,44(sp)
   132ac:	00000c93          	li	s9,0
   132b0:	00000313          	li	t1,0
   132b4:	999fe06f          	j	11c4c <_vfprintf_r+0x23c>
   132b8:	19010793          	addi	a5,sp,400
   132bc:	ffe50513          	addi	a0,a0,-2
   132c0:	40a78f33          	sub	t5,a5,a0
   132c4:	02012783          	lw	a5,32(sp)
   132c8:	03000713          	li	a4,48
   132cc:	00090c13          	mv	s8,s2
   132d0:	fee78fa3          	sb	a4,-1(a5)
   132d4:	01e95463          	bge	s2,t5,132dc <_vfprintf_r+0x18cc>
   132d8:	000f0c13          	mv	s8,t5
   132dc:	02a12023          	sw	a0,32(sp)
   132e0:	00012e23          	sw	zero,28(sp)
   132e4:	02012623          	sw	zero,44(sp)
   132e8:	00000c93          	li	s9,0
   132ec:	00000313          	li	t1,0
   132f0:	95dfe06f          	j	11c4c <_vfprintf_r+0x23c>
   132f4:	01812783          	lw	a5,24(sp)
   132f8:	00478793          	addi	a5,a5,4
   132fc:	01812703          	lw	a4,24(sp)
   13300:	00000613          	li	a2,0
   13304:	00f12c23          	sw	a5,24(sp)
   13308:	00072703          	lw	a4,0(a4)
   1330c:	825ff06f          	j	12b30 <_vfprintf_r+0x1120>
   13310:	01812783          	lw	a5,24(sp)
   13314:	00478793          	addi	a5,a5,4
   13318:	01812703          	lw	a4,24(sp)
   1331c:	000e0b93          	mv	s7,t3
   13320:	00f12c23          	sw	a5,24(sp)
   13324:	00072d83          	lw	s11,0(a4)
   13328:	41fdd813          	srai	a6,s11,0x1f
   1332c:	00080693          	mv	a3,a6
   13330:	c28ff06f          	j	12758 <_vfprintf_r+0xd48>
   13334:	010bf793          	andi	a5,s7,16
   13338:	00078463          	beqz	a5,13340 <_vfprintf_r+0x1930>
   1333c:	2640106f          	j	145a0 <_vfprintf_r+0x2b90>
   13340:	01812683          	lw	a3,24(sp)
   13344:	01812703          	lw	a4,24(sp)
   13348:	040bf793          	andi	a5,s7,64
   1334c:	00468693          	addi	a3,a3,4
   13350:	00d12c23          	sw	a3,24(sp)
   13354:	00072703          	lw	a4,0(a4)
   13358:	62078a63          	beqz	a5,1398c <_vfprintf_r+0x1f7c>
   1335c:	01071d93          	slli	s11,a4,0x10
   13360:	0a0101a3          	sb	zero,163(sp)
   13364:	010ddd93          	srli	s11,s11,0x10
   13368:	00000813          	li	a6,0
   1336c:	cc094063          	bltz	s2,1282c <_vfprintf_r+0xe1c>
   13370:	01b96333          	or	t1,s2,s11
   13374:	f7fbfb93          	andi	s7,s7,-129
   13378:	ca031a63          	bnez	t1,1282c <_vfprintf_r+0xe1c>
   1337c:	859ff06f          	j	12bd4 <_vfprintf_r+0x11c4>
   13380:	01812783          	lw	a5,24(sp)
   13384:	01812703          	lw	a4,24(sp)
   13388:	0007a783          	lw	a5,0(a5)
   1338c:	00470713          	addi	a4,a4,4
   13390:	00e12c23          	sw	a4,24(sp)
   13394:	0007a603          	lw	a2,0(a5)
   13398:	0047a683          	lw	a3,4(a5)
   1339c:	0087a703          	lw	a4,8(a5)
   133a0:	00c7a783          	lw	a5,12(a5)
   133a4:	afdfe06f          	j	11ea0 <_vfprintf_r+0x490>
   133a8:	01812783          	lw	a5,24(sp)
   133ac:	01412683          	lw	a3,20(sp)
   133b0:	01412603          	lw	a2,20(sp)
   133b4:	0007a783          	lw	a5,0(a5)
   133b8:	41f6d693          	srai	a3,a3,0x1f
   133bc:	00e12c23          	sw	a4,24(sp)
   133c0:	00c7a023          	sw	a2,0(a5)
   133c4:	00d7a223          	sw	a3,4(a5)
   133c8:	f5cfe06f          	j	11b24 <_vfprintf_r+0x114>
   133cc:	000b8693          	mv	a3,s7
   133d0:	f44ff06f          	j	12b14 <_vfprintf_r+0x1104>
   133d4:	18f10793          	addi	a5,sp,399
   133d8:	0a314e83          	lbu	t4,163(sp)
   133dc:	00100c13          	li	s8,1
   133e0:	00000313          	li	t1,0
   133e4:	00100f13          	li	t5,1
   133e8:	02f12023          	sw	a5,32(sp)
   133ec:	c70ff06f          	j	1285c <_vfprintf_r+0xe4c>
   133f0:	000225b7          	lui	a1,0x22
   133f4:	002beb93          	ori	s7,s7,2
   133f8:	00f12c23          	sw	a5,24(sp)
   133fc:	aec58593          	addi	a1,a1,-1300 # 21aec <__clzsi2+0x70>
   13400:	00200313          	li	t1,2
   13404:	00000e93          	li	t4,0
   13408:	07800893          	li	a7,120
   1340c:	19010793          	addi	a5,sp,400
   13410:	02f12023          	sw	a5,32(sp)
   13414:	00078693          	mv	a3,a5
   13418:	00f77793          	andi	a5,a4,15
   1341c:	00f587b3          	add	a5,a1,a5
   13420:	0007c783          	lbu	a5,0(a5)
   13424:	00475713          	srli	a4,a4,0x4
   13428:	fff68693          	addi	a3,a3,-1
   1342c:	00f68023          	sb	a5,0(a3)
   13430:	01c61793          	slli	a5,a2,0x1c
   13434:	00e78733          	add	a4,a5,a4
   13438:	00465613          	srli	a2,a2,0x4
   1343c:	00c767b3          	or	a5,a4,a2
   13440:	fc079ce3          	bnez	a5,13418 <_vfprintf_r+0x1a08>
   13444:	19010713          	addi	a4,sp,400
   13448:	02d12023          	sw	a3,32(sp)
   1344c:	40d70f33          	sub	t5,a4,a3
   13450:	00090c13          	mv	s8,s2
   13454:	c1e95463          	bge	s2,t5,1285c <_vfprintf_r+0xe4c>
   13458:	000f0c13          	mv	s8,t5
   1345c:	00012e23          	sw	zero,28(sp)
   13460:	c00ff06f          	j	12860 <_vfprintf_r+0xe50>
   13464:	00078913          	mv	s2,a5
   13468:	af204ee3          	bgtz	s2,12f64 <_vfprintf_r+0x1554>
   1346c:	b25ff06f          	j	12f90 <_vfprintf_r+0x1580>
   13470:	000e0b93          	mv	s7,t3
   13474:	bb8ff06f          	j	1282c <_vfprintf_r+0xe1c>
   13478:	fff00913          	li	s2,-1
   1347c:	00068d13          	mv	s10,a3
   13480:	f3cfe06f          	j	11bbc <_vfprintf_r+0x1ac>
   13484:	001d4883          	lbu	a7,1(s10)
   13488:	020beb93          	ori	s7,s7,32
   1348c:	001d0d13          	addi	s10,s10,1
   13490:	f28fe06f          	j	11bb8 <_vfprintf_r+0x1a8>
   13494:	001d4883          	lbu	a7,1(s10)
   13498:	200beb93          	ori	s7,s7,512
   1349c:	001d0d13          	addi	s10,s10,1
   134a0:	f18fe06f          	j	11bb8 <_vfprintf_r+0x1a8>
   134a4:	00c12503          	lw	a0,12(sp)
   134a8:	0c410613          	addi	a2,sp,196
   134ac:	00048593          	mv	a1,s1
   134b0:	5f8010ef          	jal	14aa8 <__sprint_r>
   134b4:	00050463          	beqz	a0,134bc <_vfprintf_r+0x1aac>
   134b8:	941fe06f          	j	11df8 <_vfprintf_r+0x3e8>
   134bc:	0cc12603          	lw	a2,204(sp)
   134c0:	00098b13          	mv	s6,s3
   134c4:	9d8ff06f          	j	1269c <_vfprintf_r+0xc8c>
   134c8:	000225b7          	lui	a1,0x22
   134cc:	b0058593          	addi	a1,a1,-1280 # 21b00 <__clzsi2+0x84>
   134d0:	020bf793          	andi	a5,s7,32
   134d4:	18078863          	beqz	a5,13664 <_vfprintf_r+0x1c54>
   134d8:	01812783          	lw	a5,24(sp)
   134dc:	00778793          	addi	a5,a5,7
   134e0:	ff87f793          	andi	a5,a5,-8
   134e4:	00878713          	addi	a4,a5,8
   134e8:	00e12c23          	sw	a4,24(sp)
   134ec:	0047a603          	lw	a2,4(a5)
   134f0:	0007a703          	lw	a4,0(a5)
   134f4:	001bf793          	andi	a5,s7,1
   134f8:	00c766b3          	or	a3,a4,a2
   134fc:	00078463          	beqz	a5,13504 <_vfprintf_r+0x1af4>
   13500:	30069263          	bnez	a3,13804 <_vfprintf_r+0x1df4>
   13504:	0a0101a3          	sb	zero,163(sp)
   13508:	1e094863          	bltz	s2,136f8 <_vfprintf_r+0x1ce8>
   1350c:	b7fbfb93          	andi	s7,s7,-1153
   13510:	00000313          	li	t1,0
   13514:	00091463          	bnez	s2,1351c <_vfprintf_r+0x1b0c>
   13518:	ea068e63          	beqz	a3,12bd4 <_vfprintf_r+0x11c4>
   1351c:	0a314e83          	lbu	t4,163(sp)
   13520:	eedff06f          	j	1340c <_vfprintf_r+0x19fc>
   13524:	000225b7          	lui	a1,0x22
   13528:	aec58593          	addi	a1,a1,-1300 # 21aec <__clzsi2+0x70>
   1352c:	fa5ff06f          	j	134d0 <_vfprintf_r+0x1ac0>
   13530:	00600793          	li	a5,6
   13534:	00090c13          	mv	s8,s2
   13538:	7f27ea63          	bltu	a5,s2,13d2c <_vfprintf_r+0x231c>
   1353c:	000227b7          	lui	a5,0x22
   13540:	b1478793          	addi	a5,a5,-1260 # 21b14 <__clzsi2+0x98>
   13544:	01512c23          	sw	s5,24(sp)
   13548:	02f12023          	sw	a5,32(sp)
   1354c:	00012e23          	sw	zero,28(sp)
   13550:	000c0f13          	mv	t5,s8
   13554:	00000913          	li	s2,0
   13558:	02012623          	sw	zero,44(sp)
   1355c:	00000c93          	li	s9,0
   13560:	00000313          	li	t1,0
   13564:	ee8fe06f          	j	11c4c <_vfprintf_r+0x23c>
   13568:	00022837          	lui	a6,0x22
   1356c:	01000893          	li	a7,16
   13570:	d9480a93          	addi	s5,a6,-620 # 21d94 <zeroes.0>
   13574:	0c812703          	lw	a4,200(sp)
   13578:	00700e93          	li	t4,7
   1357c:	00030d93          	mv	s11,t1
   13580:	d9480813          	addi	a6,a6,-620
   13584:	0128c863          	blt	a7,s2,13594 <_vfprintf_r+0x1b84>
   13588:	5440006f          	j	13acc <_vfprintf_r+0x20bc>
   1358c:	ff090913          	addi	s2,s2,-16
   13590:	5328da63          	bge	a7,s2,13ac4 <_vfprintf_r+0x20b4>
   13594:	01060613          	addi	a2,a2,16
   13598:	00170713          	addi	a4,a4,1
   1359c:	015b2023          	sw	s5,0(s6)
   135a0:	011b2223          	sw	a7,4(s6)
   135a4:	0cc12623          	sw	a2,204(sp)
   135a8:	0ce12423          	sw	a4,200(sp)
   135ac:	008b0b13          	addi	s6,s6,8
   135b0:	fceedee3          	bge	t4,a4,1358c <_vfprintf_r+0x1b7c>
   135b4:	00c12503          	lw	a0,12(sp)
   135b8:	0c410613          	addi	a2,sp,196
   135bc:	00048593          	mv	a1,s1
   135c0:	4e8010ef          	jal	14aa8 <__sprint_r>
   135c4:	00050463          	beqz	a0,135cc <_vfprintf_r+0x1bbc>
   135c8:	831fe06f          	j	11df8 <_vfprintf_r+0x3e8>
   135cc:	0cc12603          	lw	a2,204(sp)
   135d0:	0c812703          	lw	a4,200(sp)
   135d4:	00098b13          	mv	s6,s3
   135d8:	00700e93          	li	t4,7
   135dc:	01000893          	li	a7,16
   135e0:	fadff06f          	j	1358c <_vfprintf_r+0x1b7c>
   135e4:	00c12503          	lw	a0,12(sp)
   135e8:	0c410613          	addi	a2,sp,196
   135ec:	00048593          	mv	a1,s1
   135f0:	4b8010ef          	jal	14aa8 <__sprint_r>
   135f4:	00050463          	beqz	a0,135fc <_vfprintf_r+0x1bec>
   135f8:	801fe06f          	j	11df8 <_vfprintf_r+0x3e8>
   135fc:	0cc12603          	lw	a2,204(sp)
   13600:	0c812783          	lw	a5,200(sp)
   13604:	00098b13          	mv	s6,s3
   13608:	ff090913          	addi	s2,s2,-16
   1360c:	252cd863          	bge	s9,s2,1385c <_vfprintf_r+0x1e4c>
   13610:	01060613          	addi	a2,a2,16
   13614:	00178793          	addi	a5,a5,1
   13618:	015b2023          	sw	s5,0(s6)
   1361c:	019b2223          	sw	s9,4(s6)
   13620:	0cc12623          	sw	a2,204(sp)
   13624:	0cf12423          	sw	a5,200(sp)
   13628:	008b0b13          	addi	s6,s6,8
   1362c:	fcfddee3          	bge	s11,a5,13608 <_vfprintf_r+0x1bf8>
   13630:	fb5ff06f          	j	135e4 <_vfprintf_r+0x1bd4>
   13634:	02012503          	lw	a0,32(sp)
   13638:	3a4020ef          	jal	159dc <strlen>
   1363c:	0a314703          	lbu	a4,163(sp)
   13640:	fff54693          	not	a3,a0
   13644:	41f6d693          	srai	a3,a3,0x1f
   13648:	01812883          	lw	a7,24(sp)
   1364c:	00050f13          	mv	t5,a0
   13650:	00d57c33          	and	s8,a0,a3
   13654:	00071463          	bnez	a4,1365c <_vfprintf_r+0x1c4c>
   13658:	e41fe06f          	j	12498 <_vfprintf_r+0xa88>
   1365c:	001c0c13          	addi	s8,s8,1
   13660:	e39fe06f          	j	12498 <_vfprintf_r+0xa88>
   13664:	01812683          	lw	a3,24(sp)
   13668:	01812703          	lw	a4,24(sp)
   1366c:	010bf793          	andi	a5,s7,16
   13670:	00468693          	addi	a3,a3,4
   13674:	00d12c23          	sw	a3,24(sp)
   13678:	00072703          	lw	a4,0(a4)
   1367c:	06079a63          	bnez	a5,136f0 <_vfprintf_r+0x1ce0>
   13680:	040bf793          	andi	a5,s7,64
   13684:	06078263          	beqz	a5,136e8 <_vfprintf_r+0x1cd8>
   13688:	01071713          	slli	a4,a4,0x10
   1368c:	01075713          	srli	a4,a4,0x10
   13690:	00000613          	li	a2,0
   13694:	e61ff06f          	j	134f4 <_vfprintf_r+0x1ae4>
   13698:	00c12503          	lw	a0,12(sp)
   1369c:	0c410613          	addi	a2,sp,196
   136a0:	00048593          	mv	a1,s1
   136a4:	404010ef          	jal	14aa8 <__sprint_r>
   136a8:	00050463          	beqz	a0,136b0 <_vfprintf_r+0x1ca0>
   136ac:	f4cfe06f          	j	11df8 <_vfprintf_r+0x3e8>
   136b0:	0cc12603          	lw	a2,204(sp)
   136b4:	0c812903          	lw	s2,200(sp)
   136b8:	00098d93          	mv	s11,s3
   136bc:	c7dfe06f          	j	12338 <_vfprintf_r+0x928>
   136c0:	00c12503          	lw	a0,12(sp)
   136c4:	0c410613          	addi	a2,sp,196
   136c8:	00048593          	mv	a1,s1
   136cc:	3dc010ef          	jal	14aa8 <__sprint_r>
   136d0:	00050463          	beqz	a0,136d8 <_vfprintf_r+0x1cc8>
   136d4:	f24fe06f          	j	11df8 <_vfprintf_r+0x3e8>
   136d8:	0cc12603          	lw	a2,204(sp)
   136dc:	0c812903          	lw	s2,200(sp)
   136e0:	00098d93          	mv	s11,s3
   136e4:	c21fe06f          	j	12304 <_vfprintf_r+0x8f4>
   136e8:	200bf793          	andi	a5,s7,512
   136ec:	72079c63          	bnez	a5,13e24 <_vfprintf_r+0x2414>
   136f0:	00000613          	li	a2,0
   136f4:	e01ff06f          	j	134f4 <_vfprintf_r+0x1ae4>
   136f8:	bffbfb93          	andi	s7,s7,-1025
   136fc:	00000313          	li	t1,0
   13700:	00000e93          	li	t4,0
   13704:	d09ff06f          	j	1340c <_vfprintf_r+0x19fc>
   13708:	00c12503          	lw	a0,12(sp)
   1370c:	0c410613          	addi	a2,sp,196
   13710:	00048593          	mv	a1,s1
   13714:	04612823          	sw	t1,80(sp)
   13718:	05e12423          	sw	t5,72(sp)
   1371c:	05112223          	sw	a7,68(sp)
   13720:	388010ef          	jal	14aa8 <__sprint_r>
   13724:	00050463          	beqz	a0,1372c <_vfprintf_r+0x1d1c>
   13728:	ed0fe06f          	j	11df8 <_vfprintf_r+0x3e8>
   1372c:	0a314703          	lbu	a4,163(sp)
   13730:	0cc12603          	lw	a2,204(sp)
   13734:	04412883          	lw	a7,68(sp)
   13738:	04812f03          	lw	t5,72(sp)
   1373c:	05012303          	lw	t1,80(sp)
   13740:	20070663          	beqz	a4,1394c <_vfprintf_r+0x1f3c>
   13744:	000d8713          	mv	a4,s11
   13748:	0c812583          	lw	a1,200(sp)
   1374c:	00000d93          	li	s11,0
   13750:	00098b13          	mv	s6,s3
   13754:	d18fe06f          	j	11c6c <_vfprintf_r+0x25c>
   13758:	0c812703          	lw	a4,200(sp)
   1375c:	000225b7          	lui	a1,0x22
   13760:	b1c58593          	addi	a1,a1,-1252 # 21b1c <__clzsi2+0xa0>
   13764:	00bb2023          	sw	a1,0(s6)
   13768:	00160613          	addi	a2,a2,1
   1376c:	00100593          	li	a1,1
   13770:	00170713          	addi	a4,a4,1
   13774:	00bb2223          	sw	a1,4(s6)
   13778:	0cc12623          	sw	a2,204(sp)
   1377c:	0ce12423          	sw	a4,200(sp)
   13780:	00700593          	li	a1,7
   13784:	008b0b13          	addi	s6,s6,8
   13788:	38e5c0e3          	blt	a1,a4,14308 <_vfprintf_r+0x28f8>
   1378c:	02812783          	lw	a5,40(sp)
   13790:	00a7e733          	or	a4,a5,a0
   13794:	5c070663          	beqz	a4,13d60 <_vfprintf_r+0x2350>
   13798:	03012783          	lw	a5,48(sp)
   1379c:	0c812703          	lw	a4,200(sp)
   137a0:	00700593          	li	a1,7
   137a4:	00c78633          	add	a2,a5,a2
   137a8:	03412783          	lw	a5,52(sp)
   137ac:	00170713          	addi	a4,a4,1
   137b0:	0cc12623          	sw	a2,204(sp)
   137b4:	00fb2023          	sw	a5,0(s6)
   137b8:	03012783          	lw	a5,48(sp)
   137bc:	0ce12423          	sw	a4,200(sp)
   137c0:	008b0b13          	addi	s6,s6,8
   137c4:	fefb2e23          	sw	a5,-4(s6)
   137c8:	5ce5ca63          	blt	a1,a4,13d9c <_vfprintf_r+0x238c>
   137cc:	54054ce3          	bltz	a0,14524 <_vfprintf_r+0x2b14>
   137d0:	02812783          	lw	a5,40(sp)
   137d4:	00170713          	addi	a4,a4,1
   137d8:	0ce12423          	sw	a4,200(sp)
   137dc:	00c78633          	add	a2,a5,a2
   137e0:	02012783          	lw	a5,32(sp)
   137e4:	0cc12623          	sw	a2,204(sp)
   137e8:	00fb2023          	sw	a5,0(s6)
   137ec:	02812783          	lw	a5,40(sp)
   137f0:	00fb2223          	sw	a5,4(s6)
   137f4:	00700793          	li	a5,7
   137f8:	00e7c463          	blt	a5,a4,13800 <_vfprintf_r+0x1df0>
   137fc:	d18fe06f          	j	11d14 <_vfprintf_r+0x304>
   13800:	be5fe06f          	j	123e4 <_vfprintf_r+0x9d4>
   13804:	03000793          	li	a5,48
   13808:	0b1102a3          	sb	a7,165(sp)
   1380c:	0a0101a3          	sb	zero,163(sp)
   13810:	0af10223          	sb	a5,164(sp)
   13814:	28094863          	bltz	s2,13aa4 <_vfprintf_r+0x2094>
   13818:	b7fbfe13          	andi	t3,s7,-1153
   1381c:	0a314e83          	lbu	t4,163(sp)
   13820:	002e6b93          	ori	s7,t3,2
   13824:	00200313          	li	t1,2
   13828:	be5ff06f          	j	1340c <_vfprintf_r+0x19fc>
   1382c:	00c12503          	lw	a0,12(sp)
   13830:	d09fc0ef          	jal	10538 <__sinit>
   13834:	a30fe06f          	j	11a64 <_vfprintf_r+0x54>
   13838:	00c12503          	lw	a0,12(sp)
   1383c:	0c410613          	addi	a2,sp,196
   13840:	00048593          	mv	a1,s1
   13844:	264010ef          	jal	14aa8 <__sprint_r>
   13848:	00050463          	beqz	a0,13850 <_vfprintf_r+0x1e40>
   1384c:	dacfe06f          	j	11df8 <_vfprintf_r+0x3e8>
   13850:	0cc12603          	lw	a2,204(sp)
   13854:	00098b13          	mv	s6,s3
   13858:	e05fe06f          	j	1265c <_vfprintf_r+0xc4c>
   1385c:	000a8813          	mv	a6,s5
   13860:	01260633          	add	a2,a2,s2
   13864:	00178793          	addi	a5,a5,1
   13868:	0cc12623          	sw	a2,204(sp)
   1386c:	0cf12423          	sw	a5,200(sp)
   13870:	010b2023          	sw	a6,0(s6)
   13874:	012b2223          	sw	s2,4(s6)
   13878:	00700713          	li	a4,7
   1387c:	00f74463          	blt	a4,a5,13884 <_vfprintf_r+0x1e74>
   13880:	c94fe06f          	j	11d14 <_vfprintf_r+0x304>
   13884:	b61fe06f          	j	123e4 <_vfprintf_r+0x9d4>
   13888:	0d012703          	lw	a4,208(sp)
   1388c:	0d412783          	lw	a5,212(sp)
   13890:	08010593          	addi	a1,sp,128
   13894:	08e12823          	sw	a4,144(sp)
   13898:	08f12a23          	sw	a5,148(sp)
   1389c:	0d812703          	lw	a4,216(sp)
   138a0:	0dc12783          	lw	a5,220(sp)
   138a4:	09010513          	addi	a0,sp,144
   138a8:	08012023          	sw	zero,128(sp)
   138ac:	08012223          	sw	zero,132(sp)
   138b0:	08012423          	sw	zero,136(sp)
   138b4:	08012623          	sw	zero,140(sp)
   138b8:	08e12c23          	sw	a4,152(sp)
   138bc:	08f12e23          	sw	a5,156(sp)
   138c0:	44c0b0ef          	jal	1ed0c <__letf2>
   138c4:	01c12883          	lw	a7,28(sp)
   138c8:	f7fbfb93          	andi	s7,s7,-129
   138cc:	260546e3          	bltz	a0,14338 <_vfprintf_r+0x2928>
   138d0:	04700793          	li	a5,71
   138d4:	0a314703          	lbu	a4,163(sp)
   138d8:	5b17c463          	blt	a5,a7,13e80 <_vfprintf_r+0x2470>
   138dc:	000227b7          	lui	a5,0x22
   138e0:	adc78793          	addi	a5,a5,-1316 # 21adc <__clzsi2+0x60>
   138e4:	02f12023          	sw	a5,32(sp)
   138e8:	16071263          	bnez	a4,13a4c <_vfprintf_r+0x203c>
   138ec:	00300f13          	li	t5,3
   138f0:	000f0c13          	mv	s8,t5
   138f4:	ba9fe06f          	j	1249c <_vfprintf_r+0xa8c>
   138f8:	01812783          	lw	a5,24(sp)
   138fc:	01412683          	lw	a3,20(sp)
   13900:	0007a783          	lw	a5,0(a5)
   13904:	00d7a023          	sw	a3,0(a5)
   13908:	00e12c23          	sw	a4,24(sp)
   1390c:	a18fe06f          	j	11b24 <_vfprintf_r+0x114>
   13910:	000225b7          	lui	a1,0x22
   13914:	0a314e83          	lbu	t4,163(sp)
   13918:	00f12c23          	sw	a5,24(sp)
   1391c:	aec58593          	addi	a1,a1,-1300 # 21aec <__clzsi2+0x70>
   13920:	00200313          	li	t1,2
   13924:	07800893          	li	a7,120
   13928:	ae5ff06f          	j	1340c <_vfprintf_r+0x19fc>
   1392c:	0cc12783          	lw	a5,204(sp)
   13930:	00079463          	bnez	a5,13938 <_vfprintf_r+0x1f28>
   13934:	cd4fe06f          	j	11e08 <_vfprintf_r+0x3f8>
   13938:	00c12503          	lw	a0,12(sp)
   1393c:	0c410613          	addi	a2,sp,196
   13940:	00048593          	mv	a1,s1
   13944:	164010ef          	jal	14aa8 <__sprint_r>
   13948:	cc0fe06f          	j	11e08 <_vfprintf_r+0x3f8>
   1394c:	480d8e63          	beqz	s11,13de8 <_vfprintf_r+0x23d8>
   13950:	0c812583          	lw	a1,200(sp)
   13954:	00000d93          	li	s11,0
   13958:	00098b13          	mv	s6,s3
   1395c:	b44fe06f          	j	11ca0 <_vfprintf_r+0x290>
   13960:	000a8813          	mv	a6,s5
   13964:	01660633          	add	a2,a2,s6
   13968:	00190913          	addi	s2,s2,1
   1396c:	0cc12623          	sw	a2,204(sp)
   13970:	0d212423          	sw	s2,200(sp)
   13974:	010da023          	sw	a6,0(s11)
   13978:	016da223          	sw	s6,4(s11)
   1397c:	00700793          	li	a5,7
   13980:	0127c463          	blt	a5,s2,13988 <_vfprintf_r+0x1f78>
   13984:	a2dfe06f          	j	123b0 <_vfprintf_r+0x9a0>
   13988:	841ff06f          	j	131c8 <_vfprintf_r+0x17b8>
   1398c:	200bf313          	andi	t1,s7,512
   13990:	0a0101a3          	sb	zero,163(sp)
   13994:	48031063          	bnez	t1,13e14 <_vfprintf_r+0x2404>
   13998:	00070d93          	mv	s11,a4
   1399c:	00000813          	li	a6,0
   139a0:	00095463          	bgez	s2,139a8 <_vfprintf_r+0x1f98>
   139a4:	e8dfe06f          	j	12830 <_vfprintf_r+0xe20>
   139a8:	f7fbfb93          	andi	s7,s7,-129
   139ac:	00090463          	beqz	s2,139b4 <_vfprintf_r+0x1fa4>
   139b0:	e81fe06f          	j	12830 <_vfprintf_r+0xe20>
   139b4:	a2070063          	beqz	a4,12bd4 <_vfprintf_r+0x11c4>
   139b8:	e79fe06f          	j	12830 <_vfprintf_r+0xe20>
   139bc:	200bf693          	andi	a3,s7,512
   139c0:	44068063          	beqz	a3,13e00 <_vfprintf_r+0x23f0>
   139c4:	01871d93          	slli	s11,a4,0x18
   139c8:	418ddd93          	srai	s11,s11,0x18
   139cc:	41fdd813          	srai	a6,s11,0x1f
   139d0:	00f12c23          	sw	a5,24(sp)
   139d4:	00080693          	mv	a3,a6
   139d8:	d81fe06f          	j	12758 <_vfprintf_r+0xd48>
   139dc:	200bf693          	andi	a3,s7,512
   139e0:	40068863          	beqz	a3,13df0 <_vfprintf_r+0x23e0>
   139e4:	0ff77713          	zext.b	a4,a4
   139e8:	00f12c23          	sw	a5,24(sp)
   139ec:	000b8693          	mv	a3,s7
   139f0:	00000613          	li	a2,0
   139f4:	93cff06f          	j	12b30 <_vfprintf_r+0x1120>
   139f8:	19010793          	addi	a5,sp,400
   139fc:	00012e23          	sw	zero,28(sp)
   13a00:	00000f13          	li	t5,0
   13a04:	02012623          	sw	zero,44(sp)
   13a08:	00000c93          	li	s9,0
   13a0c:	00000313          	li	t1,0
   13a10:	02f12023          	sw	a5,32(sp)
   13a14:	00000c13          	li	s8,0
   13a18:	a34fe06f          	j	11c4c <_vfprintf_r+0x23c>
   13a1c:	0dc12f83          	lw	t6,220(sp)
   13a20:	800007b7          	lui	a5,0x80000
   13a24:	f7fbfb93          	andi	s7,s7,-129
   13a28:	00fff333          	and	t1,t6,a5
   13a2c:	40030e63          	beqz	t1,13e48 <_vfprintf_r+0x2438>
   13a30:	02d00793          	li	a5,45
   13a34:	0af101a3          	sb	a5,163(sp)
   13a38:	04700793          	li	a5,71
   13a3c:	4d17dae3          	bge	a5,a7,14710 <_vfprintf_r+0x2d00>
   13a40:	000227b7          	lui	a5,0x22
   13a44:	ae878793          	addi	a5,a5,-1304 # 21ae8 <__clzsi2+0x6c>
   13a48:	02f12023          	sw	a5,32(sp)
   13a4c:	00012e23          	sw	zero,28(sp)
   13a50:	00300f13          	li	t5,3
   13a54:	00000913          	li	s2,0
   13a58:	02012623          	sw	zero,44(sp)
   13a5c:	00000c93          	li	s9,0
   13a60:	00000313          	li	t1,0
   13a64:	00400c13          	li	s8,4
   13a68:	9e4fe06f          	j	11c4c <_vfprintf_r+0x23c>
   13a6c:	100be713          	ori	a4,s7,256
   13a70:	fff00793          	li	a5,-1
   13a74:	00e12e23          	sw	a4,28(sp)
   13a78:	0d012e83          	lw	t4,208(sp)
   13a7c:	0d412f03          	lw	t5,212(sp)
   13a80:	0d812283          	lw	t0,216(sp)
   13a84:	0dc12c83          	lw	s9,220(sp)
   13a88:	4af90e63          	beq	s2,a5,13f44 <_vfprintf_r+0x2534>
   13a8c:	fb9c0793          	addi	a5,s8,-71
   13a90:	00079463          	bnez	a5,13a98 <_vfprintf_r+0x2088>
   13a94:	5e090863          	beqz	s2,14084 <_vfprintf_r+0x2674>
   13a98:	3a0cc4e3          	bltz	s9,14640 <_vfprintf_r+0x2c30>
   13a9c:	04012223          	sw	zero,68(sp)
   13aa0:	4b00006f          	j	13f50 <_vfprintf_r+0x2540>
   13aa4:	bffbfe13          	andi	t3,s7,-1025
   13aa8:	002e6b93          	ori	s7,t3,2
   13aac:	00200313          	li	t1,2
   13ab0:	00000e93          	li	t4,0
   13ab4:	959ff06f          	j	1340c <_vfprintf_r+0x19fc>
   13ab8:	00f12c23          	sw	a5,24(sp)
   13abc:	000e0b93          	mv	s7,t3
   13ac0:	d71fe06f          	j	12830 <_vfprintf_r+0xe20>
   13ac4:	000d8313          	mv	t1,s11
   13ac8:	000a8813          	mv	a6,s5
   13acc:	01260633          	add	a2,a2,s2
   13ad0:	00170713          	addi	a4,a4,1
   13ad4:	010b2023          	sw	a6,0(s6)
   13ad8:	012b2223          	sw	s2,4(s6)
   13adc:	0cc12623          	sw	a2,204(sp)
   13ae0:	0ce12423          	sw	a4,200(sp)
   13ae4:	00700593          	li	a1,7
   13ae8:	008b0b13          	addi	s6,s6,8
   13aec:	cae5dc63          	bge	a1,a4,12fa4 <_vfprintf_r+0x1594>
   13af0:	00c12503          	lw	a0,12(sp)
   13af4:	0c410613          	addi	a2,sp,196
   13af8:	00048593          	mv	a1,s1
   13afc:	04612223          	sw	t1,68(sp)
   13b00:	7a9000ef          	jal	14aa8 <__sprint_r>
   13b04:	00050463          	beqz	a0,13b0c <_vfprintf_r+0x20fc>
   13b08:	af0fe06f          	j	11df8 <_vfprintf_r+0x3e8>
   13b0c:	0cc12603          	lw	a2,204(sp)
   13b10:	04412303          	lw	t1,68(sp)
   13b14:	00098b13          	mv	s6,s3
   13b18:	c8cff06f          	j	12fa4 <_vfprintf_r+0x1594>
   13b1c:	02c12783          	lw	a5,44(sp)
   13b20:	00fce733          	or	a4,s9,a5
   13b24:	62070ee3          	beqz	a4,14960 <_vfprintf_r+0x2f50>
   13b28:	02812703          	lw	a4,40(sp)
   13b2c:	02012783          	lw	a5,32(sp)
   13b30:	05712223          	sw	s7,68(sp)
   13b34:	05812423          	sw	s8,72(sp)
   13b38:	05a12823          	sw	s10,80(sp)
   13b3c:	000c8c13          	mv	s8,s9
   13b40:	04c12b83          	lw	s7,76(sp)
   13b44:	03c12c83          	lw	s9,60(sp)
   13b48:	02c12d03          	lw	s10,44(sp)
   13b4c:	00c12a83          	lw	s5,12(sp)
   13b50:	00e78eb3          	add	t4,a5,a4
   13b54:	000228b7          	lui	a7,0x22
   13b58:	000b0593          	mv	a1,s6
   13b5c:	d9488893          	addi	a7,a7,-620 # 21d94 <zeroes.0>
   13b60:	00700813          	li	a6,7
   13b64:	01000713          	li	a4,16
   13b68:	000e8b13          	mv	s6,t4
   13b6c:	09a04a63          	bgtz	s10,13c00 <_vfprintf_r+0x21f0>
   13b70:	fffc8c93          	addi	s9,s9,-1
   13b74:	fffc0c13          	addi	s8,s8,-1
   13b78:	0c812783          	lw	a5,200(sp)
   13b7c:	04012683          	lw	a3,64(sp)
   13b80:	01760633          	add	a2,a2,s7
   13b84:	00178793          	addi	a5,a5,1
   13b88:	00d5a023          	sw	a3,0(a1)
   13b8c:	0175a223          	sw	s7,4(a1)
   13b90:	0cc12623          	sw	a2,204(sp)
   13b94:	0cf12423          	sw	a5,200(sp)
   13b98:	00858593          	addi	a1,a1,8
   13b9c:	10f84e63          	blt	a6,a5,13cb8 <_vfprintf_r+0x22a8>
   13ba0:	000cc783          	lbu	a5,0(s9)
   13ba4:	41bb0933          	sub	s2,s6,s11
   13ba8:	000b0f13          	mv	t5,s6
   13bac:	0127d463          	bge	a5,s2,13bb4 <_vfprintf_r+0x21a4>
   13bb0:	00078913          	mv	s2,a5
   13bb4:	03205663          	blez	s2,13be0 <_vfprintf_r+0x21d0>
   13bb8:	0c812783          	lw	a5,200(sp)
   13bbc:	01260633          	add	a2,a2,s2
   13bc0:	0cc12623          	sw	a2,204(sp)
   13bc4:	00178793          	addi	a5,a5,1
   13bc8:	01b5a023          	sw	s11,0(a1)
   13bcc:	0125a223          	sw	s2,4(a1)
   13bd0:	0cf12423          	sw	a5,200(sp)
   13bd4:	10f84c63          	blt	a6,a5,13cec <_vfprintf_r+0x22dc>
   13bd8:	000cc783          	lbu	a5,0(s9)
   13bdc:	00858593          	addi	a1,a1,8
   13be0:	fff94513          	not	a0,s2
   13be4:	41f55513          	srai	a0,a0,0x1f
   13be8:	00a97933          	and	s2,s2,a0
   13bec:	41278933          	sub	s2,a5,s2
   13bf0:	01204c63          	bgtz	s2,13c08 <_vfprintf_r+0x21f8>
   13bf4:	00fd8db3          	add	s11,s11,a5
   13bf8:	f7804ae3          	bgtz	s8,13b6c <_vfprintf_r+0x215c>
   13bfc:	47a05263          	blez	s10,14060 <_vfprintf_r+0x2650>
   13c00:	fffd0d13          	addi	s10,s10,-1
   13c04:	f75ff06f          	j	13b78 <_vfprintf_r+0x2168>
   13c08:	00022fb7          	lui	t6,0x22
   13c0c:	0c812783          	lw	a5,200(sp)
   13c10:	d94f8f93          	addi	t6,t6,-620 # 21d94 <zeroes.0>
   13c14:	07275e63          	bge	a4,s2,13c90 <_vfprintf_r+0x2280>
   13c18:	03e12623          	sw	t5,44(sp)
   13c1c:	03112e23          	sw	a7,60(sp)
   13c20:	00c0006f          	j	13c2c <_vfprintf_r+0x221c>
   13c24:	ff090913          	addi	s2,s2,-16
   13c28:	07275063          	bge	a4,s2,13c88 <_vfprintf_r+0x2278>
   13c2c:	01060613          	addi	a2,a2,16
   13c30:	00178793          	addi	a5,a5,1
   13c34:	0115a023          	sw	a7,0(a1)
   13c38:	00e5a223          	sw	a4,4(a1)
   13c3c:	0cc12623          	sw	a2,204(sp)
   13c40:	0cf12423          	sw	a5,200(sp)
   13c44:	00858593          	addi	a1,a1,8
   13c48:	fcf85ee3          	bge	a6,a5,13c24 <_vfprintf_r+0x2214>
   13c4c:	0c410613          	addi	a2,sp,196
   13c50:	00048593          	mv	a1,s1
   13c54:	000a8513          	mv	a0,s5
   13c58:	651000ef          	jal	14aa8 <__sprint_r>
   13c5c:	00050463          	beqz	a0,13c64 <_vfprintf_r+0x2254>
   13c60:	998fe06f          	j	11df8 <_vfprintf_r+0x3e8>
   13c64:	00022737          	lui	a4,0x22
   13c68:	d9470893          	addi	a7,a4,-620 # 21d94 <zeroes.0>
   13c6c:	ff090913          	addi	s2,s2,-16
   13c70:	01000713          	li	a4,16
   13c74:	0cc12603          	lw	a2,204(sp)
   13c78:	0c812783          	lw	a5,200(sp)
   13c7c:	00098593          	mv	a1,s3
   13c80:	00700813          	li	a6,7
   13c84:	fb2744e3          	blt	a4,s2,13c2c <_vfprintf_r+0x221c>
   13c88:	02c12f03          	lw	t5,44(sp)
   13c8c:	03c12f83          	lw	t6,60(sp)
   13c90:	01260633          	add	a2,a2,s2
   13c94:	00178793          	addi	a5,a5,1
   13c98:	0cc12623          	sw	a2,204(sp)
   13c9c:	0cf12423          	sw	a5,200(sp)
   13ca0:	01f5a023          	sw	t6,0(a1)
   13ca4:	0125a223          	sw	s2,4(a1)
   13ca8:	6cf84a63          	blt	a6,a5,1437c <_vfprintf_r+0x296c>
   13cac:	000cc783          	lbu	a5,0(s9)
   13cb0:	00858593          	addi	a1,a1,8
   13cb4:	f41ff06f          	j	13bf4 <_vfprintf_r+0x21e4>
   13cb8:	0c410613          	addi	a2,sp,196
   13cbc:	00048593          	mv	a1,s1
   13cc0:	000a8513          	mv	a0,s5
   13cc4:	5e5000ef          	jal	14aa8 <__sprint_r>
   13cc8:	00050463          	beqz	a0,13cd0 <_vfprintf_r+0x22c0>
   13ccc:	92cfe06f          	j	11df8 <_vfprintf_r+0x3e8>
   13cd0:	000227b7          	lui	a5,0x22
   13cd4:	0cc12603          	lw	a2,204(sp)
   13cd8:	00098593          	mv	a1,s3
   13cdc:	d9478893          	addi	a7,a5,-620 # 21d94 <zeroes.0>
   13ce0:	01000713          	li	a4,16
   13ce4:	00700813          	li	a6,7
   13ce8:	eb9ff06f          	j	13ba0 <_vfprintf_r+0x2190>
   13cec:	0c410613          	addi	a2,sp,196
   13cf0:	00048593          	mv	a1,s1
   13cf4:	000a8513          	mv	a0,s5
   13cf8:	03e12623          	sw	t5,44(sp)
   13cfc:	5ad000ef          	jal	14aa8 <__sprint_r>
   13d00:	00050463          	beqz	a0,13d08 <_vfprintf_r+0x22f8>
   13d04:	8f4fe06f          	j	11df8 <_vfprintf_r+0x3e8>
   13d08:	00022737          	lui	a4,0x22
   13d0c:	d9470893          	addi	a7,a4,-620 # 21d94 <zeroes.0>
   13d10:	000cc783          	lbu	a5,0(s9)
   13d14:	0cc12603          	lw	a2,204(sp)
   13d18:	02c12f03          	lw	t5,44(sp)
   13d1c:	00098593          	mv	a1,s3
   13d20:	01000713          	li	a4,16
   13d24:	00700813          	li	a6,7
   13d28:	eb9ff06f          	j	13be0 <_vfprintf_r+0x21d0>
   13d2c:	00078c13          	mv	s8,a5
   13d30:	80dff06f          	j	1353c <_vfprintf_r+0x1b2c>
   13d34:	00c12503          	lw	a0,12(sp)
   13d38:	0c410613          	addi	a2,sp,196
   13d3c:	00048593          	mv	a1,s1
   13d40:	04612223          	sw	t1,68(sp)
   13d44:	565000ef          	jal	14aa8 <__sprint_r>
   13d48:	00050463          	beqz	a0,13d50 <_vfprintf_r+0x2340>
   13d4c:	8acfe06f          	j	11df8 <_vfprintf_r+0x3e8>
   13d50:	0cc12603          	lw	a2,204(sp)
   13d54:	04412303          	lw	t1,68(sp)
   13d58:	00098b13          	mv	s6,s3
   13d5c:	a34ff06f          	j	12f90 <_vfprintf_r+0x1580>
   13d60:	001bf713          	andi	a4,s7,1
   13d64:	00071463          	bnez	a4,13d6c <_vfprintf_r+0x235c>
   13d68:	fb1fd06f          	j	11d18 <_vfprintf_r+0x308>
   13d6c:	03012783          	lw	a5,48(sp)
   13d70:	0c812703          	lw	a4,200(sp)
   13d74:	00700593          	li	a1,7
   13d78:	00c78633          	add	a2,a5,a2
   13d7c:	03412783          	lw	a5,52(sp)
   13d80:	00170713          	addi	a4,a4,1
   13d84:	0cc12623          	sw	a2,204(sp)
   13d88:	00fb2023          	sw	a5,0(s6)
   13d8c:	03012783          	lw	a5,48(sp)
   13d90:	0ce12423          	sw	a4,200(sp)
   13d94:	00fb2223          	sw	a5,4(s6)
   13d98:	58e5dc63          	bge	a1,a4,14330 <_vfprintf_r+0x2920>
   13d9c:	00c12503          	lw	a0,12(sp)
   13da0:	0c410613          	addi	a2,sp,196
   13da4:	00048593          	mv	a1,s1
   13da8:	501000ef          	jal	14aa8 <__sprint_r>
   13dac:	00050463          	beqz	a0,13db4 <_vfprintf_r+0x23a4>
   13db0:	848fe06f          	j	11df8 <_vfprintf_r+0x3e8>
   13db4:	0a812503          	lw	a0,168(sp)
   13db8:	0cc12603          	lw	a2,204(sp)
   13dbc:	0c812703          	lw	a4,200(sp)
   13dc0:	00098b13          	mv	s6,s3
   13dc4:	a09ff06f          	j	137cc <_vfprintf_r+0x1dbc>
   13dc8:	02812703          	lw	a4,40(sp)
   13dcc:	02012783          	lw	a5,32(sp)
   13dd0:	41270933          	sub	s2,a4,s2
   13dd4:	00e787b3          	add	a5,a5,a4
   13dd8:	41b78cb3          	sub	s9,a5,s11
   13ddc:	a7995863          	bge	s2,s9,1304c <_vfprintf_r+0x163c>
   13de0:	00090c93          	mv	s9,s2
   13de4:	a68ff06f          	j	1304c <_vfprintf_r+0x163c>
   13de8:	00098b13          	mv	s6,s3
   13dec:	ef1fd06f          	j	11cdc <_vfprintf_r+0x2cc>
   13df0:	00f12c23          	sw	a5,24(sp)
   13df4:	000b8693          	mv	a3,s7
   13df8:	00000613          	li	a2,0
   13dfc:	d35fe06f          	j	12b30 <_vfprintf_r+0x1120>
   13e00:	41f75813          	srai	a6,a4,0x1f
   13e04:	00070d93          	mv	s11,a4
   13e08:	00f12c23          	sw	a5,24(sp)
   13e0c:	00080693          	mv	a3,a6
   13e10:	949fe06f          	j	12758 <_vfprintf_r+0xd48>
   13e14:	0ff77d93          	zext.b	s11,a4
   13e18:	00000813          	li	a6,0
   13e1c:	d4095a63          	bgez	s2,13370 <_vfprintf_r+0x1960>
   13e20:	a0dfe06f          	j	1282c <_vfprintf_r+0xe1c>
   13e24:	0ff77713          	zext.b	a4,a4
   13e28:	00000613          	li	a2,0
   13e2c:	ec8ff06f          	j	134f4 <_vfprintf_r+0x1ae4>
   13e30:	01812783          	lw	a5,24(sp)
   13e34:	01412683          	lw	a3,20(sp)
   13e38:	00e12c23          	sw	a4,24(sp)
   13e3c:	0007a783          	lw	a5,0(a5)
   13e40:	00d79023          	sh	a3,0(a5)
   13e44:	ce1fd06f          	j	11b24 <_vfprintf_r+0x114>
   13e48:	04700793          	li	a5,71
   13e4c:	0a314703          	lbu	a4,163(sp)
   13e50:	0717d0e3          	bge	a5,a7,146b0 <_vfprintf_r+0x2ca0>
   13e54:	000227b7          	lui	a5,0x22
   13e58:	ae878793          	addi	a5,a5,-1304 # 21ae8 <__clzsi2+0x6c>
   13e5c:	02f12023          	sw	a5,32(sp)
   13e60:	32071ae3          	bnez	a4,14994 <_vfprintf_r+0x2f84>
   13e64:	00300f13          	li	t5,3
   13e68:	000f0c13          	mv	s8,t5
   13e6c:	00000913          	li	s2,0
   13e70:	02012623          	sw	zero,44(sp)
   13e74:	00000c93          	li	s9,0
   13e78:	00012e23          	sw	zero,28(sp)
   13e7c:	dd1fd06f          	j	11c4c <_vfprintf_r+0x23c>
   13e80:	000227b7          	lui	a5,0x22
   13e84:	ae078793          	addi	a5,a5,-1312 # 21ae0 <__clzsi2+0x64>
   13e88:	02f12023          	sw	a5,32(sp)
   13e8c:	a5dff06f          	j	138e8 <_vfprintf_r+0x1ed8>
   13e90:	04c12783          	lw	a5,76(sp)
   13e94:	04012583          	lw	a1,64(sp)
   13e98:	00100913          	li	s2,1
   13e9c:	40fa84b3          	sub	s1,s5,a5
   13ea0:	00078613          	mv	a2,a5
   13ea4:	00048513          	mv	a0,s1
   13ea8:	76c010ef          	jal	15614 <strncpy>
   13eac:	03c12783          	lw	a5,60(sp)
   13eb0:	03c12703          	lw	a4,60(sp)
   13eb4:	000b0513          	mv	a0,s6
   13eb8:	0017c783          	lbu	a5,1(a5)
   13ebc:	000b8593          	mv	a1,s7
   13ec0:	00a00613          	li	a2,10
   13ec4:	00f037b3          	snez	a5,a5
   13ec8:	00f707b3          	add	a5,a4,a5
   13ecc:	00000693          	li	a3,0
   13ed0:	02f12e23          	sw	a5,60(sp)
   13ed4:	060080ef          	jal	1bf34 <__udivdi3>
   13ed8:	00a00613          	li	a2,10
   13edc:	00000693          	li	a3,0
   13ee0:	00050b13          	mv	s6,a0
   13ee4:	00058b93          	mv	s7,a1
   13ee8:	600080ef          	jal	1c4e8 <__umoddi3>
   13eec:	03050793          	addi	a5,a0,48
   13ef0:	fff48a93          	addi	s5,s1,-1
   13ef4:	fef48fa3          	sb	a5,-1(s1)
   13ef8:	b9dfe06f          	j	12a94 <_vfprintf_r+0x1084>
   13efc:	07800793          	li	a5,120
   13f00:	804fe06f          	j	11f04 <_vfprintf_r+0x4f4>
   13f04:	00c12503          	lw	a0,12(sp)
   13f08:	00190593          	addi	a1,s2,1
   13f0c:	01112e23          	sw	a7,28(sp)
   13f10:	a7cfd0ef          	jal	1118c <_malloc_r>
   13f14:	02a12023          	sw	a0,32(sp)
   13f18:	01c12883          	lw	a7,28(sp)
   13f1c:	28050ae3          	beqz	a0,149b0 <_vfprintf_r+0x2fa0>
   13f20:	02012783          	lw	a5,32(sp)
   13f24:	0dc12703          	lw	a4,220(sp)
   13f28:	0d012683          	lw	a3,208(sp)
   13f2c:	00f12e23          	sw	a5,28(sp)
   13f30:	0d412603          	lw	a2,212(sp)
   13f34:	0d812583          	lw	a1,216(sp)
   13f38:	72074c63          	bltz	a4,14670 <_vfprintf_r+0x2c60>
   13f3c:	04012223          	sw	zero,68(sp)
   13f40:	ffdfd06f          	j	11f3c <_vfprintf_r+0x52c>
   13f44:	6e0ccc63          	bltz	s9,1463c <_vfprintf_r+0x2c2c>
   13f48:	04012223          	sw	zero,68(sp)
   13f4c:	00600913          	li	s2,6
   13f50:	04600793          	li	a5,70
   13f54:	46fc1463          	bne	s8,a5,143bc <_vfprintf_r+0x29ac>
   13f58:	00c12503          	lw	a0,12(sp)
   13f5c:	0a810713          	addi	a4,sp,168
   13f60:	00090693          	mv	a3,s2
   13f64:	09010593          	addi	a1,sp,144
   13f68:	0b010813          	addi	a6,sp,176
   13f6c:	0ac10793          	addi	a5,sp,172
   13f70:	00300613          	li	a2,3
   13f74:	05112823          	sw	a7,80(sp)
   13f78:	09d12823          	sw	t4,144(sp)
   13f7c:	05d12423          	sw	t4,72(sp)
   13f80:	09e12a23          	sw	t5,148(sp)
   13f84:	03e12623          	sw	t5,44(sp)
   13f88:	08512c23          	sw	t0,152(sp)
   13f8c:	02512423          	sw	t0,40(sp)
   13f90:	09912e23          	sw	s9,156(sp)
   13f94:	4e9010ef          	jal	15c7c <_ldtoa_r>
   13f98:	00054683          	lbu	a3,0(a0)
   13f9c:	02a12023          	sw	a0,32(sp)
   13fa0:	03000713          	li	a4,48
   13fa4:	02812283          	lw	t0,40(sp)
   13fa8:	02c12f03          	lw	t5,44(sp)
   13fac:	04812e83          	lw	t4,72(sp)
   13fb0:	05012883          	lw	a7,80(sp)
   13fb4:	01250ab3          	add	s5,a0,s2
   13fb8:	06e684e3          	beq	a3,a4,14820 <_vfprintf_r+0x2e10>
   13fbc:	0a812f83          	lw	t6,168(sp)
   13fc0:	09010513          	addi	a0,sp,144
   13fc4:	08010593          	addi	a1,sp,128
   13fc8:	03112423          	sw	a7,40(sp)
   13fcc:	09d12823          	sw	t4,144(sp)
   13fd0:	09e12a23          	sw	t5,148(sp)
   13fd4:	08512c23          	sw	t0,152(sp)
   13fd8:	09912e23          	sw	s9,156(sp)
   13fdc:	08012023          	sw	zero,128(sp)
   13fe0:	08012223          	sw	zero,132(sp)
   13fe4:	08012423          	sw	zero,136(sp)
   13fe8:	08012623          	sw	zero,140(sp)
   13fec:	01fa8ab3          	add	s5,s5,t6
   13ff0:	2f90a0ef          	jal	1eae8 <__eqtf2>
   13ff4:	0a812303          	lw	t1,168(sp)
   13ff8:	000516e3          	bnez	a0,14804 <_vfprintf_r+0x2df4>
   13ffc:	02012783          	lw	a5,32(sp)
   14000:	40fa87b3          	sub	a5,s5,a5
   14004:	02f12423          	sw	a5,40(sp)
   14008:	001bf713          	andi	a4,s7,1
   1400c:	01276733          	or	a4,a4,s2
   14010:	0a6054e3          	blez	t1,148b8 <_vfprintf_r+0x2ea8>
   14014:	70071463          	bnez	a4,1471c <_vfprintf_r+0x2d0c>
   14018:	00030f13          	mv	t5,t1
   1401c:	06600893          	li	a7,102
   14020:	400bfe13          	andi	t3,s7,1024
   14024:	6a0e1063          	bnez	t3,146c4 <_vfprintf_r+0x2cb4>
   14028:	ffff4693          	not	a3,t5
   1402c:	41f6d693          	srai	a3,a3,0x1f
   14030:	00df7c33          	and	s8,t5,a3
   14034:	04412783          	lw	a5,68(sp)
   14038:	4c078663          	beqz	a5,14504 <_vfprintf_r+0x2af4>
   1403c:	02d00713          	li	a4,45
   14040:	0ae101a3          	sb	a4,163(sp)
   14044:	001c0c13          	addi	s8,s8,1
   14048:	01c12b83          	lw	s7,28(sp)
   1404c:	00000913          	li	s2,0
   14050:	00012e23          	sw	zero,28(sp)
   14054:	02012623          	sw	zero,44(sp)
   14058:	00000c93          	li	s9,0
   1405c:	bf1fd06f          	j	11c4c <_vfprintf_r+0x23c>
   14060:	04412b83          	lw	s7,68(sp)
   14064:	04812c03          	lw	s8,72(sp)
   14068:	05012d03          	lw	s10,80(sp)
   1406c:	00058b13          	mv	s6,a1
   14070:	03912e23          	sw	s9,60(sp)
   14074:	01bf6463          	bltu	t5,s11,1407c <_vfprintf_r+0x266c>
   14078:	f3dfe06f          	j	12fb4 <_vfprintf_r+0x15a4>
   1407c:	000f0d93          	mv	s11,t5
   14080:	f35fe06f          	j	12fb4 <_vfprintf_r+0x15a4>
   14084:	04012223          	sw	zero,68(sp)
   14088:	000cda63          	bgez	s9,1409c <_vfprintf_r+0x268c>
   1408c:	800007b7          	lui	a5,0x80000
   14090:	00fcccb3          	xor	s9,s9,a5
   14094:	02d00793          	li	a5,45
   14098:	04f12223          	sw	a5,68(sp)
   1409c:	00c12503          	lw	a0,12(sp)
   140a0:	09010d93          	addi	s11,sp,144
   140a4:	000d8593          	mv	a1,s11
   140a8:	0b010813          	addi	a6,sp,176
   140ac:	0ac10793          	addi	a5,sp,172
   140b0:	0a810713          	addi	a4,sp,168
   140b4:	00100693          	li	a3,1
   140b8:	00200613          	li	a2,2
   140bc:	05112a23          	sw	a7,84(sp)
   140c0:	09d12823          	sw	t4,144(sp)
   140c4:	05d12823          	sw	t4,80(sp)
   140c8:	09e12a23          	sw	t5,148(sp)
   140cc:	05e12423          	sw	t5,72(sp)
   140d0:	08512c23          	sw	t0,152(sp)
   140d4:	02512623          	sw	t0,44(sp)
   140d8:	09912e23          	sw	s9,156(sp)
   140dc:	3a1010ef          	jal	15c7c <_ldtoa_r>
   140e0:	02c12283          	lw	t0,44(sp)
   140e4:	04812f03          	lw	t5,72(sp)
   140e8:	05012e83          	lw	t4,80(sp)
   140ec:	05412883          	lw	a7,84(sp)
   140f0:	00100913          	li	s2,1
   140f4:	02a12023          	sw	a0,32(sp)
   140f8:	03212423          	sw	s2,40(sp)
   140fc:	001bf713          	andi	a4,s7,1
   14100:	1a070263          	beqz	a4,142a4 <_vfprintf_r+0x2894>
   14104:	000d8513          	mv	a0,s11
   14108:	08010593          	addi	a1,sp,128
   1410c:	03112623          	sw	a7,44(sp)
   14110:	09d12823          	sw	t4,144(sp)
   14114:	09e12a23          	sw	t5,148(sp)
   14118:	08512c23          	sw	t0,152(sp)
   1411c:	09912e23          	sw	s9,156(sp)
   14120:	08012023          	sw	zero,128(sp)
   14124:	08012223          	sw	zero,132(sp)
   14128:	08012423          	sw	zero,136(sp)
   1412c:	08012623          	sw	zero,140(sp)
   14130:	1b90a0ef          	jal	1eae8 <__eqtf2>
   14134:	02c12883          	lw	a7,44(sp)
   14138:	76050c63          	beqz	a0,148b0 <_vfprintf_r+0x2ea0>
   1413c:	02012783          	lw	a5,32(sp)
   14140:	02812683          	lw	a3,40(sp)
   14144:	0b012703          	lw	a4,176(sp)
   14148:	00d78ab3          	add	s5,a5,a3
   1414c:	035772e3          	bgeu	a4,s5,14970 <_vfprintf_r+0x2f60>
   14150:	03000613          	li	a2,48
   14154:	00170793          	addi	a5,a4,1
   14158:	0af12823          	sw	a5,176(sp)
   1415c:	00c70023          	sb	a2,0(a4)
   14160:	0b012703          	lw	a4,176(sp)
   14164:	ff5768e3          	bltu	a4,s5,14154 <_vfprintf_r+0x2744>
   14168:	02012783          	lw	a5,32(sp)
   1416c:	04700693          	li	a3,71
   14170:	0a812303          	lw	t1,168(sp)
   14174:	40f707b3          	sub	a5,a4,a5
   14178:	02f12423          	sw	a5,40(sp)
   1417c:	12dc0e63          	beq	s8,a3,142b8 <_vfprintf_r+0x28a8>
   14180:	04600713          	li	a4,70
   14184:	e8ec02e3          	beq	s8,a4,14008 <_vfprintf_r+0x25f8>
   14188:	fff30c13          	addi	s8,t1,-1
   1418c:	0b110a23          	sb	a7,180(sp)
   14190:	0b812423          	sw	s8,168(sp)
   14194:	640c4063          	bltz	s8,147d4 <_vfprintf_r+0x2dc4>
   14198:	02b00713          	li	a4,43
   1419c:	0ae10aa3          	sb	a4,181(sp)
   141a0:	00900713          	li	a4,9
   141a4:	65875463          	bge	a4,s8,147ec <_vfprintf_r+0x2ddc>
   141a8:	03712623          	sw	s7,44(sp)
   141ac:	00012e23          	sw	zero,28(sp)
   141b0:	0c310913          	addi	s2,sp,195
   141b4:	00090d93          	mv	s11,s2
   141b8:	06300a93          	li	s5,99
   141bc:	00088c93          	mv	s9,a7
   141c0:	02912c23          	sw	s1,56(sp)
   141c4:	00a00593          	li	a1,10
   141c8:	000c0513          	mv	a0,s8
   141cc:	0810d0ef          	jal	21a4c <__modsi3>
   141d0:	03050793          	addi	a5,a0,48
   141d4:	000d8b93          	mv	s7,s11
   141d8:	000c0513          	mv	a0,s8
   141dc:	fefb8fa3          	sb	a5,-1(s7)
   141e0:	00a00593          	li	a1,10
   141e4:	000c0493          	mv	s1,s8
   141e8:	7e00d0ef          	jal	219c8 <__divsi3>
   141ec:	fffd8d93          	addi	s11,s11,-1
   141f0:	00050c13          	mv	s8,a0
   141f4:	fc9ac8e3          	blt	s5,s1,141c4 <_vfprintf_r+0x27b4>
   141f8:	03050693          	addi	a3,a0,48
   141fc:	fedd8fa3          	sb	a3,-1(s11)
   14200:	ffeb8713          	addi	a4,s7,-2
   14204:	03812483          	lw	s1,56(sp)
   14208:	000c8893          	mv	a7,s9
   1420c:	75277463          	bgeu	a4,s2,14954 <_vfprintf_r+0x2f44>
   14210:	0b610513          	addi	a0,sp,182
   14214:	00050693          	mv	a3,a0
   14218:	00074783          	lbu	a5,0(a4)
   1421c:	00170713          	addi	a4,a4,1
   14220:	00168693          	addi	a3,a3,1
   14224:	fef68fa3          	sb	a5,-1(a3)
   14228:	ff2718e3          	bne	a4,s2,14218 <_vfprintf_r+0x2808>
   1422c:	00a70733          	add	a4,a4,a0
   14230:	00270713          	addi	a4,a4,2
   14234:	41770733          	sub	a4,a4,s7
   14238:	0b410693          	addi	a3,sp,180
   1423c:	40d707b3          	sub	a5,a4,a3
   14240:	02f12c23          	sw	a5,56(sp)
   14244:	02812783          	lw	a5,40(sp)
   14248:	03812683          	lw	a3,56(sp)
   1424c:	00100713          	li	a4,1
   14250:	00d78f33          	add	t5,a5,a3
   14254:	40f75063          	bge	a4,a5,14654 <_vfprintf_r+0x2c44>
   14258:	03012783          	lw	a5,48(sp)
   1425c:	00ff0f33          	add	t5,t5,a5
   14260:	02c12783          	lw	a5,44(sp)
   14264:	ffff4693          	not	a3,t5
   14268:	41f6d693          	srai	a3,a3,0x1f
   1426c:	bff7fe13          	andi	t3,a5,-1025
   14270:	0027f313          	andi	t1,a5,2
   14274:	04412783          	lw	a5,68(sp)
   14278:	00df7c33          	and	s8,t5,a3
   1427c:	100e6b93          	ori	s7,t3,256
   14280:	34078a63          	beqz	a5,145d4 <_vfprintf_r+0x2bc4>
   14284:	02d00e93          	li	t4,45
   14288:	0bd101a3          	sb	t4,163(sp)
   1428c:	00000913          	li	s2,0
   14290:	001c0c13          	addi	s8,s8,1
   14294:	d08fe06f          	j	1279c <_vfprintf_r+0xd8c>
   14298:	02812783          	lw	a5,40(sp)
   1429c:	00a7c583          	lbu	a1,10(a5) # 8000000a <__BSS_END__+0x7ffdc226>
   142a0:	f85fd06f          	j	12224 <_vfprintf_r+0x814>
   142a4:	0b012703          	lw	a4,176(sp)
   142a8:	02012783          	lw	a5,32(sp)
   142ac:	0a812303          	lw	t1,168(sp)
   142b0:	40f707b3          	sub	a5,a4,a5
   142b4:	02f12423          	sw	a5,40(sp)
   142b8:	ffd32713          	slti	a4,t1,-3
   142bc:	00071463          	bnez	a4,142c4 <_vfprintf_r+0x28b4>
   142c0:	00695663          	bge	s2,t1,142cc <_vfprintf_r+0x28bc>
   142c4:	ffe88893          	addi	a7,a7,-2
   142c8:	ec1ff06f          	j	14188 <_vfprintf_r+0x2778>
   142cc:	02812783          	lw	a5,40(sp)
   142d0:	2cf34c63          	blt	t1,a5,145a8 <_vfprintf_r+0x2b98>
   142d4:	001bf713          	andi	a4,s7,1
   142d8:	00030f13          	mv	t5,t1
   142dc:	00070663          	beqz	a4,142e8 <_vfprintf_r+0x28d8>
   142e0:	03012783          	lw	a5,48(sp)
   142e4:	00f30f33          	add	t5,t1,a5
   142e8:	400bfe13          	andi	t3,s7,1024
   142ec:	000e0463          	beqz	t3,142f4 <_vfprintf_r+0x28e4>
   142f0:	3c604863          	bgtz	t1,146c0 <_vfprintf_r+0x2cb0>
   142f4:	ffff4693          	not	a3,t5
   142f8:	41f6d693          	srai	a3,a3,0x1f
   142fc:	00df7c33          	and	s8,t5,a3
   14300:	06700893          	li	a7,103
   14304:	d31ff06f          	j	14034 <_vfprintf_r+0x2624>
   14308:	00c12503          	lw	a0,12(sp)
   1430c:	0c410613          	addi	a2,sp,196
   14310:	00048593          	mv	a1,s1
   14314:	794000ef          	jal	14aa8 <__sprint_r>
   14318:	00050463          	beqz	a0,14320 <_vfprintf_r+0x2910>
   1431c:	addfd06f          	j	11df8 <_vfprintf_r+0x3e8>
   14320:	0a812503          	lw	a0,168(sp)
   14324:	0cc12603          	lw	a2,204(sp)
   14328:	00098b13          	mv	s6,s3
   1432c:	c60ff06f          	j	1378c <_vfprintf_r+0x1d7c>
   14330:	008b0b13          	addi	s6,s6,8
   14334:	c9cff06f          	j	137d0 <_vfprintf_r+0x1dc0>
   14338:	02d00793          	li	a5,45
   1433c:	0af101a3          	sb	a5,163(sp)
   14340:	04700793          	li	a5,71
   14344:	3517d063          	bge	a5,a7,14684 <_vfprintf_r+0x2c74>
   14348:	000227b7          	lui	a5,0x22
   1434c:	ae078793          	addi	a5,a5,-1312 # 21ae0 <__clzsi2+0x64>
   14350:	ef8ff06f          	j	13a48 <_vfprintf_r+0x2038>
   14354:	00c12503          	lw	a0,12(sp)
   14358:	0c410613          	addi	a2,sp,196
   1435c:	00048593          	mv	a1,s1
   14360:	748000ef          	jal	14aa8 <__sprint_r>
   14364:	00050463          	beqz	a0,1436c <_vfprintf_r+0x295c>
   14368:	a91fd06f          	j	11df8 <_vfprintf_r+0x3e8>
   1436c:	0a812903          	lw	s2,168(sp)
   14370:	0cc12603          	lw	a2,204(sp)
   14374:	00098b13          	mv	s6,s3
   14378:	c89fe06f          	j	13000 <_vfprintf_r+0x15f0>
   1437c:	0c410613          	addi	a2,sp,196
   14380:	00048593          	mv	a1,s1
   14384:	000a8513          	mv	a0,s5
   14388:	03e12623          	sw	t5,44(sp)
   1438c:	71c000ef          	jal	14aa8 <__sprint_r>
   14390:	00050463          	beqz	a0,14398 <_vfprintf_r+0x2988>
   14394:	a65fd06f          	j	11df8 <_vfprintf_r+0x3e8>
   14398:	00022737          	lui	a4,0x22
   1439c:	d9470893          	addi	a7,a4,-620 # 21d94 <zeroes.0>
   143a0:	000cc783          	lbu	a5,0(s9)
   143a4:	0cc12603          	lw	a2,204(sp)
   143a8:	02c12f03          	lw	t5,44(sp)
   143ac:	00098593          	mv	a1,s3
   143b0:	01000713          	li	a4,16
   143b4:	00700813          	li	a6,7
   143b8:	83dff06f          	j	13bf4 <_vfprintf_r+0x21e4>
   143bc:	fbbc0793          	addi	a5,s8,-69
   143c0:	00c12503          	lw	a0,12(sp)
   143c4:	0017b793          	seqz	a5,a5
   143c8:	012787b3          	add	a5,a5,s2
   143cc:	09010d93          	addi	s11,sp,144
   143d0:	02f12423          	sw	a5,40(sp)
   143d4:	00078693          	mv	a3,a5
   143d8:	0a810713          	addi	a4,sp,168
   143dc:	000d8593          	mv	a1,s11
   143e0:	0b010813          	addi	a6,sp,176
   143e4:	0ac10793          	addi	a5,sp,172
   143e8:	00200613          	li	a2,2
   143ec:	05112a23          	sw	a7,84(sp)
   143f0:	09d12823          	sw	t4,144(sp)
   143f4:	05d12823          	sw	t4,80(sp)
   143f8:	09e12a23          	sw	t5,148(sp)
   143fc:	05e12423          	sw	t5,72(sp)
   14400:	08512c23          	sw	t0,152(sp)
   14404:	02512623          	sw	t0,44(sp)
   14408:	09912e23          	sw	s9,156(sp)
   1440c:	071010ef          	jal	15c7c <_ldtoa_r>
   14410:	04700713          	li	a4,71
   14414:	02a12023          	sw	a0,32(sp)
   14418:	02c12283          	lw	t0,44(sp)
   1441c:	04812f03          	lw	t5,72(sp)
   14420:	05012e83          	lw	t4,80(sp)
   14424:	05412883          	lw	a7,84(sp)
   14428:	ccec0ae3          	beq	s8,a4,140fc <_vfprintf_r+0x26ec>
   1442c:	000d8513          	mv	a0,s11
   14430:	08010593          	addi	a1,sp,128
   14434:	03112623          	sw	a7,44(sp)
   14438:	09d12823          	sw	t4,144(sp)
   1443c:	09e12a23          	sw	t5,148(sp)
   14440:	08512c23          	sw	t0,152(sp)
   14444:	09912e23          	sw	s9,156(sp)
   14448:	08012023          	sw	zero,128(sp)
   1444c:	08012223          	sw	zero,132(sp)
   14450:	08012423          	sw	zero,136(sp)
   14454:	08012623          	sw	zero,140(sp)
   14458:	6900a0ef          	jal	1eae8 <__eqtf2>
   1445c:	02c12883          	lw	a7,44(sp)
   14460:	52050063          	beqz	a0,14980 <_vfprintf_r+0x2f70>
   14464:	02012783          	lw	a5,32(sp)
   14468:	02812683          	lw	a3,40(sp)
   1446c:	0b012703          	lw	a4,176(sp)
   14470:	00d78ab3          	add	s5,a5,a3
   14474:	cd576ee3          	bltu	a4,s5,14150 <_vfprintf_r+0x2740>
   14478:	40f707b3          	sub	a5,a4,a5
   1447c:	0a812303          	lw	t1,168(sp)
   14480:	02f12423          	sw	a5,40(sp)
   14484:	d05ff06f          	j	14188 <_vfprintf_r+0x2778>
   14488:	fff00793          	li	a5,-1
   1448c:	00f12a23          	sw	a5,20(sp)
   14490:	9adfd06f          	j	11e3c <_vfprintf_r+0x42c>
   14494:	01512c23          	sw	s5,24(sp)
   14498:	1e070e63          	beqz	a4,14694 <_vfprintf_r+0x2c84>
   1449c:	00190c13          	addi	s8,s2,1
   144a0:	00090f13          	mv	t5,s2
   144a4:	02012623          	sw	zero,44(sp)
   144a8:	00000913          	li	s2,0
   144ac:	00000c93          	li	s9,0
   144b0:	00000313          	li	t1,0
   144b4:	f98fd06f          	j	11c4c <_vfprintf_r+0x23c>
   144b8:	da480813          	addi	a6,a6,-604
   144bc:	c81fe06f          	j	1313c <_vfprintf_r+0x172c>
   144c0:	01c12703          	lw	a4,28(sp)
   144c4:	00900793          	li	a5,9
   144c8:	00e7f463          	bgeu	a5,a4,144d0 <_vfprintf_r+0x2ac0>
   144cc:	da0fe06f          	j	12a6c <_vfprintf_r+0x105c>
   144d0:	decfe06f          	j	12abc <_vfprintf_r+0x10ac>
   144d4:	00c12503          	lw	a0,12(sp)
   144d8:	0c410613          	addi	a2,sp,196
   144dc:	00048593          	mv	a1,s1
   144e0:	5c8000ef          	jal	14aa8 <__sprint_r>
   144e4:	00050463          	beqz	a0,144ec <_vfprintf_r+0x2adc>
   144e8:	911fd06f          	j	11df8 <_vfprintf_r+0x3e8>
   144ec:	0a812903          	lw	s2,168(sp)
   144f0:	02812783          	lw	a5,40(sp)
   144f4:	0cc12603          	lw	a2,204(sp)
   144f8:	00098b13          	mv	s6,s3
   144fc:	41278933          	sub	s2,a5,s2
   14500:	b4dfe06f          	j	1304c <_vfprintf_r+0x163c>
   14504:	0a314703          	lbu	a4,163(sp)
   14508:	b40700e3          	beqz	a4,14048 <_vfprintf_r+0x2638>
   1450c:	001c0c13          	addi	s8,s8,1
   14510:	b39ff06f          	j	14048 <_vfprintf_r+0x2638>
   14514:	000b8693          	mv	a3,s7
   14518:	de5fe06f          	j	132fc <_vfprintf_r+0x18ec>
   1451c:	000b8e13          	mv	t3,s7
   14520:	df9fe06f          	j	13318 <_vfprintf_r+0x1908>
   14524:	00022837          	lui	a6,0x22
   14528:	ff000593          	li	a1,-16
   1452c:	d9480c93          	addi	s9,a6,-620 # 21d94 <zeroes.0>
   14530:	40a00933          	neg	s2,a0
   14534:	01000a93          	li	s5,16
   14538:	00700d93          	li	s11,7
   1453c:	d9480813          	addi	a6,a6,-620
   14540:	00b54863          	blt	a0,a1,14550 <_vfprintf_r+0x2b40>
   14544:	0a80006f          	j	145ec <_vfprintf_r+0x2bdc>
   14548:	ff090913          	addi	s2,s2,-16
   1454c:	092ade63          	bge	s5,s2,145e8 <_vfprintf_r+0x2bd8>
   14550:	01060613          	addi	a2,a2,16
   14554:	00170713          	addi	a4,a4,1
   14558:	019b2023          	sw	s9,0(s6)
   1455c:	015b2223          	sw	s5,4(s6)
   14560:	0cc12623          	sw	a2,204(sp)
   14564:	0ce12423          	sw	a4,200(sp)
   14568:	008b0b13          	addi	s6,s6,8
   1456c:	fceddee3          	bge	s11,a4,14548 <_vfprintf_r+0x2b38>
   14570:	00c12503          	lw	a0,12(sp)
   14574:	0c410613          	addi	a2,sp,196
   14578:	00048593          	mv	a1,s1
   1457c:	52c000ef          	jal	14aa8 <__sprint_r>
   14580:	00050463          	beqz	a0,14588 <_vfprintf_r+0x2b78>
   14584:	875fd06f          	j	11df8 <_vfprintf_r+0x3e8>
   14588:	0cc12603          	lw	a2,204(sp)
   1458c:	0c812703          	lw	a4,200(sp)
   14590:	00098b13          	mv	s6,s3
   14594:	fb5ff06f          	j	14548 <_vfprintf_r+0x2b38>
   14598:	da480813          	addi	a6,a6,-604
   1459c:	8fdfe06f          	j	12e98 <_vfprintf_r+0x1488>
   145a0:	000b8e13          	mv	t3,s7
   145a4:	becfe06f          	j	12990 <_vfprintf_r+0xf80>
   145a8:	02812783          	lw	a5,40(sp)
   145ac:	03012703          	lw	a4,48(sp)
   145b0:	06700893          	li	a7,103
   145b4:	00e78f33          	add	t5,a5,a4
   145b8:	a66044e3          	bgtz	t1,14020 <_vfprintf_r+0x2610>
   145bc:	406f0f33          	sub	t5,t5,t1
   145c0:	001f0f13          	addi	t5,t5,1
   145c4:	ffff4693          	not	a3,t5
   145c8:	41f6d693          	srai	a3,a3,0x1f
   145cc:	00df7c33          	and	s8,t5,a3
   145d0:	a65ff06f          	j	14034 <_vfprintf_r+0x2624>
   145d4:	0a314e83          	lbu	t4,163(sp)
   145d8:	00000913          	li	s2,0
   145dc:	000e8463          	beqz	t4,145e4 <_vfprintf_r+0x2bd4>
   145e0:	a84fe06f          	j	12864 <_vfprintf_r+0xe54>
   145e4:	9b8fe06f          	j	1279c <_vfprintf_r+0xd8c>
   145e8:	000c8813          	mv	a6,s9
   145ec:	01260633          	add	a2,a2,s2
   145f0:	00170713          	addi	a4,a4,1
   145f4:	0cc12623          	sw	a2,204(sp)
   145f8:	0ce12423          	sw	a4,200(sp)
   145fc:	010b2023          	sw	a6,0(s6)
   14600:	012b2223          	sw	s2,4(s6)
   14604:	00700593          	li	a1,7
   14608:	d2e5d4e3          	bge	a1,a4,14330 <_vfprintf_r+0x2920>
   1460c:	00c12503          	lw	a0,12(sp)
   14610:	0c410613          	addi	a2,sp,196
   14614:	00048593          	mv	a1,s1
   14618:	490000ef          	jal	14aa8 <__sprint_r>
   1461c:	00050463          	beqz	a0,14624 <_vfprintf_r+0x2c14>
   14620:	fd8fd06f          	j	11df8 <_vfprintf_r+0x3e8>
   14624:	0cc12603          	lw	a2,204(sp)
   14628:	0c812703          	lw	a4,200(sp)
   1462c:	00098b13          	mv	s6,s3
   14630:	9a0ff06f          	j	137d0 <_vfprintf_r+0x1dc0>
   14634:	d9480813          	addi	a6,a6,-620
   14638:	f1cfe06f          	j	12d54 <_vfprintf_r+0x1344>
   1463c:	00600913          	li	s2,6
   14640:	800007b7          	lui	a5,0x80000
   14644:	00fcccb3          	xor	s9,s9,a5
   14648:	02d00793          	li	a5,45
   1464c:	04f12223          	sw	a5,68(sp)
   14650:	901ff06f          	j	13f50 <_vfprintf_r+0x2540>
   14654:	02c12783          	lw	a5,44(sp)
   14658:	00e7f733          	and	a4,a5,a4
   1465c:	c00702e3          	beqz	a4,14260 <_vfprintf_r+0x2850>
   14660:	bf9ff06f          	j	14258 <_vfprintf_r+0x2848>
   14664:	12c10793          	addi	a5,sp,300
   14668:	00012e23          	sw	zero,28(sp)
   1466c:	02f12023          	sw	a5,32(sp)
   14670:	80000537          	lui	a0,0x80000
   14674:	02d00793          	li	a5,45
   14678:	00a74733          	xor	a4,a4,a0
   1467c:	04f12223          	sw	a5,68(sp)
   14680:	8bdfd06f          	j	11f3c <_vfprintf_r+0x52c>
   14684:	000227b7          	lui	a5,0x22
   14688:	adc78793          	addi	a5,a5,-1316 # 21adc <__clzsi2+0x60>
   1468c:	02f12023          	sw	a5,32(sp)
   14690:	bbcff06f          	j	13a4c <_vfprintf_r+0x203c>
   14694:	00090f13          	mv	t5,s2
   14698:	00090c13          	mv	s8,s2
   1469c:	02012623          	sw	zero,44(sp)
   146a0:	00000913          	li	s2,0
   146a4:	00000c93          	li	s9,0
   146a8:	00000313          	li	t1,0
   146ac:	da0fd06f          	j	11c4c <_vfprintf_r+0x23c>
   146b0:	000227b7          	lui	a5,0x22
   146b4:	ae478793          	addi	a5,a5,-1308 # 21ae4 <__clzsi2+0x68>
   146b8:	02f12023          	sw	a5,32(sp)
   146bc:	fa4ff06f          	j	13e60 <_vfprintf_r+0x2450>
   146c0:	06700893          	li	a7,103
   146c4:	03c12783          	lw	a5,60(sp)
   146c8:	0007c703          	lbu	a4,0(a5)
   146cc:	f0170693          	addi	a3,a4,-255
   146d0:	2e068863          	beqz	a3,149c0 <_vfprintf_r+0x2fb0>
   146d4:	2e675663          	bge	a4,t1,149c0 <_vfprintf_r+0x2fb0>
   146d8:	00000613          	li	a2,0
   146dc:	00000c93          	li	s9,0
   146e0:	0180006f          	j	146f8 <_vfprintf_r+0x2ce8>
   146e4:	001c8c93          	addi	s9,s9,1
   146e8:	00178793          	addi	a5,a5,1
   146ec:	f0170693          	addi	a3,a4,-255
   146f0:	04068063          	beqz	a3,14730 <_vfprintf_r+0x2d20>
   146f4:	02675e63          	bge	a4,t1,14730 <_vfprintf_r+0x2d20>
   146f8:	40e30333          	sub	t1,t1,a4
   146fc:	0017c703          	lbu	a4,1(a5)
   14700:	fe0712e3          	bnez	a4,146e4 <_vfprintf_r+0x2cd4>
   14704:	0007c703          	lbu	a4,0(a5)
   14708:	00160613          	addi	a2,a2,1
   1470c:	fe1ff06f          	j	146ec <_vfprintf_r+0x2cdc>
   14710:	000227b7          	lui	a5,0x22
   14714:	ae478793          	addi	a5,a5,-1308 # 21ae4 <__clzsi2+0x68>
   14718:	b30ff06f          	j	13a48 <_vfprintf_r+0x2038>
   1471c:	03012783          	lw	a5,48(sp)
   14720:	00690f33          	add	t5,s2,t1
   14724:	06600893          	li	a7,102
   14728:	00ff0f33          	add	t5,t5,a5
   1472c:	8f5ff06f          	j	14020 <_vfprintf_r+0x2610>
   14730:	04c12583          	lw	a1,76(sp)
   14734:	01960533          	add	a0,a2,s9
   14738:	05112a23          	sw	a7,84(sp)
   1473c:	05e12823          	sw	t5,80(sp)
   14740:	04612423          	sw	t1,72(sp)
   14744:	02f12e23          	sw	a5,60(sp)
   14748:	02c12623          	sw	a2,44(sp)
   1474c:	2580d0ef          	jal	219a4 <__mulsi3>
   14750:	04812303          	lw	t1,72(sp)
   14754:	05012f03          	lw	t5,80(sp)
   14758:	05412883          	lw	a7,84(sp)
   1475c:	00050713          	mv	a4,a0
   14760:	00ef0f33          	add	t5,t5,a4
   14764:	04412783          	lw	a5,68(sp)
   14768:	ffff4693          	not	a3,t5
   1476c:	41f6d693          	srai	a3,a3,0x1f
   14770:	00df7c33          	and	s8,t5,a3
   14774:	0e078863          	beqz	a5,14864 <_vfprintf_r+0x2e54>
   14778:	02d00713          	li	a4,45
   1477c:	01c12b83          	lw	s7,28(sp)
   14780:	0ae101a3          	sb	a4,163(sp)
   14784:	001c0c13          	addi	s8,s8,1
   14788:	00012e23          	sw	zero,28(sp)
   1478c:	00000913          	li	s2,0
   14790:	cbcfd06f          	j	11c4c <_vfprintf_r+0x23c>
   14794:	fff90a93          	addi	s5,s2,-1
   14798:	03812b03          	lw	s6,56(sp)
   1479c:	04812883          	lw	a7,72(sp)
   147a0:	05012d03          	lw	s10,80(sp)
   147a4:	05412483          	lw	s1,84(sp)
   147a8:	012b8933          	add	s2,s7,s2
   147ac:	000b8693          	mv	a3,s7
   147b0:	03000613          	li	a2,48
   147b4:	000ad463          	bgez	s5,147bc <_vfprintf_r+0x2dac>
   147b8:	a71fd06f          	j	12228 <_vfprintf_r+0x818>
   147bc:	00168693          	addi	a3,a3,1
   147c0:	fec68fa3          	sb	a2,-1(a3)
   147c4:	fed91ce3          	bne	s2,a3,147bc <_vfprintf_r+0x2dac>
   147c8:	015b8733          	add	a4,s7,s5
   147cc:	00170b93          	addi	s7,a4,1
   147d0:	a59fd06f          	j	12228 <_vfprintf_r+0x818>
   147d4:	02d00713          	li	a4,45
   147d8:	0ae10aa3          	sb	a4,181(sp)
   147dc:	00100693          	li	a3,1
   147e0:	ff800713          	li	a4,-8
   147e4:	40668c33          	sub	s8,a3,t1
   147e8:	9ce340e3          	blt	t1,a4,141a8 <_vfprintf_r+0x2798>
   147ec:	03000713          	li	a4,48
   147f0:	0ae10b23          	sb	a4,182(sp)
   147f4:	03712623          	sw	s7,44(sp)
   147f8:	00012e23          	sw	zero,28(sp)
   147fc:	0b710713          	addi	a4,sp,183
   14800:	a69fd06f          	j	12268 <_vfprintf_r+0x858>
   14804:	0b012703          	lw	a4,176(sp)
   14808:	02812883          	lw	a7,40(sp)
   1480c:	955762e3          	bltu	a4,s5,14150 <_vfprintf_r+0x2740>
   14810:	02012783          	lw	a5,32(sp)
   14814:	40f707b3          	sub	a5,a4,a5
   14818:	02f12423          	sw	a5,40(sp)
   1481c:	965ff06f          	j	14180 <_vfprintf_r+0x2770>
   14820:	09010513          	addi	a0,sp,144
   14824:	08010593          	addi	a1,sp,128
   14828:	03112423          	sw	a7,40(sp)
   1482c:	09d12823          	sw	t4,144(sp)
   14830:	09e12a23          	sw	t5,148(sp)
   14834:	08512c23          	sw	t0,152(sp)
   14838:	09912e23          	sw	s9,156(sp)
   1483c:	08012023          	sw	zero,128(sp)
   14840:	08012223          	sw	zero,132(sp)
   14844:	08012423          	sw	zero,136(sp)
   14848:	08012623          	sw	zero,140(sp)
   1484c:	29c0a0ef          	jal	1eae8 <__eqtf2>
   14850:	02812883          	lw	a7,40(sp)
   14854:	02051663          	bnez	a0,14880 <_vfprintf_r+0x2e70>
   14858:	0a812303          	lw	t1,168(sp)
   1485c:	006a8ab3          	add	s5,s5,t1
   14860:	f9cff06f          	j	13ffc <_vfprintf_r+0x25ec>
   14864:	0a314703          	lbu	a4,163(sp)
   14868:	0c070e63          	beqz	a4,14944 <_vfprintf_r+0x2f34>
   1486c:	01c12b83          	lw	s7,28(sp)
   14870:	001c0c13          	addi	s8,s8,1
   14874:	00012e23          	sw	zero,28(sp)
   14878:	00000913          	li	s2,0
   1487c:	bd0fd06f          	j	11c4c <_vfprintf_r+0x23c>
   14880:	02012783          	lw	a5,32(sp)
   14884:	00100f93          	li	t6,1
   14888:	0b012703          	lw	a4,176(sp)
   1488c:	412f8fb3          	sub	t6,t6,s2
   14890:	0bf12423          	sw	t6,168(sp)
   14894:	00178a93          	addi	s5,a5,1
   14898:	8b576ce3          	bltu	a4,s5,14150 <_vfprintf_r+0x2740>
   1489c:	02012783          	lw	a5,32(sp)
   148a0:	000f8313          	mv	t1,t6
   148a4:	40f707b3          	sub	a5,a4,a5
   148a8:	02f12423          	sw	a5,40(sp)
   148ac:	f5cff06f          	j	14008 <_vfprintf_r+0x25f8>
   148b0:	0a812303          	lw	t1,168(sp)
   148b4:	a05ff06f          	j	142b8 <_vfprintf_r+0x28a8>
   148b8:	06071663          	bnez	a4,14924 <_vfprintf_r+0x2f14>
   148bc:	00100c13          	li	s8,1
   148c0:	000c0f13          	mv	t5,s8
   148c4:	06600893          	li	a7,102
   148c8:	f6cff06f          	j	14034 <_vfprintf_r+0x2624>
   148cc:	01812783          	lw	a5,24(sp)
   148d0:	0007a903          	lw	s2,0(a5)
   148d4:	00478793          	addi	a5,a5,4
   148d8:	00095463          	bgez	s2,148e0 <_vfprintf_r+0x2ed0>
   148dc:	fff00913          	li	s2,-1
   148e0:	001d4883          	lbu	a7,1(s10)
   148e4:	00f12c23          	sw	a5,24(sp)
   148e8:	00068d13          	mv	s10,a3
   148ec:	accfd06f          	j	11bb8 <_vfprintf_r+0x1a8>
   148f0:	02d00713          	li	a4,45
   148f4:	0ae10aa3          	sb	a4,181(sp)
   148f8:	00100693          	li	a3,1
   148fc:	ff800713          	li	a4,-8
   14900:	40c68c33          	sub	s8,a3,a2
   14904:	8ae646e3          	blt	a2,a4,141b0 <_vfprintf_r+0x27a0>
   14908:	95dfd06f          	j	12264 <_vfprintf_r+0x854>
   1490c:	00022737          	lui	a4,0x22
   14910:	aec70793          	addi	a5,a4,-1300 # 21aec <__clzsi2+0x70>
   14914:	02f12423          	sw	a5,40(sp)
   14918:	f0cfd06f          	j	12024 <_vfprintf_r+0x614>
   1491c:	d9480813          	addi	a6,a6,-620
   14920:	844ff06f          	j	13964 <_vfprintf_r+0x1f54>
   14924:	03012783          	lw	a5,48(sp)
   14928:	06600893          	li	a7,102
   1492c:	00178f13          	addi	t5,a5,1
   14930:	012f0f33          	add	t5,t5,s2
   14934:	ffff4693          	not	a3,t5
   14938:	41f6d693          	srai	a3,a3,0x1f
   1493c:	00df7c33          	and	s8,t5,a3
   14940:	ef4ff06f          	j	14034 <_vfprintf_r+0x2624>
   14944:	01c12b83          	lw	s7,28(sp)
   14948:	00000913          	li	s2,0
   1494c:	00012e23          	sw	zero,28(sp)
   14950:	afcfd06f          	j	11c4c <_vfprintf_r+0x23c>
   14954:	00200793          	li	a5,2
   14958:	02f12c23          	sw	a5,56(sp)
   1495c:	8e9ff06f          	j	14244 <_vfprintf_r+0x2834>
   14960:	02012783          	lw	a5,32(sp)
   14964:	02812703          	lw	a4,40(sp)
   14968:	00e78f33          	add	t5,a5,a4
   1496c:	f08ff06f          	j	14074 <_vfprintf_r+0x2664>
   14970:	40f707b3          	sub	a5,a4,a5
   14974:	0a812303          	lw	t1,168(sp)
   14978:	02f12423          	sw	a5,40(sp)
   1497c:	93dff06f          	j	142b8 <_vfprintf_r+0x28a8>
   14980:	0a812303          	lw	t1,168(sp)
   14984:	805ff06f          	j	14188 <_vfprintf_r+0x2778>
   14988:	02012623          	sw	zero,44(sp)
   1498c:	00000c93          	li	s9,0
   14990:	abcfd06f          	j	11c4c <_vfprintf_r+0x23c>
   14994:	00000913          	li	s2,0
   14998:	02012623          	sw	zero,44(sp)
   1499c:	00000c93          	li	s9,0
   149a0:	00012e23          	sw	zero,28(sp)
   149a4:	00300f13          	li	t5,3
   149a8:	00400c13          	li	s8,4
   149ac:	aa0fd06f          	j	11c4c <_vfprintf_r+0x23c>
   149b0:	00c4d783          	lhu	a5,12(s1)
   149b4:	0407e793          	ori	a5,a5,64
   149b8:	00f49623          	sh	a5,12(s1)
   149bc:	c4cfd06f          	j	11e08 <_vfprintf_r+0x3f8>
   149c0:	00000713          	li	a4,0
   149c4:	02012623          	sw	zero,44(sp)
   149c8:	00000c93          	li	s9,0
   149cc:	d95ff06f          	j	14760 <_vfprintf_r+0x2d50>

000149d0 <vfprintf>:
   149d0:	00050713          	mv	a4,a0
   149d4:	f2c1a503          	lw	a0,-212(gp) # 23aac <_impure_ptr>
   149d8:	00060693          	mv	a3,a2
   149dc:	00058613          	mv	a2,a1
   149e0:	00070593          	mv	a1,a4
   149e4:	82cfd06f          	j	11a10 <_vfprintf_r>

000149e8 <__sbprintf>:
   149e8:	00c5d783          	lhu	a5,12(a1)
   149ec:	0645ae83          	lw	t4,100(a1)
   149f0:	00e5de03          	lhu	t3,14(a1)
   149f4:	01c5a303          	lw	t1,28(a1)
   149f8:	0245a883          	lw	a7,36(a1)
   149fc:	b7010113          	addi	sp,sp,-1168
   14a00:	ffd7f793          	andi	a5,a5,-3
   14a04:	08010813          	addi	a6,sp,128
   14a08:	40000713          	li	a4,1024
   14a0c:	48812423          	sw	s0,1160(sp)
   14a10:	00058413          	mv	s0,a1
   14a14:	01810593          	addi	a1,sp,24
   14a18:	48912223          	sw	s1,1156(sp)
   14a1c:	02f11223          	sh	a5,36(sp)
   14a20:	48112623          	sw	ra,1164(sp)
   14a24:	02012823          	sw	zero,48(sp)
   14a28:	07d12e23          	sw	t4,124(sp)
   14a2c:	03c11323          	sh	t3,38(sp)
   14a30:	02612a23          	sw	t1,52(sp)
   14a34:	03112e23          	sw	a7,60(sp)
   14a38:	01012c23          	sw	a6,24(sp)
   14a3c:	03012423          	sw	a6,40(sp)
   14a40:	02e12023          	sw	a4,32(sp)
   14a44:	02e12623          	sw	a4,44(sp)
   14a48:	00050493          	mv	s1,a0
   14a4c:	fc5fc0ef          	jal	11a10 <_vfprintf_r>
   14a50:	00050793          	mv	a5,a0
   14a54:	02055a63          	bgez	a0,14a88 <__sbprintf+0xa0>
   14a58:	02415703          	lhu	a4,36(sp)
   14a5c:	04077713          	andi	a4,a4,64
   14a60:	00070863          	beqz	a4,14a70 <__sbprintf+0x88>
   14a64:	00c45703          	lhu	a4,12(s0)
   14a68:	04076713          	ori	a4,a4,64
   14a6c:	00e41623          	sh	a4,12(s0)
   14a70:	48c12083          	lw	ra,1164(sp)
   14a74:	48812403          	lw	s0,1160(sp)
   14a78:	48412483          	lw	s1,1156(sp)
   14a7c:	00078513          	mv	a0,a5
   14a80:	49010113          	addi	sp,sp,1168
   14a84:	00008067          	ret
   14a88:	00a12623          	sw	a0,12(sp)
   14a8c:	01810593          	addi	a1,sp,24
   14a90:	00048513          	mv	a0,s1
   14a94:	3c0000ef          	jal	14e54 <_fflush_r>
   14a98:	00c12783          	lw	a5,12(sp)
   14a9c:	fa050ee3          	beqz	a0,14a58 <__sbprintf+0x70>
   14aa0:	fff00793          	li	a5,-1
   14aa4:	fb5ff06f          	j	14a58 <__sbprintf+0x70>

00014aa8 <__sprint_r>:
   14aa8:	00862703          	lw	a4,8(a2)
   14aac:	00071863          	bnez	a4,14abc <__sprint_r+0x14>
   14ab0:	00000513          	li	a0,0
   14ab4:	00062223          	sw	zero,4(a2)
   14ab8:	00008067          	ret
   14abc:	fe010113          	addi	sp,sp,-32
   14ac0:	00112e23          	sw	ra,28(sp)
   14ac4:	00c12623          	sw	a2,12(sp)
   14ac8:	480000ef          	jal	14f48 <__sfvwrite_r>
   14acc:	00c12783          	lw	a5,12(sp)
   14ad0:	01c12083          	lw	ra,28(sp)
   14ad4:	0007a423          	sw	zero,8(a5)
   14ad8:	0007a223          	sw	zero,4(a5)
   14adc:	02010113          	addi	sp,sp,32
   14ae0:	00008067          	ret

00014ae4 <_fclose_r>:
   14ae4:	ff010113          	addi	sp,sp,-16
   14ae8:	00112623          	sw	ra,12(sp)
   14aec:	01212023          	sw	s2,0(sp)
   14af0:	02058863          	beqz	a1,14b20 <_fclose_r+0x3c>
   14af4:	00812423          	sw	s0,8(sp)
   14af8:	00912223          	sw	s1,4(sp)
   14afc:	00058413          	mv	s0,a1
   14b00:	00050493          	mv	s1,a0
   14b04:	00050663          	beqz	a0,14b10 <_fclose_r+0x2c>
   14b08:	03452783          	lw	a5,52(a0) # 80000034 <__BSS_END__+0x7ffdc250>
   14b0c:	0c078c63          	beqz	a5,14be4 <_fclose_r+0x100>
   14b10:	00c41783          	lh	a5,12(s0)
   14b14:	02079263          	bnez	a5,14b38 <_fclose_r+0x54>
   14b18:	00812403          	lw	s0,8(sp)
   14b1c:	00412483          	lw	s1,4(sp)
   14b20:	00c12083          	lw	ra,12(sp)
   14b24:	00000913          	li	s2,0
   14b28:	00090513          	mv	a0,s2
   14b2c:	00012903          	lw	s2,0(sp)
   14b30:	01010113          	addi	sp,sp,16
   14b34:	00008067          	ret
   14b38:	00040593          	mv	a1,s0
   14b3c:	00048513          	mv	a0,s1
   14b40:	0b8000ef          	jal	14bf8 <__sflush_r>
   14b44:	02c42783          	lw	a5,44(s0)
   14b48:	00050913          	mv	s2,a0
   14b4c:	00078a63          	beqz	a5,14b60 <_fclose_r+0x7c>
   14b50:	01c42583          	lw	a1,28(s0)
   14b54:	00048513          	mv	a0,s1
   14b58:	000780e7          	jalr	a5
   14b5c:	06054463          	bltz	a0,14bc4 <_fclose_r+0xe0>
   14b60:	00c45783          	lhu	a5,12(s0)
   14b64:	0807f793          	andi	a5,a5,128
   14b68:	06079663          	bnez	a5,14bd4 <_fclose_r+0xf0>
   14b6c:	03042583          	lw	a1,48(s0)
   14b70:	00058c63          	beqz	a1,14b88 <_fclose_r+0xa4>
   14b74:	04040793          	addi	a5,s0,64
   14b78:	00f58663          	beq	a1,a5,14b84 <_fclose_r+0xa0>
   14b7c:	00048513          	mv	a0,s1
   14b80:	b24fc0ef          	jal	10ea4 <_free_r>
   14b84:	02042823          	sw	zero,48(s0)
   14b88:	04442583          	lw	a1,68(s0)
   14b8c:	00058863          	beqz	a1,14b9c <_fclose_r+0xb8>
   14b90:	00048513          	mv	a0,s1
   14b94:	b10fc0ef          	jal	10ea4 <_free_r>
   14b98:	04042223          	sw	zero,68(s0)
   14b9c:	9c1fb0ef          	jal	1055c <__sfp_lock_acquire>
   14ba0:	00041623          	sh	zero,12(s0)
   14ba4:	9bdfb0ef          	jal	10560 <__sfp_lock_release>
   14ba8:	00c12083          	lw	ra,12(sp)
   14bac:	00812403          	lw	s0,8(sp)
   14bb0:	00412483          	lw	s1,4(sp)
   14bb4:	00090513          	mv	a0,s2
   14bb8:	00012903          	lw	s2,0(sp)
   14bbc:	01010113          	addi	sp,sp,16
   14bc0:	00008067          	ret
   14bc4:	00c45783          	lhu	a5,12(s0)
   14bc8:	fff00913          	li	s2,-1
   14bcc:	0807f793          	andi	a5,a5,128
   14bd0:	f8078ee3          	beqz	a5,14b6c <_fclose_r+0x88>
   14bd4:	01042583          	lw	a1,16(s0)
   14bd8:	00048513          	mv	a0,s1
   14bdc:	ac8fc0ef          	jal	10ea4 <_free_r>
   14be0:	f8dff06f          	j	14b6c <_fclose_r+0x88>
   14be4:	955fb0ef          	jal	10538 <__sinit>
   14be8:	f29ff06f          	j	14b10 <_fclose_r+0x2c>

00014bec <fclose>:
   14bec:	00050593          	mv	a1,a0
   14bf0:	f2c1a503          	lw	a0,-212(gp) # 23aac <_impure_ptr>
   14bf4:	ef1ff06f          	j	14ae4 <_fclose_r>

00014bf8 <__sflush_r>:
   14bf8:	00c59703          	lh	a4,12(a1)
   14bfc:	fe010113          	addi	sp,sp,-32
   14c00:	00812c23          	sw	s0,24(sp)
   14c04:	01312623          	sw	s3,12(sp)
   14c08:	00112e23          	sw	ra,28(sp)
   14c0c:	00877793          	andi	a5,a4,8
   14c10:	00058413          	mv	s0,a1
   14c14:	00050993          	mv	s3,a0
   14c18:	12079263          	bnez	a5,14d3c <__sflush_r+0x144>
   14c1c:	000017b7          	lui	a5,0x1
   14c20:	80078793          	addi	a5,a5,-2048 # 800 <exit-0xf8b4>
   14c24:	0045a683          	lw	a3,4(a1)
   14c28:	00f767b3          	or	a5,a4,a5
   14c2c:	00f59623          	sh	a5,12(a1)
   14c30:	18d05c63          	blez	a3,14dc8 <__sflush_r+0x1d0>
   14c34:	02842803          	lw	a6,40(s0)
   14c38:	0e080663          	beqz	a6,14d24 <__sflush_r+0x12c>
   14c3c:	00912a23          	sw	s1,20(sp)
   14c40:	01371693          	slli	a3,a4,0x13
   14c44:	0009a483          	lw	s1,0(s3)
   14c48:	0009a023          	sw	zero,0(s3)
   14c4c:	1806ca63          	bltz	a3,14de0 <__sflush_r+0x1e8>
   14c50:	01c42583          	lw	a1,28(s0)
   14c54:	00000613          	li	a2,0
   14c58:	00100693          	li	a3,1
   14c5c:	00098513          	mv	a0,s3
   14c60:	000800e7          	jalr	a6
   14c64:	fff00793          	li	a5,-1
   14c68:	00050613          	mv	a2,a0
   14c6c:	1af50c63          	beq	a0,a5,14e24 <__sflush_r+0x22c>
   14c70:	00c41783          	lh	a5,12(s0)
   14c74:	02842803          	lw	a6,40(s0)
   14c78:	0047f793          	andi	a5,a5,4
   14c7c:	00078e63          	beqz	a5,14c98 <__sflush_r+0xa0>
   14c80:	00442703          	lw	a4,4(s0)
   14c84:	03042783          	lw	a5,48(s0)
   14c88:	40e60633          	sub	a2,a2,a4
   14c8c:	00078663          	beqz	a5,14c98 <__sflush_r+0xa0>
   14c90:	03c42783          	lw	a5,60(s0)
   14c94:	40f60633          	sub	a2,a2,a5
   14c98:	01c42583          	lw	a1,28(s0)
   14c9c:	00000693          	li	a3,0
   14ca0:	00098513          	mv	a0,s3
   14ca4:	000800e7          	jalr	a6
   14ca8:	fff00713          	li	a4,-1
   14cac:	00c41783          	lh	a5,12(s0)
   14cb0:	12e51c63          	bne	a0,a4,14de8 <__sflush_r+0x1f0>
   14cb4:	0009a683          	lw	a3,0(s3)
   14cb8:	01d00713          	li	a4,29
   14cbc:	18d76263          	bltu	a4,a3,14e40 <__sflush_r+0x248>
   14cc0:	20400737          	lui	a4,0x20400
   14cc4:	00170713          	addi	a4,a4,1 # 20400001 <__BSS_END__+0x203dc21d>
   14cc8:	00d75733          	srl	a4,a4,a3
   14ccc:	00177713          	andi	a4,a4,1
   14cd0:	16070863          	beqz	a4,14e40 <__sflush_r+0x248>
   14cd4:	01042683          	lw	a3,16(s0)
   14cd8:	fffff737          	lui	a4,0xfffff
   14cdc:	7ff70713          	addi	a4,a4,2047 # fffff7ff <__BSS_END__+0xfffdba1b>
   14ce0:	00e7f733          	and	a4,a5,a4
   14ce4:	00e41623          	sh	a4,12(s0)
   14ce8:	00042223          	sw	zero,4(s0)
   14cec:	00d42023          	sw	a3,0(s0)
   14cf0:	01379713          	slli	a4,a5,0x13
   14cf4:	00075663          	bgez	a4,14d00 <__sflush_r+0x108>
   14cf8:	0009a783          	lw	a5,0(s3)
   14cfc:	10078863          	beqz	a5,14e0c <__sflush_r+0x214>
   14d00:	03042583          	lw	a1,48(s0)
   14d04:	0099a023          	sw	s1,0(s3)
   14d08:	10058a63          	beqz	a1,14e1c <__sflush_r+0x224>
   14d0c:	04040793          	addi	a5,s0,64
   14d10:	00f58663          	beq	a1,a5,14d1c <__sflush_r+0x124>
   14d14:	00098513          	mv	a0,s3
   14d18:	98cfc0ef          	jal	10ea4 <_free_r>
   14d1c:	01412483          	lw	s1,20(sp)
   14d20:	02042823          	sw	zero,48(s0)
   14d24:	01c12083          	lw	ra,28(sp)
   14d28:	01812403          	lw	s0,24(sp)
   14d2c:	00c12983          	lw	s3,12(sp)
   14d30:	00000513          	li	a0,0
   14d34:	02010113          	addi	sp,sp,32
   14d38:	00008067          	ret
   14d3c:	01212823          	sw	s2,16(sp)
   14d40:	0105a903          	lw	s2,16(a1)
   14d44:	08090a63          	beqz	s2,14dd8 <__sflush_r+0x1e0>
   14d48:	00912a23          	sw	s1,20(sp)
   14d4c:	0005a483          	lw	s1,0(a1)
   14d50:	00377713          	andi	a4,a4,3
   14d54:	0125a023          	sw	s2,0(a1)
   14d58:	412484b3          	sub	s1,s1,s2
   14d5c:	00000793          	li	a5,0
   14d60:	00071463          	bnez	a4,14d68 <__sflush_r+0x170>
   14d64:	0145a783          	lw	a5,20(a1)
   14d68:	00f42423          	sw	a5,8(s0)
   14d6c:	00904863          	bgtz	s1,14d7c <__sflush_r+0x184>
   14d70:	0640006f          	j	14dd4 <__sflush_r+0x1dc>
   14d74:	00a90933          	add	s2,s2,a0
   14d78:	04905e63          	blez	s1,14dd4 <__sflush_r+0x1dc>
   14d7c:	02442783          	lw	a5,36(s0)
   14d80:	01c42583          	lw	a1,28(s0)
   14d84:	00048693          	mv	a3,s1
   14d88:	00090613          	mv	a2,s2
   14d8c:	00098513          	mv	a0,s3
   14d90:	000780e7          	jalr	a5
   14d94:	40a484b3          	sub	s1,s1,a0
   14d98:	fca04ee3          	bgtz	a0,14d74 <__sflush_r+0x17c>
   14d9c:	00c45783          	lhu	a5,12(s0)
   14da0:	01012903          	lw	s2,16(sp)
   14da4:	0407e793          	ori	a5,a5,64
   14da8:	01c12083          	lw	ra,28(sp)
   14dac:	00f41623          	sh	a5,12(s0)
   14db0:	01812403          	lw	s0,24(sp)
   14db4:	01412483          	lw	s1,20(sp)
   14db8:	00c12983          	lw	s3,12(sp)
   14dbc:	fff00513          	li	a0,-1
   14dc0:	02010113          	addi	sp,sp,32
   14dc4:	00008067          	ret
   14dc8:	03c5a683          	lw	a3,60(a1)
   14dcc:	e6d044e3          	bgtz	a3,14c34 <__sflush_r+0x3c>
   14dd0:	f55ff06f          	j	14d24 <__sflush_r+0x12c>
   14dd4:	01412483          	lw	s1,20(sp)
   14dd8:	01012903          	lw	s2,16(sp)
   14ddc:	f49ff06f          	j	14d24 <__sflush_r+0x12c>
   14de0:	05042603          	lw	a2,80(s0)
   14de4:	e95ff06f          	j	14c78 <__sflush_r+0x80>
   14de8:	01042683          	lw	a3,16(s0)
   14dec:	fffff737          	lui	a4,0xfffff
   14df0:	7ff70713          	addi	a4,a4,2047 # fffff7ff <__BSS_END__+0xfffdba1b>
   14df4:	00e7f733          	and	a4,a5,a4
   14df8:	00e41623          	sh	a4,12(s0)
   14dfc:	00042223          	sw	zero,4(s0)
   14e00:	00d42023          	sw	a3,0(s0)
   14e04:	01379713          	slli	a4,a5,0x13
   14e08:	ee075ce3          	bgez	a4,14d00 <__sflush_r+0x108>
   14e0c:	03042583          	lw	a1,48(s0)
   14e10:	04a42823          	sw	a0,80(s0)
   14e14:	0099a023          	sw	s1,0(s3)
   14e18:	ee059ae3          	bnez	a1,14d0c <__sflush_r+0x114>
   14e1c:	01412483          	lw	s1,20(sp)
   14e20:	f05ff06f          	j	14d24 <__sflush_r+0x12c>
   14e24:	0009a783          	lw	a5,0(s3)
   14e28:	e40784e3          	beqz	a5,14c70 <__sflush_r+0x78>
   14e2c:	fe378713          	addi	a4,a5,-29
   14e30:	00070c63          	beqz	a4,14e48 <__sflush_r+0x250>
   14e34:	fea78793          	addi	a5,a5,-22
   14e38:	00078863          	beqz	a5,14e48 <__sflush_r+0x250>
   14e3c:	00c45783          	lhu	a5,12(s0)
   14e40:	0407e793          	ori	a5,a5,64
   14e44:	f65ff06f          	j	14da8 <__sflush_r+0x1b0>
   14e48:	0099a023          	sw	s1,0(s3)
   14e4c:	01412483          	lw	s1,20(sp)
   14e50:	ed5ff06f          	j	14d24 <__sflush_r+0x12c>

00014e54 <_fflush_r>:
   14e54:	00050793          	mv	a5,a0
   14e58:	00050663          	beqz	a0,14e64 <_fflush_r+0x10>
   14e5c:	03452703          	lw	a4,52(a0)
   14e60:	00070e63          	beqz	a4,14e7c <_fflush_r+0x28>
   14e64:	00c59703          	lh	a4,12(a1)
   14e68:	00071663          	bnez	a4,14e74 <_fflush_r+0x20>
   14e6c:	00000513          	li	a0,0
   14e70:	00008067          	ret
   14e74:	00078513          	mv	a0,a5
   14e78:	d81ff06f          	j	14bf8 <__sflush_r>
   14e7c:	fe010113          	addi	sp,sp,-32
   14e80:	00b12623          	sw	a1,12(sp)
   14e84:	00112e23          	sw	ra,28(sp)
   14e88:	00a12423          	sw	a0,8(sp)
   14e8c:	eacfb0ef          	jal	10538 <__sinit>
   14e90:	00c12583          	lw	a1,12(sp)
   14e94:	00812783          	lw	a5,8(sp)
   14e98:	00c59703          	lh	a4,12(a1)
   14e9c:	00070a63          	beqz	a4,14eb0 <_fflush_r+0x5c>
   14ea0:	01c12083          	lw	ra,28(sp)
   14ea4:	00078513          	mv	a0,a5
   14ea8:	02010113          	addi	sp,sp,32
   14eac:	d4dff06f          	j	14bf8 <__sflush_r>
   14eb0:	01c12083          	lw	ra,28(sp)
   14eb4:	00000513          	li	a0,0
   14eb8:	02010113          	addi	sp,sp,32
   14ebc:	00008067          	ret

00014ec0 <fflush>:
   14ec0:	06050063          	beqz	a0,14f20 <fflush+0x60>
   14ec4:	00050593          	mv	a1,a0
   14ec8:	f2c1a503          	lw	a0,-212(gp) # 23aac <_impure_ptr>
   14ecc:	00050663          	beqz	a0,14ed8 <fflush+0x18>
   14ed0:	03452783          	lw	a5,52(a0)
   14ed4:	00078c63          	beqz	a5,14eec <fflush+0x2c>
   14ed8:	00c59783          	lh	a5,12(a1)
   14edc:	00079663          	bnez	a5,14ee8 <fflush+0x28>
   14ee0:	00000513          	li	a0,0
   14ee4:	00008067          	ret
   14ee8:	d11ff06f          	j	14bf8 <__sflush_r>
   14eec:	fe010113          	addi	sp,sp,-32
   14ef0:	00b12623          	sw	a1,12(sp)
   14ef4:	00a12423          	sw	a0,8(sp)
   14ef8:	00112e23          	sw	ra,28(sp)
   14efc:	e3cfb0ef          	jal	10538 <__sinit>
   14f00:	00c12583          	lw	a1,12(sp)
   14f04:	00812503          	lw	a0,8(sp)
   14f08:	00c59783          	lh	a5,12(a1)
   14f0c:	02079863          	bnez	a5,14f3c <fflush+0x7c>
   14f10:	01c12083          	lw	ra,28(sp)
   14f14:	00000513          	li	a0,0
   14f18:	02010113          	addi	sp,sp,32
   14f1c:	00008067          	ret
   14f20:	00023637          	lui	a2,0x23
   14f24:	000155b7          	lui	a1,0x15
   14f28:	00023537          	lui	a0,0x23
   14f2c:	38060613          	addi	a2,a2,896 # 23380 <__sglue>
   14f30:	e5458593          	addi	a1,a1,-428 # 14e54 <_fflush_r>
   14f34:	39050513          	addi	a0,a0,912 # 23390 <_impure_data>
   14f38:	e5cfb06f          	j	10594 <_fwalk_sglue>
   14f3c:	01c12083          	lw	ra,28(sp)
   14f40:	02010113          	addi	sp,sp,32
   14f44:	cb5ff06f          	j	14bf8 <__sflush_r>

00014f48 <__sfvwrite_r>:
   14f48:	00862783          	lw	a5,8(a2)
   14f4c:	22078c63          	beqz	a5,15184 <__sfvwrite_r+0x23c>
   14f50:	00c59683          	lh	a3,12(a1)
   14f54:	fc010113          	addi	sp,sp,-64
   14f58:	02812c23          	sw	s0,56(sp)
   14f5c:	03412423          	sw	s4,40(sp)
   14f60:	03512223          	sw	s5,36(sp)
   14f64:	02112e23          	sw	ra,60(sp)
   14f68:	0086f793          	andi	a5,a3,8
   14f6c:	00058413          	mv	s0,a1
   14f70:	00050a93          	mv	s5,a0
   14f74:	00060a13          	mv	s4,a2
   14f78:	0a078463          	beqz	a5,15020 <__sfvwrite_r+0xd8>
   14f7c:	0105a783          	lw	a5,16(a1)
   14f80:	0a078063          	beqz	a5,15020 <__sfvwrite_r+0xd8>
   14f84:	02912a23          	sw	s1,52(sp)
   14f88:	03212823          	sw	s2,48(sp)
   14f8c:	03312623          	sw	s3,44(sp)
   14f90:	03612023          	sw	s6,32(sp)
   14f94:	0026f793          	andi	a5,a3,2
   14f98:	000a2483          	lw	s1,0(s4)
   14f9c:	0a078a63          	beqz	a5,15050 <__sfvwrite_r+0x108>
   14fa0:	80000b37          	lui	s6,0x80000
   14fa4:	c00b0b13          	addi	s6,s6,-1024 # 7ffffc00 <__BSS_END__+0x7ffdbe1c>
   14fa8:	00000993          	li	s3,0
   14fac:	00000913          	li	s2,0
   14fb0:	00098613          	mv	a2,s3
   14fb4:	000a8513          	mv	a0,s5
   14fb8:	1a090e63          	beqz	s2,15174 <__sfvwrite_r+0x22c>
   14fbc:	00090693          	mv	a3,s2
   14fc0:	012b7663          	bgeu	s6,s2,14fcc <__sfvwrite_r+0x84>
   14fc4:	800006b7          	lui	a3,0x80000
   14fc8:	c0068693          	addi	a3,a3,-1024 # 7ffffc00 <__BSS_END__+0x7ffdbe1c>
   14fcc:	02442783          	lw	a5,36(s0)
   14fd0:	01c42583          	lw	a1,28(s0)
   14fd4:	000780e7          	jalr	a5
   14fd8:	40a05a63          	blez	a0,153ec <__sfvwrite_r+0x4a4>
   14fdc:	008a2783          	lw	a5,8(s4)
   14fe0:	00a989b3          	add	s3,s3,a0
   14fe4:	40a90933          	sub	s2,s2,a0
   14fe8:	40a787b3          	sub	a5,a5,a0
   14fec:	00fa2423          	sw	a5,8(s4)
   14ff0:	fc0790e3          	bnez	a5,14fb0 <__sfvwrite_r+0x68>
   14ff4:	03412483          	lw	s1,52(sp)
   14ff8:	03012903          	lw	s2,48(sp)
   14ffc:	02c12983          	lw	s3,44(sp)
   15000:	02012b03          	lw	s6,32(sp)
   15004:	00000513          	li	a0,0
   15008:	03c12083          	lw	ra,60(sp)
   1500c:	03812403          	lw	s0,56(sp)
   15010:	02812a03          	lw	s4,40(sp)
   15014:	02412a83          	lw	s5,36(sp)
   15018:	04010113          	addi	sp,sp,64
   1501c:	00008067          	ret
   15020:	00040593          	mv	a1,s0
   15024:	000a8513          	mv	a0,s5
   15028:	3e4000ef          	jal	1540c <__swsetup_r>
   1502c:	26051663          	bnez	a0,15298 <__sfvwrite_r+0x350>
   15030:	00c41683          	lh	a3,12(s0)
   15034:	02912a23          	sw	s1,52(sp)
   15038:	03212823          	sw	s2,48(sp)
   1503c:	03312623          	sw	s3,44(sp)
   15040:	03612023          	sw	s6,32(sp)
   15044:	0026f793          	andi	a5,a3,2
   15048:	000a2483          	lw	s1,0(s4)
   1504c:	f4079ae3          	bnez	a5,14fa0 <__sfvwrite_r+0x58>
   15050:	01712e23          	sw	s7,28(sp)
   15054:	01812c23          	sw	s8,24(sp)
   15058:	0016f793          	andi	a5,a3,1
   1505c:	12079863          	bnez	a5,1518c <__sfvwrite_r+0x244>
   15060:	00042783          	lw	a5,0(s0)
   15064:	80000737          	lui	a4,0x80000
   15068:	fff70c13          	addi	s8,a4,-1 # 7fffffff <__BSS_END__+0x7ffdc21b>
   1506c:	00000b13          	li	s6,0
   15070:	00000993          	li	s3,0
   15074:	0e098863          	beqz	s3,15164 <__sfvwrite_r+0x21c>
   15078:	2006f713          	andi	a4,a3,512
   1507c:	00842903          	lw	s2,8(s0)
   15080:	00078513          	mv	a0,a5
   15084:	20070e63          	beqz	a4,152a0 <__sfvwrite_r+0x358>
   15088:	00090b93          	mv	s7,s2
   1508c:	2d29e263          	bltu	s3,s2,15350 <__sfvwrite_r+0x408>
   15090:	4806f713          	andi	a4,a3,1152
   15094:	08070c63          	beqz	a4,1512c <__sfvwrite_r+0x1e4>
   15098:	01442603          	lw	a2,20(s0)
   1509c:	01042583          	lw	a1,16(s0)
   150a0:	00161713          	slli	a4,a2,0x1
   150a4:	00c70733          	add	a4,a4,a2
   150a8:	01f75913          	srli	s2,a4,0x1f
   150ac:	40b78bb3          	sub	s7,a5,a1
   150b0:	00e90933          	add	s2,s2,a4
   150b4:	001b8793          	addi	a5,s7,1
   150b8:	40195913          	srai	s2,s2,0x1
   150bc:	013787b3          	add	a5,a5,s3
   150c0:	00090613          	mv	a2,s2
   150c4:	00f97663          	bgeu	s2,a5,150d0 <__sfvwrite_r+0x188>
   150c8:	00078913          	mv	s2,a5
   150cc:	00078613          	mv	a2,a5
   150d0:	4006f693          	andi	a3,a3,1024
   150d4:	2c068463          	beqz	a3,1539c <__sfvwrite_r+0x454>
   150d8:	00060593          	mv	a1,a2
   150dc:	000a8513          	mv	a0,s5
   150e0:	8acfc0ef          	jal	1118c <_malloc_r>
   150e4:	30050863          	beqz	a0,153f4 <__sfvwrite_r+0x4ac>
   150e8:	01042583          	lw	a1,16(s0)
   150ec:	000b8613          	mv	a2,s7
   150f0:	00a12623          	sw	a0,12(sp)
   150f4:	7c0000ef          	jal	158b4 <memcpy>
   150f8:	00c45783          	lhu	a5,12(s0)
   150fc:	00c12703          	lw	a4,12(sp)
   15100:	b7f7f793          	andi	a5,a5,-1153
   15104:	0807e793          	ori	a5,a5,128
   15108:	00f41623          	sh	a5,12(s0)
   1510c:	417907b3          	sub	a5,s2,s7
   15110:	01770533          	add	a0,a4,s7
   15114:	01242a23          	sw	s2,20(s0)
   15118:	00e42823          	sw	a4,16(s0)
   1511c:	00a42023          	sw	a0,0(s0)
   15120:	00f42423          	sw	a5,8(s0)
   15124:	00098913          	mv	s2,s3
   15128:	00098b93          	mv	s7,s3
   1512c:	000b0593          	mv	a1,s6
   15130:	000b8613          	mv	a2,s7
   15134:	658000ef          	jal	1578c <memmove>
   15138:	00842703          	lw	a4,8(s0)
   1513c:	00042783          	lw	a5,0(s0)
   15140:	41270733          	sub	a4,a4,s2
   15144:	00e42423          	sw	a4,8(s0)
   15148:	008a2703          	lw	a4,8(s4)
   1514c:	017787b3          	add	a5,a5,s7
   15150:	00f42023          	sw	a5,0(s0)
   15154:	41370733          	sub	a4,a4,s3
   15158:	00ea2423          	sw	a4,8(s4)
   1515c:	28070263          	beqz	a4,153e0 <__sfvwrite_r+0x498>
   15160:	00c41683          	lh	a3,12(s0)
   15164:	0004ab03          	lw	s6,0(s1)
   15168:	0044a983          	lw	s3,4(s1)
   1516c:	00848493          	addi	s1,s1,8
   15170:	f05ff06f          	j	15074 <__sfvwrite_r+0x12c>
   15174:	0004a983          	lw	s3,0(s1)
   15178:	0044a903          	lw	s2,4(s1)
   1517c:	00848493          	addi	s1,s1,8
   15180:	e31ff06f          	j	14fb0 <__sfvwrite_r+0x68>
   15184:	00000513          	li	a0,0
   15188:	00008067          	ret
   1518c:	00000b13          	li	s6,0
   15190:	00000b93          	li	s7,0
   15194:	00000513          	li	a0,0
   15198:	00000c13          	li	s8,0
   1519c:	060b0e63          	beqz	s6,15218 <__sfvwrite_r+0x2d0>
   151a0:	08050663          	beqz	a0,1522c <__sfvwrite_r+0x2e4>
   151a4:	000b8793          	mv	a5,s7
   151a8:	000b0993          	mv	s3,s6
   151ac:	0167f463          	bgeu	a5,s6,151b4 <__sfvwrite_r+0x26c>
   151b0:	00078993          	mv	s3,a5
   151b4:	01442683          	lw	a3,20(s0)
   151b8:	00842903          	lw	s2,8(s0)
   151bc:	00042503          	lw	a0,0(s0)
   151c0:	01042783          	lw	a5,16(s0)
   151c4:	01268933          	add	s2,a3,s2
   151c8:	00a7f463          	bgeu	a5,a0,151d0 <__sfvwrite_r+0x288>
   151cc:	09394063          	blt	s2,s3,1524c <__sfvwrite_r+0x304>
   151d0:	1ad9c063          	blt	s3,a3,15370 <__sfvwrite_r+0x428>
   151d4:	02442783          	lw	a5,36(s0)
   151d8:	01c42583          	lw	a1,28(s0)
   151dc:	000c0613          	mv	a2,s8
   151e0:	000a8513          	mv	a0,s5
   151e4:	000780e7          	jalr	a5
   151e8:	00050913          	mv	s2,a0
   151ec:	08a05463          	blez	a0,15274 <__sfvwrite_r+0x32c>
   151f0:	412b8bb3          	sub	s7,s7,s2
   151f4:	00100513          	li	a0,1
   151f8:	160b8263          	beqz	s7,1535c <__sfvwrite_r+0x414>
   151fc:	008a2783          	lw	a5,8(s4)
   15200:	412787b3          	sub	a5,a5,s2
   15204:	00fa2423          	sw	a5,8(s4)
   15208:	1c078c63          	beqz	a5,153e0 <__sfvwrite_r+0x498>
   1520c:	412b0b33          	sub	s6,s6,s2
   15210:	012c0c33          	add	s8,s8,s2
   15214:	f80b16e3          	bnez	s6,151a0 <__sfvwrite_r+0x258>
   15218:	0044ab03          	lw	s6,4(s1)
   1521c:	00048793          	mv	a5,s1
   15220:	00848493          	addi	s1,s1,8
   15224:	fe0b0ae3          	beqz	s6,15218 <__sfvwrite_r+0x2d0>
   15228:	0007ac03          	lw	s8,0(a5)
   1522c:	000b0613          	mv	a2,s6
   15230:	00a00593          	li	a1,10
   15234:	000c0513          	mv	a0,s8
   15238:	338000ef          	jal	15570 <memchr>
   1523c:	18050c63          	beqz	a0,153d4 <__sfvwrite_r+0x48c>
   15240:	00150513          	addi	a0,a0,1
   15244:	41850bb3          	sub	s7,a0,s8
   15248:	f5dff06f          	j	151a4 <__sfvwrite_r+0x25c>
   1524c:	000c0593          	mv	a1,s8
   15250:	00090613          	mv	a2,s2
   15254:	538000ef          	jal	1578c <memmove>
   15258:	00042783          	lw	a5,0(s0)
   1525c:	00040593          	mv	a1,s0
   15260:	000a8513          	mv	a0,s5
   15264:	012787b3          	add	a5,a5,s2
   15268:	00f42023          	sw	a5,0(s0)
   1526c:	be9ff0ef          	jal	14e54 <_fflush_r>
   15270:	f80500e3          	beqz	a0,151f0 <__sfvwrite_r+0x2a8>
   15274:	00c41783          	lh	a5,12(s0)
   15278:	01c12b83          	lw	s7,28(sp)
   1527c:	01812c03          	lw	s8,24(sp)
   15280:	03412483          	lw	s1,52(sp)
   15284:	03012903          	lw	s2,48(sp)
   15288:	02c12983          	lw	s3,44(sp)
   1528c:	02012b03          	lw	s6,32(sp)
   15290:	0407e793          	ori	a5,a5,64
   15294:	00f41623          	sh	a5,12(s0)
   15298:	fff00513          	li	a0,-1
   1529c:	d6dff06f          	j	15008 <__sfvwrite_r+0xc0>
   152a0:	01042703          	lw	a4,16(s0)
   152a4:	06f76263          	bltu	a4,a5,15308 <__sfvwrite_r+0x3c0>
   152a8:	01442583          	lw	a1,20(s0)
   152ac:	04b9ee63          	bltu	s3,a1,15308 <__sfvwrite_r+0x3c0>
   152b0:	00098913          	mv	s2,s3
   152b4:	013c7463          	bgeu	s8,s3,152bc <__sfvwrite_r+0x374>
   152b8:	000c0913          	mv	s2,s8
   152bc:	00090513          	mv	a0,s2
   152c0:	78c0c0ef          	jal	21a4c <__modsi3>
   152c4:	02442783          	lw	a5,36(s0)
   152c8:	01c42583          	lw	a1,28(s0)
   152cc:	40a906b3          	sub	a3,s2,a0
   152d0:	000b0613          	mv	a2,s6
   152d4:	000a8513          	mv	a0,s5
   152d8:	000780e7          	jalr	a5
   152dc:	f8a05ce3          	blez	a0,15274 <__sfvwrite_r+0x32c>
   152e0:	00050913          	mv	s2,a0
   152e4:	008a2783          	lw	a5,8(s4)
   152e8:	412989b3          	sub	s3,s3,s2
   152ec:	412787b3          	sub	a5,a5,s2
   152f0:	00fa2423          	sw	a5,8(s4)
   152f4:	0e078663          	beqz	a5,153e0 <__sfvwrite_r+0x498>
   152f8:	00c41683          	lh	a3,12(s0)
   152fc:	00042783          	lw	a5,0(s0)
   15300:	012b0b33          	add	s6,s6,s2
   15304:	d71ff06f          	j	15074 <__sfvwrite_r+0x12c>
   15308:	0129f463          	bgeu	s3,s2,15310 <__sfvwrite_r+0x3c8>
   1530c:	00098913          	mv	s2,s3
   15310:	00078513          	mv	a0,a5
   15314:	00090613          	mv	a2,s2
   15318:	000b0593          	mv	a1,s6
   1531c:	470000ef          	jal	1578c <memmove>
   15320:	00042783          	lw	a5,0(s0)
   15324:	00842703          	lw	a4,8(s0)
   15328:	012787b3          	add	a5,a5,s2
   1532c:	41270733          	sub	a4,a4,s2
   15330:	00f42023          	sw	a5,0(s0)
   15334:	00e42423          	sw	a4,8(s0)
   15338:	fa0716e3          	bnez	a4,152e4 <__sfvwrite_r+0x39c>
   1533c:	00040593          	mv	a1,s0
   15340:	000a8513          	mv	a0,s5
   15344:	b11ff0ef          	jal	14e54 <_fflush_r>
   15348:	f8050ee3          	beqz	a0,152e4 <__sfvwrite_r+0x39c>
   1534c:	f29ff06f          	j	15274 <__sfvwrite_r+0x32c>
   15350:	00098913          	mv	s2,s3
   15354:	00098b93          	mv	s7,s3
   15358:	dd5ff06f          	j	1512c <__sfvwrite_r+0x1e4>
   1535c:	00040593          	mv	a1,s0
   15360:	000a8513          	mv	a0,s5
   15364:	af1ff0ef          	jal	14e54 <_fflush_r>
   15368:	e8050ae3          	beqz	a0,151fc <__sfvwrite_r+0x2b4>
   1536c:	f09ff06f          	j	15274 <__sfvwrite_r+0x32c>
   15370:	00098613          	mv	a2,s3
   15374:	000c0593          	mv	a1,s8
   15378:	414000ef          	jal	1578c <memmove>
   1537c:	00842703          	lw	a4,8(s0)
   15380:	00042783          	lw	a5,0(s0)
   15384:	00098913          	mv	s2,s3
   15388:	41370733          	sub	a4,a4,s3
   1538c:	013787b3          	add	a5,a5,s3
   15390:	00e42423          	sw	a4,8(s0)
   15394:	00f42023          	sw	a5,0(s0)
   15398:	e59ff06f          	j	151f0 <__sfvwrite_r+0x2a8>
   1539c:	000a8513          	mv	a0,s5
   153a0:	0f4040ef          	jal	19494 <_realloc_r>
   153a4:	00050713          	mv	a4,a0
   153a8:	d60512e3          	bnez	a0,1510c <__sfvwrite_r+0x1c4>
   153ac:	01042583          	lw	a1,16(s0)
   153b0:	000a8513          	mv	a0,s5
   153b4:	af1fb0ef          	jal	10ea4 <_free_r>
   153b8:	00c45783          	lhu	a5,12(s0)
   153bc:	00c00713          	li	a4,12
   153c0:	01c12b83          	lw	s7,28(sp)
   153c4:	01812c03          	lw	s8,24(sp)
   153c8:	00eaa023          	sw	a4,0(s5)
   153cc:	f7f7f793          	andi	a5,a5,-129
   153d0:	eb1ff06f          	j	15280 <__sfvwrite_r+0x338>
   153d4:	001b0793          	addi	a5,s6,1
   153d8:	00078b93          	mv	s7,a5
   153dc:	dcdff06f          	j	151a8 <__sfvwrite_r+0x260>
   153e0:	01c12b83          	lw	s7,28(sp)
   153e4:	01812c03          	lw	s8,24(sp)
   153e8:	c0dff06f          	j	14ff4 <__sfvwrite_r+0xac>
   153ec:	00c41783          	lh	a5,12(s0)
   153f0:	e91ff06f          	j	15280 <__sfvwrite_r+0x338>
   153f4:	00c00793          	li	a5,12
   153f8:	00faa023          	sw	a5,0(s5)
   153fc:	01c12b83          	lw	s7,28(sp)
   15400:	00c41783          	lh	a5,12(s0)
   15404:	01812c03          	lw	s8,24(sp)
   15408:	e79ff06f          	j	15280 <__sfvwrite_r+0x338>

0001540c <__swsetup_r>:
   1540c:	f2c1a703          	lw	a4,-212(gp) # 23aac <_impure_ptr>
   15410:	fe010113          	addi	sp,sp,-32
   15414:	00112e23          	sw	ra,28(sp)
   15418:	00050613          	mv	a2,a0
   1541c:	00058793          	mv	a5,a1
   15420:	00070663          	beqz	a4,1542c <__swsetup_r+0x20>
   15424:	03472683          	lw	a3,52(a4)
   15428:	10068a63          	beqz	a3,1553c <__swsetup_r+0x130>
   1542c:	00c79703          	lh	a4,12(a5)
   15430:	00877693          	andi	a3,a4,8
   15434:	02068e63          	beqz	a3,15470 <__swsetup_r+0x64>
   15438:	0107a683          	lw	a3,16(a5)
   1543c:	04068a63          	beqz	a3,15490 <__swsetup_r+0x84>
   15440:	00c79703          	lh	a4,12(a5)
   15444:	00177613          	andi	a2,a4,1
   15448:	06060e63          	beqz	a2,154c4 <__swsetup_r+0xb8>
   1544c:	0147a603          	lw	a2,20(a5)
   15450:	0007a423          	sw	zero,8(a5)
   15454:	00000513          	li	a0,0
   15458:	40c00633          	neg	a2,a2
   1545c:	00c7ac23          	sw	a2,24(a5)
   15460:	08068063          	beqz	a3,154e0 <__swsetup_r+0xd4>
   15464:	01c12083          	lw	ra,28(sp)
   15468:	02010113          	addi	sp,sp,32
   1546c:	00008067          	ret
   15470:	01077693          	andi	a3,a4,16
   15474:	0e068263          	beqz	a3,15558 <__swsetup_r+0x14c>
   15478:	00477693          	andi	a3,a4,4
   1547c:	06069e63          	bnez	a3,154f8 <__swsetup_r+0xec>
   15480:	0107a683          	lw	a3,16(a5)
   15484:	00876713          	ori	a4,a4,8
   15488:	00e79623          	sh	a4,12(a5)
   1548c:	fa069ae3          	bnez	a3,15440 <__swsetup_r+0x34>
   15490:	00c7a703          	lw	a4,12(a5)
   15494:	20000593          	li	a1,512
   15498:	28077713          	andi	a4,a4,640
   1549c:	fab702e3          	beq	a4,a1,15440 <__swsetup_r+0x34>
   154a0:	00060513          	mv	a0,a2
   154a4:	00078593          	mv	a1,a5
   154a8:	00f12423          	sw	a5,8(sp)
   154ac:	618040ef          	jal	19ac4 <__smakebuf_r>
   154b0:	00812783          	lw	a5,8(sp)
   154b4:	00c79703          	lh	a4,12(a5)
   154b8:	0107a683          	lw	a3,16(a5)
   154bc:	00177613          	andi	a2,a4,1
   154c0:	f80616e3          	bnez	a2,1544c <__swsetup_r+0x40>
   154c4:	00277613          	andi	a2,a4,2
   154c8:	00000593          	li	a1,0
   154cc:	00061463          	bnez	a2,154d4 <__swsetup_r+0xc8>
   154d0:	0147a583          	lw	a1,20(a5)
   154d4:	00b7a423          	sw	a1,8(a5)
   154d8:	00000513          	li	a0,0
   154dc:	f80694e3          	bnez	a3,15464 <__swsetup_r+0x58>
   154e0:	08077693          	andi	a3,a4,128
   154e4:	f80680e3          	beqz	a3,15464 <__swsetup_r+0x58>
   154e8:	04076713          	ori	a4,a4,64
   154ec:	00e79623          	sh	a4,12(a5)
   154f0:	fff00513          	li	a0,-1
   154f4:	f71ff06f          	j	15464 <__swsetup_r+0x58>
   154f8:	0307a583          	lw	a1,48(a5)
   154fc:	02058663          	beqz	a1,15528 <__swsetup_r+0x11c>
   15500:	04078693          	addi	a3,a5,64
   15504:	02d58063          	beq	a1,a3,15524 <__swsetup_r+0x118>
   15508:	00060513          	mv	a0,a2
   1550c:	00f12623          	sw	a5,12(sp)
   15510:	00c12423          	sw	a2,8(sp)
   15514:	991fb0ef          	jal	10ea4 <_free_r>
   15518:	00c12783          	lw	a5,12(sp)
   1551c:	00812603          	lw	a2,8(sp)
   15520:	00c79703          	lh	a4,12(a5)
   15524:	0207a823          	sw	zero,48(a5)
   15528:	0107a683          	lw	a3,16(a5)
