
hello_world:     file format elf64-littleriscv


Disassembly of section .text:

0000000000010120 <exit>:
   10120:	ff010113          	addi	sp,sp,-16
   10124:	00000593          	li	a1,0
   10128:	00813023          	sd	s0,0(sp)
   1012c:	00113423          	sd	ra,8(sp)
   10130:	00050413          	mv	s0,a0
   10134:	365000ef          	jal	10c98 <__call_exitprocs>
   10138:	2381b783          	ld	a5,568(gp) # 206b0 <__stdio_exit_handler>
   1013c:	00078463          	beqz	a5,10144 <exit+0x24>
   10140:	000780e7          	jalr	a5
   10144:	00040513          	mv	a0,s0
   10148:	7680b0ef          	jal	1b8b0 <_exit>

000000000001014c <register_fini>:
   1014c:	00000793          	li	a5,0
   10150:	00078863          	beqz	a5,10160 <register_fini+0x14>
   10154:	00015537          	lui	a0,0x15
   10158:	6ac50513          	addi	a0,a0,1708 # 156ac <__libc_fini_array>
   1015c:	4750006f          	j	10dd0 <atexit>
   10160:	00008067          	ret

0000000000010164 <_start>:
   10164:	00010197          	auipc	gp,0x10
   10168:	31418193          	addi	gp,gp,788 # 20478 <__global_pointer$>
   1016c:	00010517          	auipc	a0,0x10
   10170:	54450513          	addi	a0,a0,1348 # 206b0 <__stdio_exit_handler>
   10174:	00011617          	auipc	a2,0x11
   10178:	b0460613          	addi	a2,a2,-1276 # 20c78 <__BSS_END__>
   1017c:	40a60633          	sub	a2,a2,a0
   10180:	00000593          	li	a1,0
   10184:	239000ef          	jal	10bbc <memset>
   10188:	00001517          	auipc	a0,0x1
   1018c:	c4850513          	addi	a0,a0,-952 # 10dd0 <atexit>
   10190:	00050863          	beqz	a0,101a0 <_start+0x3c>
   10194:	00005517          	auipc	a0,0x5
   10198:	51850513          	addi	a0,a0,1304 # 156ac <__libc_fini_array>
   1019c:	435000ef          	jal	10dd0 <atexit>
   101a0:	189000ef          	jal	10b28 <__libc_init_array>
   101a4:	00012503          	lw	a0,0(sp)
   101a8:	00810593          	addi	a1,sp,8
   101ac:	00000613          	li	a2,0
   101b0:	06c000ef          	jal	1021c <main>
   101b4:	f6dff06f          	j	10120 <exit>

00000000000101b8 <__do_global_dtors_aux>:
   101b8:	ff010113          	addi	sp,sp,-16
   101bc:	00813023          	sd	s0,0(sp)
   101c0:	2781c783          	lbu	a5,632(gp) # 206f0 <completed.1>
   101c4:	00113423          	sd	ra,8(sp)
   101c8:	02079263          	bnez	a5,101ec <__do_global_dtors_aux+0x34>
   101cc:	00000793          	li	a5,0
   101d0:	00078a63          	beqz	a5,101e4 <__do_global_dtors_aux+0x2c>
   101d4:	0001f537          	lui	a0,0x1f
   101d8:	ae050513          	addi	a0,a0,-1312 # 1eae0 <__EH_FRAME_BEGIN__>
   101dc:	00000097          	auipc	ra,0x0
   101e0:	000000e7          	jalr	zero # 0 <exit-0x10120>
   101e4:	00100793          	li	a5,1
   101e8:	26f18c23          	sb	a5,632(gp) # 206f0 <completed.1>
   101ec:	00813083          	ld	ra,8(sp)
   101f0:	00013403          	ld	s0,0(sp)
   101f4:	01010113          	addi	sp,sp,16
   101f8:	00008067          	ret

00000000000101fc <frame_dummy>:
   101fc:	00000793          	li	a5,0
   10200:	00078c63          	beqz	a5,10218 <frame_dummy+0x1c>
   10204:	0001f537          	lui	a0,0x1f
   10208:	28018593          	addi	a1,gp,640 # 206f8 <object.0>
   1020c:	ae050513          	addi	a0,a0,-1312 # 1eae0 <__EH_FRAME_BEGIN__>
   10210:	00000317          	auipc	t1,0x0
   10214:	00000067          	jr	zero # 0 <exit-0x10120>
   10218:	00008067          	ret

000000000001021c <main>:
   1021c:	fe010113          	addi	sp,sp,-32
   10220:	00113c23          	sd	ra,24(sp)
   10224:	00813823          	sd	s0,16(sp)
   10228:	02010413          	addi	s0,sp,32
   1022c:	00300793          	li	a5,3
   10230:	fef42623          	sw	a5,-20(s0)
   10234:	02500793          	li	a5,37
   10238:	fef42423          	sw	a5,-24(s0)
   1023c:	fec42783          	lw	a5,-20(s0)
   10240:	00078713          	mv	a4,a5
   10244:	fe842783          	lw	a5,-24(s0)
   10248:	00f707bb          	addw	a5,a4,a5
   1024c:	fef42223          	sw	a5,-28(s0)
   10250:	fe442783          	lw	a5,-28(s0)
   10254:	0027879b          	addiw	a5,a5,2
   10258:	fef42223          	sw	a5,-28(s0)
   1025c:	fe442783          	lw	a5,-28(s0)
   10260:	00078593          	mv	a1,a5
   10264:	0001e7b7          	lui	a5,0x1e
   10268:	29078513          	addi	a0,a5,656 # 1e290 <__clzdi2+0x44>
   1026c:	4a0000ef          	jal	1070c <printf>
   10270:	00000793          	li	a5,0
   10274:	00078513          	mv	a0,a5
   10278:	01813083          	ld	ra,24(sp)
   1027c:	01013403          	ld	s0,16(sp)
   10280:	02010113          	addi	sp,sp,32
   10284:	00008067          	ret

0000000000010288 <__fp_lock>:
   10288:	00000513          	li	a0,0
   1028c:	00008067          	ret

0000000000010290 <stdio_exit_handler>:
   10290:	00020637          	lui	a2,0x20
   10294:	000155b7          	lui	a1,0x15
   10298:	00020537          	lui	a0,0x20
   1029c:	b0060613          	addi	a2,a2,-1280 # 1fb00 <__sglue>
   102a0:	a1458593          	addi	a1,a1,-1516 # 14a14 <_fclose_r>
   102a4:	b1850513          	addi	a0,a0,-1256 # 1fb18 <_impure_data>
   102a8:	34c0006f          	j	105f4 <_fwalk_sglue>

00000000000102ac <cleanup_stdio>:
   102ac:	00853583          	ld	a1,8(a0)
   102b0:	ff010113          	addi	sp,sp,-16
   102b4:	00813023          	sd	s0,0(sp)
   102b8:	00113423          	sd	ra,8(sp)
   102bc:	2b018793          	addi	a5,gp,688 # 20728 <__sf>
   102c0:	00050413          	mv	s0,a0
   102c4:	00f58463          	beq	a1,a5,102cc <cleanup_stdio+0x20>
   102c8:	74c040ef          	jal	14a14 <_fclose_r>
   102cc:	01043583          	ld	a1,16(s0)
   102d0:	36018793          	addi	a5,gp,864 # 207d8 <__sf+0xb0>
   102d4:	00f58663          	beq	a1,a5,102e0 <cleanup_stdio+0x34>
   102d8:	00040513          	mv	a0,s0
   102dc:	738040ef          	jal	14a14 <_fclose_r>
   102e0:	01843583          	ld	a1,24(s0)
   102e4:	41018793          	addi	a5,gp,1040 # 20888 <__sf+0x160>
   102e8:	00f58c63          	beq	a1,a5,10300 <cleanup_stdio+0x54>
   102ec:	00040513          	mv	a0,s0
   102f0:	00013403          	ld	s0,0(sp)
   102f4:	00813083          	ld	ra,8(sp)
   102f8:	01010113          	addi	sp,sp,16
   102fc:	7180406f          	j	14a14 <_fclose_r>
   10300:	00813083          	ld	ra,8(sp)
   10304:	00013403          	ld	s0,0(sp)
   10308:	01010113          	addi	sp,sp,16
   1030c:	00008067          	ret

0000000000010310 <__fp_unlock>:
   10310:	00000513          	li	a0,0
   10314:	00008067          	ret

0000000000010318 <global_stdio_init.part.0>:
   10318:	fd010113          	addi	sp,sp,-48
   1031c:	000107b7          	lui	a5,0x10
   10320:	02813023          	sd	s0,32(sp)
   10324:	29078793          	addi	a5,a5,656 # 10290 <stdio_exit_handler>
   10328:	2b018413          	addi	s0,gp,688 # 20728 <__sf>
   1032c:	02113423          	sd	ra,40(sp)
   10330:	00913c23          	sd	s1,24(sp)
   10334:	01213823          	sd	s2,16(sp)
   10338:	01313423          	sd	s3,8(sp)
   1033c:	01413023          	sd	s4,0(sp)
   10340:	22f1bc23          	sd	a5,568(gp) # 206b0 <__stdio_exit_handler>
   10344:	00800613          	li	a2,8
   10348:	00400793          	li	a5,4
   1034c:	00000593          	li	a1,0
   10350:	35418513          	addi	a0,gp,852 # 207cc <__sf+0xa4>
   10354:	00f42823          	sw	a5,16(s0)
   10358:	00043023          	sd	zero,0(s0)
   1035c:	00043423          	sd	zero,8(s0)
   10360:	0a042623          	sw	zero,172(s0)
   10364:	00043c23          	sd	zero,24(s0)
   10368:	02042023          	sw	zero,32(s0)
   1036c:	02042423          	sw	zero,40(s0)
   10370:	04d000ef          	jal	10bbc <memset>
   10374:	00010a37          	lui	s4,0x10
   10378:	000109b7          	lui	s3,0x10
   1037c:	00011937          	lui	s2,0x11
   10380:	000114b7          	lui	s1,0x11
   10384:	000107b7          	lui	a5,0x10
   10388:	758a0a13          	addi	s4,s4,1880 # 10758 <__sread>
   1038c:	7bc98993          	addi	s3,s3,1980 # 107bc <__swrite>
   10390:	84490913          	addi	s2,s2,-1980 # 10844 <__sseek>
   10394:	8a848493          	addi	s1,s1,-1880 # 108a8 <__sclose>
   10398:	00978793          	addi	a5,a5,9 # 10009 <exit-0x117>
   1039c:	00800613          	li	a2,8
   103a0:	00000593          	li	a1,0
   103a4:	40418513          	addi	a0,gp,1028 # 2087c <__sf+0x154>
   103a8:	0cf42023          	sw	a5,192(s0)
   103ac:	03443c23          	sd	s4,56(s0)
   103b0:	05343023          	sd	s3,64(s0)
   103b4:	05243423          	sd	s2,72(s0)
   103b8:	04943823          	sd	s1,80(s0)
   103bc:	02843823          	sd	s0,48(s0)
   103c0:	0a043823          	sd	zero,176(s0)
   103c4:	0a043c23          	sd	zero,184(s0)
   103c8:	14042e23          	sw	zero,348(s0)
   103cc:	0c043423          	sd	zero,200(s0)
   103d0:	0c042823          	sw	zero,208(s0)
   103d4:	0c042c23          	sw	zero,216(s0)
   103d8:	7e4000ef          	jal	10bbc <memset>
   103dc:	000207b7          	lui	a5,0x20
   103e0:	01278793          	addi	a5,a5,18 # 20012 <__malloc_av_+0x3a2>
   103e4:	36018713          	addi	a4,gp,864 # 207d8 <__sf+0xb0>
   103e8:	4b418513          	addi	a0,gp,1204 # 2092c <__sf+0x204>
   103ec:	00800613          	li	a2,8
   103f0:	00000593          	li	a1,0
   103f4:	0f443423          	sd	s4,232(s0)
   103f8:	0f343823          	sd	s3,240(s0)
   103fc:	0f243c23          	sd	s2,248(s0)
   10400:	10943023          	sd	s1,256(s0)
   10404:	16f42823          	sw	a5,368(s0)
   10408:	16043023          	sd	zero,352(s0)
   1040c:	16043423          	sd	zero,360(s0)
   10410:	20042623          	sw	zero,524(s0)
   10414:	16043c23          	sd	zero,376(s0)
   10418:	18042023          	sw	zero,384(s0)
   1041c:	18042423          	sw	zero,392(s0)
   10420:	0ee43023          	sd	a4,224(s0)
   10424:	798000ef          	jal	10bbc <memset>
   10428:	41018793          	addi	a5,gp,1040 # 20888 <__sf+0x160>
   1042c:	19443c23          	sd	s4,408(s0)
   10430:	1b343023          	sd	s3,416(s0)
   10434:	1b243423          	sd	s2,424(s0)
   10438:	1a943823          	sd	s1,432(s0)
   1043c:	02813083          	ld	ra,40(sp)
   10440:	18f43823          	sd	a5,400(s0)
   10444:	02013403          	ld	s0,32(sp)
   10448:	01813483          	ld	s1,24(sp)
   1044c:	01013903          	ld	s2,16(sp)
   10450:	00813983          	ld	s3,8(sp)
   10454:	00013a03          	ld	s4,0(sp)
   10458:	03010113          	addi	sp,sp,48
   1045c:	00008067          	ret

0000000000010460 <__sfp>:
   10460:	2381b783          	ld	a5,568(gp) # 206b0 <__stdio_exit_handler>
   10464:	fd010113          	addi	sp,sp,-48
   10468:	00913c23          	sd	s1,24(sp)
   1046c:	02113423          	sd	ra,40(sp)
   10470:	02813023          	sd	s0,32(sp)
   10474:	00050493          	mv	s1,a0
   10478:	10078463          	beqz	a5,10580 <__sfp+0x120>
   1047c:	000206b7          	lui	a3,0x20
   10480:	b0068693          	addi	a3,a3,-1280 # 1fb00 <__sglue>
   10484:	0086a703          	lw	a4,8(a3)
   10488:	08e05c63          	blez	a4,10520 <__sfp+0xc0>
   1048c:	02071713          	slli	a4,a4,0x20
   10490:	02075713          	srli	a4,a4,0x20
   10494:	00171793          	slli	a5,a4,0x1
   10498:	00e787b3          	add	a5,a5,a4
   1049c:	0106b403          	ld	s0,16(a3)
   104a0:	00279793          	slli	a5,a5,0x2
   104a4:	40e787b3          	sub	a5,a5,a4
   104a8:	00479793          	slli	a5,a5,0x4
   104ac:	00f407b3          	add	a5,s0,a5
   104b0:	00c0006f          	j	104bc <__sfp+0x5c>
   104b4:	0b040413          	addi	s0,s0,176
   104b8:	06f40463          	beq	s0,a5,10520 <__sfp+0xc0>
   104bc:	01041703          	lh	a4,16(s0)
   104c0:	fe071ae3          	bnez	a4,104b4 <__sfp+0x54>
   104c4:	ffff07b7          	lui	a5,0xffff0
   104c8:	00178793          	addi	a5,a5,1 # ffffffffffff0001 <__BSS_END__+0xfffffffffffcf389>
   104cc:	00f42823          	sw	a5,16(s0)
   104d0:	0a042623          	sw	zero,172(s0)
   104d4:	00043023          	sd	zero,0(s0)
   104d8:	00043423          	sd	zero,8(s0)
   104dc:	00043c23          	sd	zero,24(s0)
   104e0:	02042023          	sw	zero,32(s0)
   104e4:	02042423          	sw	zero,40(s0)
   104e8:	00800613          	li	a2,8
   104ec:	00000593          	li	a1,0
   104f0:	0a440513          	addi	a0,s0,164
   104f4:	6c8000ef          	jal	10bbc <memset>
   104f8:	04043c23          	sd	zero,88(s0)
   104fc:	06042023          	sw	zero,96(s0)
   10500:	06043c23          	sd	zero,120(s0)
   10504:	08042023          	sw	zero,128(s0)
   10508:	02813083          	ld	ra,40(sp)
   1050c:	00040513          	mv	a0,s0
   10510:	02013403          	ld	s0,32(sp)
   10514:	01813483          	ld	s1,24(sp)
   10518:	03010113          	addi	sp,sp,48
   1051c:	00008067          	ret
   10520:	0006b403          	ld	s0,0(a3)
   10524:	00040663          	beqz	s0,10530 <__sfp+0xd0>
   10528:	00040693          	mv	a3,s0
   1052c:	f59ff06f          	j	10484 <__sfp+0x24>
   10530:	2d800593          	li	a1,728
   10534:	00048513          	mv	a0,s1
   10538:	00d13423          	sd	a3,8(sp)
   1053c:	4d1000ef          	jal	1120c <_malloc_r>
   10540:	00813683          	ld	a3,8(sp)
   10544:	00050413          	mv	s0,a0
   10548:	04050063          	beqz	a0,10588 <__sfp+0x128>
   1054c:	00400793          	li	a5,4
   10550:	00f52423          	sw	a5,8(a0)
   10554:	01850513          	addi	a0,a0,24
   10558:	00043023          	sd	zero,0(s0)
   1055c:	00a43823          	sd	a0,16(s0)
   10560:	2c000613          	li	a2,704
   10564:	00000593          	li	a1,0
   10568:	00d13423          	sd	a3,8(sp)
   1056c:	650000ef          	jal	10bbc <memset>
   10570:	00813683          	ld	a3,8(sp)
   10574:	0086b023          	sd	s0,0(a3)
   10578:	00040693          	mv	a3,s0
   1057c:	f09ff06f          	j	10484 <__sfp+0x24>
   10580:	d99ff0ef          	jal	10318 <global_stdio_init.part.0>
   10584:	ef9ff06f          	j	1047c <__sfp+0x1c>
   10588:	0006b023          	sd	zero,0(a3)
   1058c:	00c00793          	li	a5,12
   10590:	00f4a023          	sw	a5,0(s1)
   10594:	f75ff06f          	j	10508 <__sfp+0xa8>

0000000000010598 <__sinit>:
   10598:	04853783          	ld	a5,72(a0)
   1059c:	00078463          	beqz	a5,105a4 <__sinit+0xc>
   105a0:	00008067          	ret
   105a4:	000107b7          	lui	a5,0x10
   105a8:	2381b703          	ld	a4,568(gp) # 206b0 <__stdio_exit_handler>
   105ac:	2ac78793          	addi	a5,a5,684 # 102ac <cleanup_stdio>
   105b0:	04f53423          	sd	a5,72(a0)
   105b4:	fe0716e3          	bnez	a4,105a0 <__sinit+0x8>
   105b8:	d61ff06f          	j	10318 <global_stdio_init.part.0>

00000000000105bc <__sfp_lock_acquire>:
   105bc:	00008067          	ret

00000000000105c0 <__sfp_lock_release>:
   105c0:	00008067          	ret

00000000000105c4 <__fp_lock_all>:
   105c4:	00020637          	lui	a2,0x20
   105c8:	000105b7          	lui	a1,0x10
   105cc:	b0060613          	addi	a2,a2,-1280 # 1fb00 <__sglue>
   105d0:	28858593          	addi	a1,a1,648 # 10288 <__fp_lock>
   105d4:	00000513          	li	a0,0
   105d8:	01c0006f          	j	105f4 <_fwalk_sglue>

00000000000105dc <__fp_unlock_all>:
   105dc:	00020637          	lui	a2,0x20
   105e0:	000105b7          	lui	a1,0x10
   105e4:	b0060613          	addi	a2,a2,-1280 # 1fb00 <__sglue>
   105e8:	31058593          	addi	a1,a1,784 # 10310 <__fp_unlock>
   105ec:	00000513          	li	a0,0
   105f0:	0040006f          	j	105f4 <_fwalk_sglue>

00000000000105f4 <_fwalk_sglue>:
   105f4:	fb010113          	addi	sp,sp,-80
   105f8:	03213823          	sd	s2,48(sp)
   105fc:	03313423          	sd	s3,40(sp)
   10600:	03413023          	sd	s4,32(sp)
   10604:	01513c23          	sd	s5,24(sp)
   10608:	01613823          	sd	s6,16(sp)
   1060c:	01713423          	sd	s7,8(sp)
   10610:	04113423          	sd	ra,72(sp)
   10614:	04813023          	sd	s0,64(sp)
   10618:	02913c23          	sd	s1,56(sp)
   1061c:	00060913          	mv	s2,a2
   10620:	00050a13          	mv	s4,a0
   10624:	00058a93          	mv	s5,a1
   10628:	00000b13          	li	s6,0
   1062c:	00100b93          	li	s7,1
   10630:	fff00993          	li	s3,-1
   10634:	00892783          	lw	a5,8(s2)
   10638:	04f05a63          	blez	a5,1068c <_fwalk_sglue+0x98>
   1063c:	02079793          	slli	a5,a5,0x20
   10640:	0207d793          	srli	a5,a5,0x20
   10644:	00179493          	slli	s1,a5,0x1
   10648:	00f484b3          	add	s1,s1,a5
   1064c:	01093403          	ld	s0,16(s2)
   10650:	00249493          	slli	s1,s1,0x2
   10654:	40f484b3          	sub	s1,s1,a5
   10658:	00449493          	slli	s1,s1,0x4
   1065c:	009404b3          	add	s1,s0,s1
   10660:	01045783          	lhu	a5,16(s0)
   10664:	02fbf063          	bgeu	s7,a5,10684 <_fwalk_sglue+0x90>
   10668:	01241783          	lh	a5,18(s0)
   1066c:	00040593          	mv	a1,s0
   10670:	000a0513          	mv	a0,s4
   10674:	01378863          	beq	a5,s3,10684 <_fwalk_sglue+0x90>
   10678:	000a80e7          	jalr	s5
   1067c:	01656b33          	or	s6,a0,s6
   10680:	000b0b1b          	sext.w	s6,s6
   10684:	0b040413          	addi	s0,s0,176
   10688:	fc941ce3          	bne	s0,s1,10660 <_fwalk_sglue+0x6c>
   1068c:	00093903          	ld	s2,0(s2)
   10690:	fa0912e3          	bnez	s2,10634 <_fwalk_sglue+0x40>
   10694:	04813083          	ld	ra,72(sp)
   10698:	04013403          	ld	s0,64(sp)
   1069c:	03813483          	ld	s1,56(sp)
   106a0:	03013903          	ld	s2,48(sp)
   106a4:	02813983          	ld	s3,40(sp)
   106a8:	02013a03          	ld	s4,32(sp)
   106ac:	01813a83          	ld	s5,24(sp)
   106b0:	00813b83          	ld	s7,8(sp)
   106b4:	000b0513          	mv	a0,s6
   106b8:	01013b03          	ld	s6,16(sp)
   106bc:	05010113          	addi	sp,sp,80
   106c0:	00008067          	ret

00000000000106c4 <_printf_r>:
   106c4:	fb010113          	addi	sp,sp,-80
   106c8:	00058e13          	mv	t3,a1
   106cc:	01053583          	ld	a1,16(a0)
   106d0:	02010313          	addi	t1,sp,32
   106d4:	02c13023          	sd	a2,32(sp)
   106d8:	02d13423          	sd	a3,40(sp)
   106dc:	000e0613          	mv	a2,t3
   106e0:	00030693          	mv	a3,t1
   106e4:	00113c23          	sd	ra,24(sp)
   106e8:	02e13823          	sd	a4,48(sp)
   106ec:	02f13c23          	sd	a5,56(sp)
   106f0:	05013023          	sd	a6,64(sp)
   106f4:	05113423          	sd	a7,72(sp)
   106f8:	00613423          	sd	t1,8(sp)
   106fc:	3fc010ef          	jal	11af8 <_vfprintf_r>
   10700:	01813083          	ld	ra,24(sp)
   10704:	05010113          	addi	sp,sp,80
   10708:	00008067          	ret

000000000001070c <printf>:
   1070c:	2201b303          	ld	t1,544(gp) # 20698 <_impure_ptr>
   10710:	fa010113          	addi	sp,sp,-96
   10714:	02c13823          	sd	a2,48(sp)
   10718:	02d13c23          	sd	a3,56(sp)
   1071c:	02b13423          	sd	a1,40(sp)
   10720:	04e13023          	sd	a4,64(sp)
   10724:	04f13423          	sd	a5,72(sp)
   10728:	05013823          	sd	a6,80(sp)
   1072c:	05113c23          	sd	a7,88(sp)
   10730:	01033583          	ld	a1,16(t1) # 10220 <main+0x4>
   10734:	02810693          	addi	a3,sp,40
   10738:	00050613          	mv	a2,a0
   1073c:	00030513          	mv	a0,t1
   10740:	00113c23          	sd	ra,24(sp)
   10744:	00d13423          	sd	a3,8(sp)
   10748:	3b0010ef          	jal	11af8 <_vfprintf_r>
   1074c:	01813083          	ld	ra,24(sp)
   10750:	06010113          	addi	sp,sp,96
   10754:	00008067          	ret

0000000000010758 <__sread>:
   10758:	ff010113          	addi	sp,sp,-16
   1075c:	00813023          	sd	s0,0(sp)
   10760:	00058413          	mv	s0,a1
   10764:	01259583          	lh	a1,18(a1)
   10768:	00113423          	sd	ra,8(sp)
   1076c:	2ec000ef          	jal	10a58 <_read_r>
   10770:	02054063          	bltz	a0,10790 <__sread+0x38>
   10774:	09043783          	ld	a5,144(s0)
   10778:	00813083          	ld	ra,8(sp)
   1077c:	00a787b3          	add	a5,a5,a0
   10780:	08f43823          	sd	a5,144(s0)
   10784:	00013403          	ld	s0,0(sp)
   10788:	01010113          	addi	sp,sp,16
   1078c:	00008067          	ret
   10790:	01045783          	lhu	a5,16(s0)
   10794:	fffff737          	lui	a4,0xfffff
   10798:	fff70713          	addi	a4,a4,-1 # ffffffffffffefff <__BSS_END__+0xfffffffffffde387>
   1079c:	00e7f7b3          	and	a5,a5,a4
   107a0:	00813083          	ld	ra,8(sp)
   107a4:	00f41823          	sh	a5,16(s0)
   107a8:	00013403          	ld	s0,0(sp)
   107ac:	01010113          	addi	sp,sp,16
   107b0:	00008067          	ret

00000000000107b4 <__seofread>:
   107b4:	00000513          	li	a0,0
   107b8:	00008067          	ret

00000000000107bc <__swrite>:
   107bc:	01059783          	lh	a5,16(a1)
   107c0:	fd010113          	addi	sp,sp,-48
   107c4:	00068313          	mv	t1,a3
   107c8:	02113423          	sd	ra,40(sp)
   107cc:	1007f693          	andi	a3,a5,256
   107d0:	00058713          	mv	a4,a1
   107d4:	00060893          	mv	a7,a2
   107d8:	00050813          	mv	a6,a0
   107dc:	02069863          	bnez	a3,1080c <__swrite+0x50>
   107e0:	fffff6b7          	lui	a3,0xfffff
   107e4:	fff68693          	addi	a3,a3,-1 # ffffffffffffefff <__BSS_END__+0xfffffffffffde387>
   107e8:	02813083          	ld	ra,40(sp)
   107ec:	00d7f7b3          	and	a5,a5,a3
   107f0:	01271583          	lh	a1,18(a4)
   107f4:	00f71823          	sh	a5,16(a4)
   107f8:	00030693          	mv	a3,t1
   107fc:	00088613          	mv	a2,a7
   10800:	00080513          	mv	a0,a6
   10804:	03010113          	addi	sp,sp,48
   10808:	2b80006f          	j	10ac0 <_write_r>
   1080c:	01259583          	lh	a1,18(a1)
   10810:	00c13823          	sd	a2,16(sp)
   10814:	00200693          	li	a3,2
   10818:	00000613          	li	a2,0
   1081c:	00613c23          	sd	t1,24(sp)
   10820:	00e13023          	sd	a4,0(sp)
   10824:	00a13423          	sd	a0,8(sp)
   10828:	1c8000ef          	jal	109f0 <_lseek_r>
   1082c:	00013703          	ld	a4,0(sp)
   10830:	01813303          	ld	t1,24(sp)
   10834:	01013883          	ld	a7,16(sp)
   10838:	01071783          	lh	a5,16(a4)
   1083c:	00813803          	ld	a6,8(sp)
   10840:	fa1ff06f          	j	107e0 <__swrite+0x24>

0000000000010844 <__sseek>:
   10844:	ff010113          	addi	sp,sp,-16
   10848:	00813023          	sd	s0,0(sp)
   1084c:	00058413          	mv	s0,a1
   10850:	01259583          	lh	a1,18(a1)
   10854:	00113423          	sd	ra,8(sp)
   10858:	198000ef          	jal	109f0 <_lseek_r>
   1085c:	fff00713          	li	a4,-1
   10860:	01041783          	lh	a5,16(s0)
   10864:	02e50263          	beq	a0,a4,10888 <__sseek+0x44>
   10868:	00001737          	lui	a4,0x1
   1086c:	00e7e7b3          	or	a5,a5,a4
   10870:	00813083          	ld	ra,8(sp)
   10874:	08a43823          	sd	a0,144(s0)
   10878:	00f41823          	sh	a5,16(s0)
   1087c:	00013403          	ld	s0,0(sp)
   10880:	01010113          	addi	sp,sp,16
   10884:	00008067          	ret
   10888:	80050713          	addi	a4,a0,-2048
   1088c:	80070713          	addi	a4,a4,-2048 # 800 <exit-0xf920>
   10890:	00e7f7b3          	and	a5,a5,a4
   10894:	00813083          	ld	ra,8(sp)
   10898:	00f41823          	sh	a5,16(s0)
   1089c:	00013403          	ld	s0,0(sp)
   108a0:	01010113          	addi	sp,sp,16
   108a4:	00008067          	ret

00000000000108a8 <__sclose>:
   108a8:	01259583          	lh	a1,18(a1)
   108ac:	0040006f          	j	108b0 <_close_r>

00000000000108b0 <_close_r>:
   108b0:	fe010113          	addi	sp,sp,-32
   108b4:	00813823          	sd	s0,16(sp)
   108b8:	00913423          	sd	s1,8(sp)
   108bc:	00050493          	mv	s1,a0
   108c0:	00058513          	mv	a0,a1
   108c4:	00113c23          	sd	ra,24(sp)
   108c8:	2401a023          	sw	zero,576(gp) # 206b8 <errno>
   108cc:	7a50a0ef          	jal	1b870 <_close>
   108d0:	fff00793          	li	a5,-1
   108d4:	00f50c63          	beq	a0,a5,108ec <_close_r+0x3c>
   108d8:	01813083          	ld	ra,24(sp)
   108dc:	01013403          	ld	s0,16(sp)
   108e0:	00813483          	ld	s1,8(sp)
   108e4:	02010113          	addi	sp,sp,32
   108e8:	00008067          	ret
   108ec:	2401a783          	lw	a5,576(gp) # 206b8 <errno>
   108f0:	fe0784e3          	beqz	a5,108d8 <_close_r+0x28>
   108f4:	01813083          	ld	ra,24(sp)
   108f8:	01013403          	ld	s0,16(sp)
   108fc:	00f4a023          	sw	a5,0(s1)
   10900:	00813483          	ld	s1,8(sp)
   10904:	02010113          	addi	sp,sp,32
   10908:	00008067          	ret

000000000001090c <_reclaim_reent>:
   1090c:	2201b783          	ld	a5,544(gp) # 20698 <_impure_ptr>
   10910:	0ca78e63          	beq	a5,a0,109ec <_reclaim_reent+0xe0>
   10914:	06853583          	ld	a1,104(a0)
   10918:	fd010113          	addi	sp,sp,-48
   1091c:	00913c23          	sd	s1,24(sp)
   10920:	02113423          	sd	ra,40(sp)
   10924:	02813023          	sd	s0,32(sp)
   10928:	00050493          	mv	s1,a0
   1092c:	04058863          	beqz	a1,1097c <_reclaim_reent+0x70>
   10930:	01213823          	sd	s2,16(sp)
   10934:	01313423          	sd	s3,8(sp)
   10938:	00000913          	li	s2,0
   1093c:	20000993          	li	s3,512
   10940:	012587b3          	add	a5,a1,s2
   10944:	0007b403          	ld	s0,0(a5)
   10948:	00040e63          	beqz	s0,10964 <_reclaim_reent+0x58>
   1094c:	00040593          	mv	a1,s0
   10950:	00043403          	ld	s0,0(s0)
   10954:	00048513          	mv	a0,s1
   10958:	5b0000ef          	jal	10f08 <_free_r>
   1095c:	fe0418e3          	bnez	s0,1094c <_reclaim_reent+0x40>
   10960:	0684b583          	ld	a1,104(s1)
   10964:	00890913          	addi	s2,s2,8
   10968:	fd391ce3          	bne	s2,s3,10940 <_reclaim_reent+0x34>
   1096c:	00048513          	mv	a0,s1
   10970:	598000ef          	jal	10f08 <_free_r>
   10974:	01013903          	ld	s2,16(sp)
   10978:	00813983          	ld	s3,8(sp)
   1097c:	0504b583          	ld	a1,80(s1)
   10980:	00058663          	beqz	a1,1098c <_reclaim_reent+0x80>
   10984:	00048513          	mv	a0,s1
   10988:	580000ef          	jal	10f08 <_free_r>
   1098c:	0604b403          	ld	s0,96(s1)
   10990:	00040c63          	beqz	s0,109a8 <_reclaim_reent+0x9c>
   10994:	00040593          	mv	a1,s0
   10998:	00043403          	ld	s0,0(s0)
   1099c:	00048513          	mv	a0,s1
   109a0:	568000ef          	jal	10f08 <_free_r>
   109a4:	fe0418e3          	bnez	s0,10994 <_reclaim_reent+0x88>
   109a8:	0784b583          	ld	a1,120(s1)
   109ac:	00058663          	beqz	a1,109b8 <_reclaim_reent+0xac>
   109b0:	00048513          	mv	a0,s1
   109b4:	554000ef          	jal	10f08 <_free_r>
   109b8:	0484b783          	ld	a5,72(s1)
   109bc:	00078e63          	beqz	a5,109d8 <_reclaim_reent+0xcc>
   109c0:	02013403          	ld	s0,32(sp)
   109c4:	02813083          	ld	ra,40(sp)
   109c8:	00048513          	mv	a0,s1
   109cc:	01813483          	ld	s1,24(sp)
   109d0:	03010113          	addi	sp,sp,48
   109d4:	00078067          	jr	a5
   109d8:	02813083          	ld	ra,40(sp)
   109dc:	02013403          	ld	s0,32(sp)
   109e0:	01813483          	ld	s1,24(sp)
   109e4:	03010113          	addi	sp,sp,48
   109e8:	00008067          	ret
   109ec:	00008067          	ret

00000000000109f0 <_lseek_r>:
   109f0:	fe010113          	addi	sp,sp,-32
   109f4:	00058793          	mv	a5,a1
   109f8:	00813823          	sd	s0,16(sp)
   109fc:	00913423          	sd	s1,8(sp)
   10a00:	00060593          	mv	a1,a2
   10a04:	00050493          	mv	s1,a0
   10a08:	00068613          	mv	a2,a3
   10a0c:	00078513          	mv	a0,a5
   10a10:	00113c23          	sd	ra,24(sp)
   10a14:	2401a023          	sw	zero,576(gp) # 206b8 <errno>
   10a18:	79d0a0ef          	jal	1b9b4 <_lseek>
   10a1c:	fff00793          	li	a5,-1
   10a20:	00f50c63          	beq	a0,a5,10a38 <_lseek_r+0x48>
   10a24:	01813083          	ld	ra,24(sp)
   10a28:	01013403          	ld	s0,16(sp)
   10a2c:	00813483          	ld	s1,8(sp)
   10a30:	02010113          	addi	sp,sp,32
   10a34:	00008067          	ret
   10a38:	2401a783          	lw	a5,576(gp) # 206b8 <errno>
   10a3c:	fe0784e3          	beqz	a5,10a24 <_lseek_r+0x34>
   10a40:	01813083          	ld	ra,24(sp)
   10a44:	01013403          	ld	s0,16(sp)
   10a48:	00f4a023          	sw	a5,0(s1)
   10a4c:	00813483          	ld	s1,8(sp)
   10a50:	02010113          	addi	sp,sp,32
   10a54:	00008067          	ret

0000000000010a58 <_read_r>:
   10a58:	fe010113          	addi	sp,sp,-32
   10a5c:	00058793          	mv	a5,a1
   10a60:	00813823          	sd	s0,16(sp)
   10a64:	00913423          	sd	s1,8(sp)
   10a68:	00060593          	mv	a1,a2
   10a6c:	00050493          	mv	s1,a0
   10a70:	00068613          	mv	a2,a3
   10a74:	00078513          	mv	a0,a5
   10a78:	00113c23          	sd	ra,24(sp)
   10a7c:	2401a023          	sw	zero,576(gp) # 206b8 <errno>
   10a80:	7750a0ef          	jal	1b9f4 <_read>
   10a84:	fff00793          	li	a5,-1
   10a88:	00f50c63          	beq	a0,a5,10aa0 <_read_r+0x48>
   10a8c:	01813083          	ld	ra,24(sp)
   10a90:	01013403          	ld	s0,16(sp)
   10a94:	00813483          	ld	s1,8(sp)
   10a98:	02010113          	addi	sp,sp,32
   10a9c:	00008067          	ret
   10aa0:	2401a783          	lw	a5,576(gp) # 206b8 <errno>
   10aa4:	fe0784e3          	beqz	a5,10a8c <_read_r+0x34>
   10aa8:	01813083          	ld	ra,24(sp)
   10aac:	01013403          	ld	s0,16(sp)
   10ab0:	00f4a023          	sw	a5,0(s1)
   10ab4:	00813483          	ld	s1,8(sp)
   10ab8:	02010113          	addi	sp,sp,32
   10abc:	00008067          	ret

0000000000010ac0 <_write_r>:
   10ac0:	fe010113          	addi	sp,sp,-32
   10ac4:	00058793          	mv	a5,a1
   10ac8:	00813823          	sd	s0,16(sp)
   10acc:	00913423          	sd	s1,8(sp)
   10ad0:	00060593          	mv	a1,a2
   10ad4:	00050493          	mv	s1,a0
   10ad8:	00068613          	mv	a2,a3
   10adc:	00078513          	mv	a0,a5
   10ae0:	00113c23          	sd	ra,24(sp)
   10ae4:	2401a023          	sw	zero,576(gp) # 206b8 <errno>
   10ae8:	7c50a0ef          	jal	1baac <_write>
   10aec:	fff00793          	li	a5,-1
   10af0:	00f50c63          	beq	a0,a5,10b08 <_write_r+0x48>
   10af4:	01813083          	ld	ra,24(sp)
   10af8:	01013403          	ld	s0,16(sp)
   10afc:	00813483          	ld	s1,8(sp)
   10b00:	02010113          	addi	sp,sp,32
   10b04:	00008067          	ret
   10b08:	2401a783          	lw	a5,576(gp) # 206b8 <errno>
   10b0c:	fe0784e3          	beqz	a5,10af4 <_write_r+0x34>
   10b10:	01813083          	ld	ra,24(sp)
   10b14:	01013403          	ld	s0,16(sp)
   10b18:	00f4a023          	sw	a5,0(s1)
   10b1c:	00813483          	ld	s1,8(sp)
   10b20:	02010113          	addi	sp,sp,32
   10b24:	00008067          	ret

0000000000010b28 <__libc_init_array>:
   10b28:	fe010113          	addi	sp,sp,-32
   10b2c:	00813823          	sd	s0,16(sp)
   10b30:	01213023          	sd	s2,0(sp)
   10b34:	00020437          	lui	s0,0x20
   10b38:	00020937          	lui	s2,0x20
   10b3c:	00113c23          	sd	ra,24(sp)
   10b40:	00913423          	sd	s1,8(sp)
   10b44:	ae490913          	addi	s2,s2,-1308 # 1fae4 <__preinit_array_end>
   10b48:	ae440413          	addi	s0,s0,-1308 # 1fae4 <__preinit_array_end>
   10b4c:	02890263          	beq	s2,s0,10b70 <__libc_init_array+0x48>
   10b50:	40890933          	sub	s2,s2,s0
   10b54:	40395913          	srai	s2,s2,0x3
   10b58:	00000493          	li	s1,0
   10b5c:	00043783          	ld	a5,0(s0)
   10b60:	00148493          	addi	s1,s1,1
   10b64:	00840413          	addi	s0,s0,8
   10b68:	000780e7          	jalr	a5
   10b6c:	ff24e8e3          	bltu	s1,s2,10b5c <__libc_init_array+0x34>
   10b70:	00020937          	lui	s2,0x20
   10b74:	00020437          	lui	s0,0x20
   10b78:	af890913          	addi	s2,s2,-1288 # 1faf8 <__do_global_dtors_aux_fini_array_entry>
   10b7c:	ae840413          	addi	s0,s0,-1304 # 1fae8 <__init_array_start>
   10b80:	02890263          	beq	s2,s0,10ba4 <__libc_init_array+0x7c>
   10b84:	40890933          	sub	s2,s2,s0
   10b88:	40395913          	srai	s2,s2,0x3
   10b8c:	00000493          	li	s1,0
   10b90:	00043783          	ld	a5,0(s0)
   10b94:	00148493          	addi	s1,s1,1
   10b98:	00840413          	addi	s0,s0,8
   10b9c:	000780e7          	jalr	a5
   10ba0:	ff24e8e3          	bltu	s1,s2,10b90 <__libc_init_array+0x68>
   10ba4:	01813083          	ld	ra,24(sp)
   10ba8:	01013403          	ld	s0,16(sp)
   10bac:	00813483          	ld	s1,8(sp)
   10bb0:	00013903          	ld	s2,0(sp)
   10bb4:	02010113          	addi	sp,sp,32
   10bb8:	00008067          	ret

0000000000010bbc <memset>:
   10bbc:	00f00313          	li	t1,15
   10bc0:	00050713          	mv	a4,a0
   10bc4:	02c37a63          	bgeu	t1,a2,10bf8 <memset+0x3c>
   10bc8:	00f77793          	andi	a5,a4,15
   10bcc:	0a079063          	bnez	a5,10c6c <memset+0xb0>
   10bd0:	06059e63          	bnez	a1,10c4c <memset+0x90>
   10bd4:	ff067693          	andi	a3,a2,-16
   10bd8:	00f67613          	andi	a2,a2,15
   10bdc:	00e686b3          	add	a3,a3,a4
   10be0:	00b73023          	sd	a1,0(a4)
   10be4:	00b73423          	sd	a1,8(a4)
   10be8:	01070713          	addi	a4,a4,16
   10bec:	fed76ae3          	bltu	a4,a3,10be0 <memset+0x24>
   10bf0:	00061463          	bnez	a2,10bf8 <memset+0x3c>
   10bf4:	00008067          	ret
   10bf8:	40c306b3          	sub	a3,t1,a2
   10bfc:	00269693          	slli	a3,a3,0x2
   10c00:	00000297          	auipc	t0,0x0
   10c04:	005686b3          	add	a3,a3,t0
   10c08:	00c68067          	jr	12(a3)
   10c0c:	00b70723          	sb	a1,14(a4)
   10c10:	00b706a3          	sb	a1,13(a4)
   10c14:	00b70623          	sb	a1,12(a4)
   10c18:	00b705a3          	sb	a1,11(a4)
   10c1c:	00b70523          	sb	a1,10(a4)
   10c20:	00b704a3          	sb	a1,9(a4)
   10c24:	00b70423          	sb	a1,8(a4)
   10c28:	00b703a3          	sb	a1,7(a4)
   10c2c:	00b70323          	sb	a1,6(a4)
   10c30:	00b702a3          	sb	a1,5(a4)
   10c34:	00b70223          	sb	a1,4(a4)
   10c38:	00b701a3          	sb	a1,3(a4)
   10c3c:	00b70123          	sb	a1,2(a4)
   10c40:	00b700a3          	sb	a1,1(a4)
   10c44:	00b70023          	sb	a1,0(a4)
   10c48:	00008067          	ret
   10c4c:	0ff5f593          	zext.b	a1,a1
   10c50:	00859693          	slli	a3,a1,0x8
   10c54:	00d5e5b3          	or	a1,a1,a3
   10c58:	01059693          	slli	a3,a1,0x10
   10c5c:	00d5e5b3          	or	a1,a1,a3
   10c60:	02059693          	slli	a3,a1,0x20
   10c64:	00d5e5b3          	or	a1,a1,a3
   10c68:	f6dff06f          	j	10bd4 <memset+0x18>
   10c6c:	00279693          	slli	a3,a5,0x2
   10c70:	00000297          	auipc	t0,0x0
   10c74:	005686b3          	add	a3,a3,t0
   10c78:	00008293          	mv	t0,ra
   10c7c:	f98680e7          	jalr	-104(a3)
   10c80:	00028093          	mv	ra,t0
   10c84:	ff078793          	addi	a5,a5,-16
   10c88:	40f70733          	sub	a4,a4,a5
   10c8c:	00f60633          	add	a2,a2,a5
   10c90:	f6c374e3          	bgeu	t1,a2,10bf8 <memset+0x3c>
   10c94:	f3dff06f          	j	10bd0 <memset+0x14>

0000000000010c98 <__call_exitprocs>:
   10c98:	fb010113          	addi	sp,sp,-80
   10c9c:	03413023          	sd	s4,32(sp)
   10ca0:	03213823          	sd	s2,48(sp)
   10ca4:	2481b903          	ld	s2,584(gp) # 206c0 <__atexit>
   10ca8:	04113423          	sd	ra,72(sp)
   10cac:	06090e63          	beqz	s2,10d28 <__call_exitprocs+0x90>
   10cb0:	03313423          	sd	s3,40(sp)
   10cb4:	01513c23          	sd	s5,24(sp)
   10cb8:	01613823          	sd	s6,16(sp)
   10cbc:	01713423          	sd	s7,8(sp)
   10cc0:	04813023          	sd	s0,64(sp)
   10cc4:	02913c23          	sd	s1,56(sp)
   10cc8:	01813023          	sd	s8,0(sp)
   10ccc:	00050b13          	mv	s6,a0
   10cd0:	00058b93          	mv	s7,a1
   10cd4:	fff00993          	li	s3,-1
   10cd8:	00100a93          	li	s5,1
   10cdc:	00892403          	lw	s0,8(s2)
   10ce0:	fff4041b          	addiw	s0,s0,-1
   10ce4:	02044463          	bltz	s0,10d0c <__call_exitprocs+0x74>
   10ce8:	01090493          	addi	s1,s2,16
   10cec:	00341793          	slli	a5,s0,0x3
   10cf0:	00f484b3          	add	s1,s1,a5
   10cf4:	040b8463          	beqz	s7,10d3c <__call_exitprocs+0xa4>
   10cf8:	2004b783          	ld	a5,512(s1)
   10cfc:	05778063          	beq	a5,s7,10d3c <__call_exitprocs+0xa4>
   10d00:	fff4041b          	addiw	s0,s0,-1
   10d04:	ff848493          	addi	s1,s1,-8
   10d08:	ff3418e3          	bne	s0,s3,10cf8 <__call_exitprocs+0x60>
   10d0c:	04013403          	ld	s0,64(sp)
   10d10:	03813483          	ld	s1,56(sp)
   10d14:	02813983          	ld	s3,40(sp)
   10d18:	01813a83          	ld	s5,24(sp)
   10d1c:	01013b03          	ld	s6,16(sp)
   10d20:	00813b83          	ld	s7,8(sp)
   10d24:	00013c03          	ld	s8,0(sp)
   10d28:	04813083          	ld	ra,72(sp)
   10d2c:	03013903          	ld	s2,48(sp)
   10d30:	02013a03          	ld	s4,32(sp)
   10d34:	05010113          	addi	sp,sp,80
   10d38:	00008067          	ret
   10d3c:	00892783          	lw	a5,8(s2)
   10d40:	0004b683          	ld	a3,0(s1)
   10d44:	fff7879b          	addiw	a5,a5,-1
   10d48:	06878a63          	beq	a5,s0,10dbc <__call_exitprocs+0x124>
   10d4c:	0004b023          	sd	zero,0(s1)
   10d50:	02068663          	beqz	a3,10d7c <__call_exitprocs+0xe4>
   10d54:	31092783          	lw	a5,784(s2)
   10d58:	008a973b          	sllw	a4,s5,s0
   10d5c:	00892c03          	lw	s8,8(s2)
   10d60:	00e7f7b3          	and	a5,a5,a4
   10d64:	02079463          	bnez	a5,10d8c <__call_exitprocs+0xf4>
   10d68:	000680e7          	jalr	a3
   10d6c:	00892703          	lw	a4,8(s2)
   10d70:	2481b783          	ld	a5,584(gp) # 206c0 <__atexit>
   10d74:	03871e63          	bne	a4,s8,10db0 <__call_exitprocs+0x118>
   10d78:	03279c63          	bne	a5,s2,10db0 <__call_exitprocs+0x118>
   10d7c:	fff4041b          	addiw	s0,s0,-1
   10d80:	ff848493          	addi	s1,s1,-8
   10d84:	f73418e3          	bne	s0,s3,10cf4 <__call_exitprocs+0x5c>
   10d88:	f85ff06f          	j	10d0c <__call_exitprocs+0x74>
   10d8c:	31492783          	lw	a5,788(s2)
   10d90:	1004b583          	ld	a1,256(s1)
   10d94:	00f77733          	and	a4,a4,a5
   10d98:	02071663          	bnez	a4,10dc4 <__call_exitprocs+0x12c>
   10d9c:	000b0513          	mv	a0,s6
   10da0:	000680e7          	jalr	a3
   10da4:	00892703          	lw	a4,8(s2)
   10da8:	2481b783          	ld	a5,584(gp) # 206c0 <__atexit>
   10dac:	fd8706e3          	beq	a4,s8,10d78 <__call_exitprocs+0xe0>
   10db0:	f4078ee3          	beqz	a5,10d0c <__call_exitprocs+0x74>
   10db4:	00078913          	mv	s2,a5
   10db8:	f25ff06f          	j	10cdc <__call_exitprocs+0x44>
   10dbc:	00892423          	sw	s0,8(s2)
   10dc0:	f91ff06f          	j	10d50 <__call_exitprocs+0xb8>
   10dc4:	00058513          	mv	a0,a1
   10dc8:	000680e7          	jalr	a3
   10dcc:	fa1ff06f          	j	10d6c <__call_exitprocs+0xd4>

0000000000010dd0 <atexit>:
   10dd0:	00050593          	mv	a1,a0
   10dd4:	00000693          	li	a3,0
   10dd8:	00000613          	li	a2,0
   10ddc:	00000513          	li	a0,0
   10de0:	54d0406f          	j	15b2c <__register_exitproc>

0000000000010de4 <_malloc_trim_r>:
   10de4:	fd010113          	addi	sp,sp,-48
   10de8:	01213823          	sd	s2,16(sp)
   10dec:	00020937          	lui	s2,0x20
   10df0:	02813023          	sd	s0,32(sp)
   10df4:	00913c23          	sd	s1,24(sp)
   10df8:	01313423          	sd	s3,8(sp)
   10dfc:	00058413          	mv	s0,a1
   10e00:	02113423          	sd	ra,40(sp)
   10e04:	00050993          	mv	s3,a0
   10e08:	c7090913          	addi	s2,s2,-912 # 1fc70 <__malloc_av_>
   10e0c:	4e5000ef          	jal	11af0 <__malloc_lock>
   10e10:	01093783          	ld	a5,16(s2)
   10e14:	00001737          	lui	a4,0x1
   10e18:	0087b483          	ld	s1,8(a5)
   10e1c:	ffc4f493          	andi	s1,s1,-4
   10e20:	7ff48793          	addi	a5,s1,2047
   10e24:	7e078793          	addi	a5,a5,2016
   10e28:	40878433          	sub	s0,a5,s0
   10e2c:	00c45413          	srli	s0,s0,0xc
   10e30:	fff40413          	addi	s0,s0,-1
   10e34:	00c41413          	slli	s0,s0,0xc
   10e38:	00e44e63          	blt	s0,a4,10e54 <_malloc_trim_r+0x70>
   10e3c:	00000593          	li	a1,0
   10e40:	00098513          	mv	a0,s3
   10e44:	00d040ef          	jal	15650 <_sbrk_r>
   10e48:	01093783          	ld	a5,16(s2)
   10e4c:	009787b3          	add	a5,a5,s1
   10e50:	02f50663          	beq	a0,a5,10e7c <_malloc_trim_r+0x98>
   10e54:	00098513          	mv	a0,s3
   10e58:	49d000ef          	jal	11af4 <__malloc_unlock>
   10e5c:	02813083          	ld	ra,40(sp)
   10e60:	02013403          	ld	s0,32(sp)
   10e64:	01813483          	ld	s1,24(sp)
   10e68:	01013903          	ld	s2,16(sp)
   10e6c:	00813983          	ld	s3,8(sp)
   10e70:	00000513          	li	a0,0
   10e74:	03010113          	addi	sp,sp,48
   10e78:	00008067          	ret
   10e7c:	408005b3          	neg	a1,s0
   10e80:	00098513          	mv	a0,s3
   10e84:	7cc040ef          	jal	15650 <_sbrk_r>
   10e88:	fff00793          	li	a5,-1
   10e8c:	04f50463          	beq	a0,a5,10ed4 <_malloc_trim_r+0xf0>
   10e90:	01093683          	ld	a3,16(s2)
   10e94:	4c01a783          	lw	a5,1216(gp) # 20938 <__malloc_current_mallinfo>
   10e98:	408484b3          	sub	s1,s1,s0
   10e9c:	0014e493          	ori	s1,s1,1
   10ea0:	00098513          	mv	a0,s3
   10ea4:	408787bb          	subw	a5,a5,s0
   10ea8:	0096b423          	sd	s1,8(a3)
   10eac:	4cf1a023          	sw	a5,1216(gp) # 20938 <__malloc_current_mallinfo>
   10eb0:	445000ef          	jal	11af4 <__malloc_unlock>
   10eb4:	02813083          	ld	ra,40(sp)
   10eb8:	02013403          	ld	s0,32(sp)
   10ebc:	01813483          	ld	s1,24(sp)
   10ec0:	01013903          	ld	s2,16(sp)
   10ec4:	00813983          	ld	s3,8(sp)
   10ec8:	00100513          	li	a0,1
   10ecc:	03010113          	addi	sp,sp,48
   10ed0:	00008067          	ret
   10ed4:	00000593          	li	a1,0
   10ed8:	00098513          	mv	a0,s3
   10edc:	774040ef          	jal	15650 <_sbrk_r>
   10ee0:	01093703          	ld	a4,16(s2)
   10ee4:	01f00693          	li	a3,31
   10ee8:	40e507b3          	sub	a5,a0,a4
   10eec:	f6f6d4e3          	bge	a3,a5,10e54 <_malloc_trim_r+0x70>
   10ef0:	2281b603          	ld	a2,552(gp) # 206a0 <__malloc_sbrk_base>
   10ef4:	0017e793          	ori	a5,a5,1
   10ef8:	40c50533          	sub	a0,a0,a2
   10efc:	00f73423          	sd	a5,8(a4) # 1008 <exit-0xf118>
   10f00:	4ca1a023          	sw	a0,1216(gp) # 20938 <__malloc_current_mallinfo>
   10f04:	f51ff06f          	j	10e54 <_malloc_trim_r+0x70>

0000000000010f08 <_free_r>:
   10f08:	12058863          	beqz	a1,11038 <_free_r+0x130>
   10f0c:	fe010113          	addi	sp,sp,-32
   10f10:	00813823          	sd	s0,16(sp)
   10f14:	00b13423          	sd	a1,8(sp)
   10f18:	00050413          	mv	s0,a0
   10f1c:	00113c23          	sd	ra,24(sp)
   10f20:	3d1000ef          	jal	11af0 <__malloc_lock>
   10f24:	00813583          	ld	a1,8(sp)
   10f28:	00020837          	lui	a6,0x20
   10f2c:	c7080813          	addi	a6,a6,-912 # 1fc70 <__malloc_av_>
   10f30:	ff85b503          	ld	a0,-8(a1)
   10f34:	ff058713          	addi	a4,a1,-16
   10f38:	01083883          	ld	a7,16(a6)
   10f3c:	ffe57793          	andi	a5,a0,-2
   10f40:	00f70633          	add	a2,a4,a5
   10f44:	00863683          	ld	a3,8(a2)
   10f48:	00157313          	andi	t1,a0,1
   10f4c:	ffc6f693          	andi	a3,a3,-4
   10f50:	18c88e63          	beq	a7,a2,110ec <_free_r+0x1e4>
   10f54:	00d63423          	sd	a3,8(a2)
   10f58:	00d608b3          	add	a7,a2,a3
   10f5c:	0088b883          	ld	a7,8(a7)
   10f60:	0018f893          	andi	a7,a7,1
   10f64:	08031e63          	bnez	t1,11000 <_free_r+0xf8>
   10f68:	ff05b303          	ld	t1,-16(a1)
   10f6c:	000205b7          	lui	a1,0x20
   10f70:	c8058593          	addi	a1,a1,-896 # 1fc80 <__malloc_av_+0x10>
   10f74:	40670733          	sub	a4,a4,t1
   10f78:	01073503          	ld	a0,16(a4)
   10f7c:	006787b3          	add	a5,a5,t1
   10f80:	14b50063          	beq	a0,a1,110c0 <_free_r+0x1b8>
   10f84:	01873303          	ld	t1,24(a4)
   10f88:	00653c23          	sd	t1,24(a0)
   10f8c:	00a33823          	sd	a0,16(t1)
   10f90:	1a088263          	beqz	a7,11134 <_free_r+0x22c>
   10f94:	0017e693          	ori	a3,a5,1
   10f98:	00d73423          	sd	a3,8(a4)
   10f9c:	00f63023          	sd	a5,0(a2)
   10fa0:	1ff00693          	li	a3,511
   10fa4:	0af6e663          	bltu	a3,a5,11050 <_free_r+0x148>
   10fa8:	0037d793          	srli	a5,a5,0x3
   10fac:	00179693          	slli	a3,a5,0x1
   10fb0:	0026869b          	addiw	a3,a3,2
   10fb4:	00369693          	slli	a3,a3,0x3
   10fb8:	00883503          	ld	a0,8(a6)
   10fbc:	00d806b3          	add	a3,a6,a3
   10fc0:	0006b583          	ld	a1,0(a3)
   10fc4:	4027d61b          	sraiw	a2,a5,0x2
   10fc8:	00100793          	li	a5,1
   10fcc:	00c797b3          	sll	a5,a5,a2
   10fd0:	00a7e7b3          	or	a5,a5,a0
   10fd4:	ff068613          	addi	a2,a3,-16
   10fd8:	00b73823          	sd	a1,16(a4)
   10fdc:	00c73c23          	sd	a2,24(a4)
   10fe0:	00f83423          	sd	a5,8(a6)
   10fe4:	00e6b023          	sd	a4,0(a3)
   10fe8:	00e5bc23          	sd	a4,24(a1)
   10fec:	00040513          	mv	a0,s0
   10ff0:	01013403          	ld	s0,16(sp)
   10ff4:	01813083          	ld	ra,24(sp)
   10ff8:	02010113          	addi	sp,sp,32
   10ffc:	2f90006f          	j	11af4 <__malloc_unlock>
   11000:	02089e63          	bnez	a7,1103c <_free_r+0x134>
   11004:	000205b7          	lui	a1,0x20
   11008:	00d787b3          	add	a5,a5,a3
   1100c:	c8058593          	addi	a1,a1,-896 # 1fc80 <__malloc_av_+0x10>
   11010:	01063683          	ld	a3,16(a2)
   11014:	0017e893          	ori	a7,a5,1
   11018:	00f70533          	add	a0,a4,a5
   1101c:	16b68663          	beq	a3,a1,11188 <_free_r+0x280>
   11020:	01863603          	ld	a2,24(a2)
   11024:	00c6bc23          	sd	a2,24(a3)
   11028:	00d63823          	sd	a3,16(a2)
   1102c:	01173423          	sd	a7,8(a4)
   11030:	00f53023          	sd	a5,0(a0)
   11034:	f6dff06f          	j	10fa0 <_free_r+0x98>
   11038:	00008067          	ret
   1103c:	00156513          	ori	a0,a0,1
   11040:	fea5bc23          	sd	a0,-8(a1)
   11044:	00f63023          	sd	a5,0(a2)
   11048:	1ff00693          	li	a3,511
   1104c:	f4f6fee3          	bgeu	a3,a5,10fa8 <_free_r+0xa0>
   11050:	0097d693          	srli	a3,a5,0x9
   11054:	00400613          	li	a2,4
   11058:	0ed66263          	bltu	a2,a3,1113c <_free_r+0x234>
   1105c:	0067d693          	srli	a3,a5,0x6
   11060:	00169593          	slli	a1,a3,0x1
   11064:	0725859b          	addiw	a1,a1,114
   11068:	00359593          	slli	a1,a1,0x3
   1106c:	0386861b          	addiw	a2,a3,56
   11070:	00b805b3          	add	a1,a6,a1
   11074:	0005b683          	ld	a3,0(a1)
   11078:	ff058593          	addi	a1,a1,-16
   1107c:	00d59863          	bne	a1,a3,1108c <_free_r+0x184>
   11080:	1240006f          	j	111a4 <_free_r+0x29c>
   11084:	0106b683          	ld	a3,16(a3)
   11088:	00d58863          	beq	a1,a3,11098 <_free_r+0x190>
   1108c:	0086b603          	ld	a2,8(a3)
   11090:	ffc67613          	andi	a2,a2,-4
   11094:	fec7e8e3          	bltu	a5,a2,11084 <_free_r+0x17c>
   11098:	0186b583          	ld	a1,24(a3)
   1109c:	00b73c23          	sd	a1,24(a4)
   110a0:	00d73823          	sd	a3,16(a4)
   110a4:	00040513          	mv	a0,s0
   110a8:	01013403          	ld	s0,16(sp)
   110ac:	01813083          	ld	ra,24(sp)
   110b0:	00e5b823          	sd	a4,16(a1)
   110b4:	00e6bc23          	sd	a4,24(a3)
   110b8:	02010113          	addi	sp,sp,32
   110bc:	2390006f          	j	11af4 <__malloc_unlock>
   110c0:	0a089263          	bnez	a7,11164 <_free_r+0x25c>
   110c4:	01863583          	ld	a1,24(a2)
   110c8:	01063603          	ld	a2,16(a2)
   110cc:	00f686b3          	add	a3,a3,a5
   110d0:	0016e793          	ori	a5,a3,1
   110d4:	00b63c23          	sd	a1,24(a2)
   110d8:	00c5b823          	sd	a2,16(a1)
   110dc:	00f73423          	sd	a5,8(a4)
   110e0:	00d70733          	add	a4,a4,a3
   110e4:	00d73023          	sd	a3,0(a4)
   110e8:	f05ff06f          	j	10fec <_free_r+0xe4>
   110ec:	00d786b3          	add	a3,a5,a3
   110f0:	02031063          	bnez	t1,11110 <_free_r+0x208>
   110f4:	ff05b783          	ld	a5,-16(a1)
   110f8:	40f70733          	sub	a4,a4,a5
   110fc:	01073603          	ld	a2,16(a4)
   11100:	00f686b3          	add	a3,a3,a5
   11104:	01873783          	ld	a5,24(a4)
   11108:	00f63c23          	sd	a5,24(a2)
   1110c:	00c7b823          	sd	a2,16(a5)
   11110:	0016e613          	ori	a2,a3,1
   11114:	2301b783          	ld	a5,560(gp) # 206a8 <__malloc_trim_threshold>
   11118:	00c73423          	sd	a2,8(a4)
   1111c:	00e83823          	sd	a4,16(a6)
   11120:	ecf6e6e3          	bltu	a3,a5,10fec <_free_r+0xe4>
   11124:	2601b583          	ld	a1,608(gp) # 206d8 <__malloc_top_pad>
   11128:	00040513          	mv	a0,s0
   1112c:	cb9ff0ef          	jal	10de4 <_malloc_trim_r>
   11130:	ebdff06f          	j	10fec <_free_r+0xe4>
   11134:	00d787b3          	add	a5,a5,a3
   11138:	ed9ff06f          	j	11010 <_free_r+0x108>
   1113c:	01400613          	li	a2,20
   11140:	02d67a63          	bgeu	a2,a3,11174 <_free_r+0x26c>
   11144:	05400613          	li	a2,84
   11148:	06d66c63          	bltu	a2,a3,111c0 <_free_r+0x2b8>
   1114c:	00c7d693          	srli	a3,a5,0xc
   11150:	00169593          	slli	a1,a3,0x1
   11154:	0de5859b          	addiw	a1,a1,222
   11158:	00359593          	slli	a1,a1,0x3
   1115c:	06e6861b          	addiw	a2,a3,110
   11160:	f11ff06f          	j	11070 <_free_r+0x168>
   11164:	0017e693          	ori	a3,a5,1
   11168:	00d73423          	sd	a3,8(a4)
   1116c:	00f63023          	sd	a5,0(a2)
   11170:	e7dff06f          	j	10fec <_free_r+0xe4>
   11174:	00169593          	slli	a1,a3,0x1
   11178:	0b85859b          	addiw	a1,a1,184
   1117c:	00359593          	slli	a1,a1,0x3
   11180:	05b6861b          	addiw	a2,a3,91
   11184:	eedff06f          	j	11070 <_free_r+0x168>
   11188:	02e83423          	sd	a4,40(a6)
   1118c:	02e83023          	sd	a4,32(a6)
   11190:	00b73c23          	sd	a1,24(a4)
   11194:	00b73823          	sd	a1,16(a4)
   11198:	01173423          	sd	a7,8(a4)
   1119c:	00f53023          	sd	a5,0(a0)
   111a0:	e4dff06f          	j	10fec <_free_r+0xe4>
   111a4:	00883503          	ld	a0,8(a6)
   111a8:	4026561b          	sraiw	a2,a2,0x2
   111ac:	00100793          	li	a5,1
   111b0:	00c797b3          	sll	a5,a5,a2
   111b4:	00a7e7b3          	or	a5,a5,a0
   111b8:	00f83423          	sd	a5,8(a6)
   111bc:	ee1ff06f          	j	1109c <_free_r+0x194>
   111c0:	15400613          	li	a2,340
   111c4:	00d66e63          	bltu	a2,a3,111e0 <_free_r+0x2d8>
   111c8:	00f7d693          	srli	a3,a5,0xf
   111cc:	00169593          	slli	a1,a3,0x1
   111d0:	0f05859b          	addiw	a1,a1,240
   111d4:	00359593          	slli	a1,a1,0x3
   111d8:	0776861b          	addiw	a2,a3,119
   111dc:	e95ff06f          	j	11070 <_free_r+0x168>
   111e0:	55400613          	li	a2,1364
   111e4:	00d66e63          	bltu	a2,a3,11200 <_free_r+0x2f8>
   111e8:	0127d693          	srli	a3,a5,0x12
   111ec:	00169593          	slli	a1,a3,0x1
   111f0:	0fa5859b          	addiw	a1,a1,250
   111f4:	00359593          	slli	a1,a1,0x3
   111f8:	07c6861b          	addiw	a2,a3,124
   111fc:	e75ff06f          	j	11070 <_free_r+0x168>
   11200:	7f000593          	li	a1,2032
   11204:	07e00613          	li	a2,126
   11208:	e69ff06f          	j	11070 <_free_r+0x168>

000000000001120c <_malloc_r>:
   1120c:	fa010113          	addi	sp,sp,-96
   11210:	04813823          	sd	s0,80(sp)
   11214:	04113c23          	sd	ra,88(sp)
   11218:	01758713          	addi	a4,a1,23
   1121c:	02e00793          	li	a5,46
   11220:	00050413          	mv	s0,a0
   11224:	08e7ee63          	bltu	a5,a4,112c0 <_malloc_r+0xb4>
   11228:	02000713          	li	a4,32
   1122c:	06b76c63          	bltu	a4,a1,112a4 <_malloc_r+0x98>
   11230:	0c1000ef          	jal	11af0 <__malloc_lock>
   11234:	02000713          	li	a4,32
   11238:	05000693          	li	a3,80
   1123c:	00400893          	li	a7,4
   11240:	00020837          	lui	a6,0x20
   11244:	c7080813          	addi	a6,a6,-912 # 1fc70 <__malloc_av_>
   11248:	00d806b3          	add	a3,a6,a3
   1124c:	0086b783          	ld	a5,8(a3)
   11250:	ff068613          	addi	a2,a3,-16
   11254:	48c78063          	beq	a5,a2,116d4 <_malloc_r+0x4c8>
   11258:	0087b703          	ld	a4,8(a5)
   1125c:	0187b603          	ld	a2,24(a5)
   11260:	0107b583          	ld	a1,16(a5)
   11264:	ffc77713          	andi	a4,a4,-4
   11268:	00e78733          	add	a4,a5,a4
   1126c:	00873683          	ld	a3,8(a4)
   11270:	00c5bc23          	sd	a2,24(a1)
   11274:	00b63823          	sd	a1,16(a2)
   11278:	0016e693          	ori	a3,a3,1
   1127c:	00040513          	mv	a0,s0
   11280:	00d73423          	sd	a3,8(a4)
   11284:	00f13423          	sd	a5,8(sp)
   11288:	06d000ef          	jal	11af4 <__malloc_unlock>
   1128c:	00813783          	ld	a5,8(sp)
   11290:	05813083          	ld	ra,88(sp)
   11294:	05013403          	ld	s0,80(sp)
   11298:	01078513          	addi	a0,a5,16
   1129c:	06010113          	addi	sp,sp,96
   112a0:	00008067          	ret
   112a4:	00c00793          	li	a5,12
   112a8:	00f42023          	sw	a5,0(s0)
   112ac:	00000513          	li	a0,0
   112b0:	05813083          	ld	ra,88(sp)
   112b4:	05013403          	ld	s0,80(sp)
   112b8:	06010113          	addi	sp,sp,96
   112bc:	00008067          	ret
   112c0:	00100793          	li	a5,1
   112c4:	ff077713          	andi	a4,a4,-16
   112c8:	01f79793          	slli	a5,a5,0x1f
   112cc:	fcf77ce3          	bgeu	a4,a5,112a4 <_malloc_r+0x98>
   112d0:	fcb76ae3          	bltu	a4,a1,112a4 <_malloc_r+0x98>
   112d4:	00e13423          	sd	a4,8(sp)
   112d8:	019000ef          	jal	11af0 <__malloc_lock>
   112dc:	00813703          	ld	a4,8(sp)
   112e0:	1f700793          	li	a5,503
   112e4:	4ee7fa63          	bgeu	a5,a4,117d8 <_malloc_r+0x5cc>
   112e8:	00975793          	srli	a5,a4,0x9
   112ec:	18078a63          	beqz	a5,11480 <_malloc_r+0x274>
   112f0:	00400693          	li	a3,4
   112f4:	44f6ea63          	bltu	a3,a5,11748 <_malloc_r+0x53c>
   112f8:	00675793          	srli	a5,a4,0x6
   112fc:	0397889b          	addiw	a7,a5,57
   11300:	0018951b          	slliw	a0,a7,0x1
   11304:	03878e1b          	addiw	t3,a5,56
   11308:	00351513          	slli	a0,a0,0x3
   1130c:	00020837          	lui	a6,0x20
   11310:	c7080813          	addi	a6,a6,-912 # 1fc70 <__malloc_av_>
   11314:	00a80533          	add	a0,a6,a0
   11318:	00853783          	ld	a5,8(a0)
   1131c:	ff050513          	addi	a0,a0,-16
   11320:	02f50863          	beq	a0,a5,11350 <_malloc_r+0x144>
   11324:	01f00313          	li	t1,31
   11328:	0140006f          	j	1133c <_malloc_r+0x130>
   1132c:	0187b583          	ld	a1,24(a5)
   11330:	36065263          	bgez	a2,11694 <_malloc_r+0x488>
   11334:	00b50e63          	beq	a0,a1,11350 <_malloc_r+0x144>
   11338:	00058793          	mv	a5,a1
   1133c:	0087b683          	ld	a3,8(a5)
   11340:	ffc6f693          	andi	a3,a3,-4
   11344:	40e68633          	sub	a2,a3,a4
   11348:	fec352e3          	bge	t1,a2,1132c <_malloc_r+0x120>
   1134c:	000e0893          	mv	a7,t3
   11350:	02083783          	ld	a5,32(a6)
   11354:	00020e37          	lui	t3,0x20
   11358:	c80e0e13          	addi	t3,t3,-896 # 1fc80 <__malloc_av_+0x10>
   1135c:	2fc78a63          	beq	a5,t3,11650 <_malloc_r+0x444>
   11360:	0087b303          	ld	t1,8(a5)
   11364:	01f00613          	li	a2,31
   11368:	ffc37313          	andi	t1,t1,-4
   1136c:	40e306b3          	sub	a3,t1,a4
   11370:	4ad64463          	blt	a2,a3,11818 <_malloc_r+0x60c>
   11374:	03c83423          	sd	t3,40(a6)
   11378:	03c83023          	sd	t3,32(a6)
   1137c:	4606da63          	bgez	a3,117f0 <_malloc_r+0x5e4>
   11380:	1ff00693          	li	a3,511
   11384:	00883583          	ld	a1,8(a6)
   11388:	3466ee63          	bltu	a3,t1,116e4 <_malloc_r+0x4d8>
   1138c:	00335313          	srli	t1,t1,0x3
   11390:	00131693          	slli	a3,t1,0x1
   11394:	0026869b          	addiw	a3,a3,2
   11398:	00369693          	slli	a3,a3,0x3
   1139c:	00d806b3          	add	a3,a6,a3
   113a0:	0006b503          	ld	a0,0(a3)
   113a4:	4023531b          	sraiw	t1,t1,0x2
   113a8:	00100613          	li	a2,1
   113ac:	00661633          	sll	a2,a2,t1
   113b0:	00c5e5b3          	or	a1,a1,a2
   113b4:	ff068613          	addi	a2,a3,-16
   113b8:	00a7b823          	sd	a0,16(a5)
   113bc:	00c7bc23          	sd	a2,24(a5)
   113c0:	00b83423          	sd	a1,8(a6)
   113c4:	00f6b023          	sd	a5,0(a3)
   113c8:	00f53c23          	sd	a5,24(a0)
   113cc:	4028d79b          	sraiw	a5,a7,0x2
   113d0:	00100513          	li	a0,1
   113d4:	00f51533          	sll	a0,a0,a5
   113d8:	0aa5ec63          	bltu	a1,a0,11490 <_malloc_r+0x284>
   113dc:	00b577b3          	and	a5,a0,a1
   113e0:	02079463          	bnez	a5,11408 <_malloc_r+0x1fc>
   113e4:	00151513          	slli	a0,a0,0x1
   113e8:	ffc8f893          	andi	a7,a7,-4
   113ec:	00b577b3          	and	a5,a0,a1
   113f0:	0048889b          	addiw	a7,a7,4
   113f4:	00079a63          	bnez	a5,11408 <_malloc_r+0x1fc>
   113f8:	00151513          	slli	a0,a0,0x1
   113fc:	00b577b3          	and	a5,a0,a1
   11400:	0048889b          	addiw	a7,a7,4
   11404:	fe078ae3          	beqz	a5,113f8 <_malloc_r+0x1ec>
   11408:	01f00e93          	li	t4,31
   1140c:	00189f13          	slli	t5,a7,0x1
   11410:	002f0f1b          	addiw	t5,t5,2
   11414:	003f1f13          	slli	t5,t5,0x3
   11418:	ff0f0f13          	addi	t5,t5,-16
   1141c:	01e80f33          	add	t5,a6,t5
   11420:	000f0313          	mv	t1,t5
   11424:	01833683          	ld	a3,24(t1)
   11428:	00088f93          	mv	t6,a7
   1142c:	34d30263          	beq	t1,a3,11770 <_malloc_r+0x564>
   11430:	0086b603          	ld	a2,8(a3)
   11434:	00068793          	mv	a5,a3
   11438:	0186b683          	ld	a3,24(a3)
   1143c:	ffc67613          	andi	a2,a2,-4
   11440:	40e605b3          	sub	a1,a2,a4
   11444:	34bec263          	blt	t4,a1,11788 <_malloc_r+0x57c>
   11448:	fe05c2e3          	bltz	a1,1142c <_malloc_r+0x220>
   1144c:	00c78633          	add	a2,a5,a2
   11450:	00863703          	ld	a4,8(a2)
   11454:	0107b583          	ld	a1,16(a5)
   11458:	00040513          	mv	a0,s0
   1145c:	00176713          	ori	a4,a4,1
   11460:	00e63423          	sd	a4,8(a2)
   11464:	00d5bc23          	sd	a3,24(a1)
   11468:	00b6b823          	sd	a1,16(a3)
   1146c:	00f13423          	sd	a5,8(sp)
   11470:	684000ef          	jal	11af4 <__malloc_unlock>
   11474:	00813783          	ld	a5,8(sp)
   11478:	01078513          	addi	a0,a5,16
   1147c:	e35ff06f          	j	112b0 <_malloc_r+0xa4>
   11480:	40000513          	li	a0,1024
   11484:	04000893          	li	a7,64
   11488:	03f00e13          	li	t3,63
   1148c:	e81ff06f          	j	1130c <_malloc_r+0x100>
   11490:	01083783          	ld	a5,16(a6)
   11494:	0087b683          	ld	a3,8(a5)
   11498:	ffc6f893          	andi	a7,a3,-4
   1149c:	40e88633          	sub	a2,a7,a4
   114a0:	00e8e663          	bltu	a7,a4,114ac <_malloc_r+0x2a0>
   114a4:	02062693          	slti	a3,a2,32
   114a8:	1a068863          	beqz	a3,11658 <_malloc_r+0x44c>
   114ac:	2601b583          	ld	a1,608(gp) # 206d8 <__malloc_top_pad>
   114b0:	2281b603          	ld	a2,552(gp) # 206a0 <__malloc_sbrk_base>
   114b4:	fff00693          	li	a3,-1
   114b8:	00b705b3          	add	a1,a4,a1
   114bc:	44d60663          	beq	a2,a3,11908 <_malloc_r+0x6fc>
   114c0:	000016b7          	lui	a3,0x1
   114c4:	01f68693          	addi	a3,a3,31 # 101f <exit-0xf101>
   114c8:	00d585b3          	add	a1,a1,a3
   114cc:	fffff6b7          	lui	a3,0xfffff
   114d0:	00d5f5b3          	and	a1,a1,a3
   114d4:	00040513          	mv	a0,s0
   114d8:	03013423          	sd	a6,40(sp)
   114dc:	02f13023          	sd	a5,32(sp)
   114e0:	00e13c23          	sd	a4,24(sp)
   114e4:	01113823          	sd	a7,16(sp)
   114e8:	00b13423          	sd	a1,8(sp)
   114ec:	164040ef          	jal	15650 <_sbrk_r>
   114f0:	fff00693          	li	a3,-1
   114f4:	00813583          	ld	a1,8(sp)
   114f8:	01013883          	ld	a7,16(sp)
   114fc:	01813703          	ld	a4,24(sp)
   11500:	02013783          	ld	a5,32(sp)
   11504:	02813803          	ld	a6,40(sp)
   11508:	00050313          	mv	t1,a0
   1150c:	36d50663          	beq	a0,a3,11878 <_malloc_r+0x66c>
   11510:	011786b3          	add	a3,a5,a7
   11514:	36d56063          	bltu	a0,a3,11874 <_malloc_r+0x668>
   11518:	4c018e13          	addi	t3,gp,1216 # 20938 <__malloc_current_mallinfo>
   1151c:	000e2603          	lw	a2,0(t3)
   11520:	00b6063b          	addw	a2,a2,a1
   11524:	00ce2023          	sw	a2,0(t3)
   11528:	00060513          	mv	a0,a2
   1152c:	4a668c63          	beq	a3,t1,119e4 <_malloc_r+0x7d8>
   11530:	2281bf03          	ld	t5,552(gp) # 206a0 <__malloc_sbrk_base>
   11534:	fff00613          	li	a2,-1
   11538:	4ccf0463          	beq	t5,a2,11a00 <_malloc_r+0x7f4>
   1153c:	40d306b3          	sub	a3,t1,a3
   11540:	00a686bb          	addw	a3,a3,a0
   11544:	00de2023          	sw	a3,0(t3)
   11548:	00f37e93          	andi	t4,t1,15
   1154c:	3c0e8e63          	beqz	t4,11928 <_malloc_r+0x71c>
   11550:	ff037313          	andi	t1,t1,-16
   11554:	000016b7          	lui	a3,0x1
   11558:	01030313          	addi	t1,t1,16
   1155c:	01068693          	addi	a3,a3,16 # 1010 <exit-0xf110>
   11560:	00b30633          	add	a2,t1,a1
   11564:	41d685b3          	sub	a1,a3,t4
   11568:	40c585b3          	sub	a1,a1,a2
   1156c:	03459593          	slli	a1,a1,0x34
   11570:	0345d593          	srli	a1,a1,0x34
   11574:	00040513          	mv	a0,s0
   11578:	05c13023          	sd	t3,64(sp)
   1157c:	03013c23          	sd	a6,56(sp)
   11580:	02f13823          	sd	a5,48(sp)
   11584:	02e13423          	sd	a4,40(sp)
   11588:	03113023          	sd	a7,32(sp)
   1158c:	00613c23          	sd	t1,24(sp)
   11590:	01d13823          	sd	t4,16(sp)
   11594:	00c13423          	sd	a2,8(sp)
   11598:	04b13423          	sd	a1,72(sp)
   1159c:	0b4040ef          	jal	15650 <_sbrk_r>
   115a0:	00050693          	mv	a3,a0
   115a4:	fff00513          	li	a0,-1
   115a8:	00813603          	ld	a2,8(sp)
   115ac:	01013e83          	ld	t4,16(sp)
   115b0:	01813303          	ld	t1,24(sp)
   115b4:	02013883          	ld	a7,32(sp)
   115b8:	02813703          	ld	a4,40(sp)
   115bc:	03013783          	ld	a5,48(sp)
   115c0:	03813803          	ld	a6,56(sp)
   115c4:	04013e03          	ld	t3,64(sp)
   115c8:	48a68663          	beq	a3,a0,11a54 <_malloc_r+0x848>
   115cc:	04813583          	ld	a1,72(sp)
   115d0:	0005851b          	sext.w	a0,a1
   115d4:	000e2603          	lw	a2,0(t3)
   115d8:	406686b3          	sub	a3,a3,t1
   115dc:	00b686b3          	add	a3,a3,a1
   115e0:	0016e693          	ori	a3,a3,1
   115e4:	00683823          	sd	t1,16(a6)
   115e8:	00a6063b          	addw	a2,a2,a0
   115ec:	00d33423          	sd	a3,8(t1)
   115f0:	00ce2023          	sw	a2,0(t3)
   115f4:	03078e63          	beq	a5,a6,11630 <_malloc_r+0x424>
   115f8:	01f00513          	li	a0,31
   115fc:	41157663          	bgeu	a0,a7,11a08 <_malloc_r+0x7fc>
   11600:	0087b583          	ld	a1,8(a5)
   11604:	fe888693          	addi	a3,a7,-24
   11608:	ff06f693          	andi	a3,a3,-16
   1160c:	0015f593          	andi	a1,a1,1
   11610:	00d5e5b3          	or	a1,a1,a3
   11614:	00b7b423          	sd	a1,8(a5)
   11618:	00900893          	li	a7,9
   1161c:	00d785b3          	add	a1,a5,a3
   11620:	0115b423          	sd	a7,8(a1)
   11624:	0115b823          	sd	a7,16(a1)
   11628:	44d56863          	bltu	a0,a3,11a78 <_malloc_r+0x86c>
   1162c:	00833683          	ld	a3,8(t1)
   11630:	2581b583          	ld	a1,600(gp) # 206d0 <__malloc_max_sbrked_mem>
   11634:	00c5f463          	bgeu	a1,a2,1163c <_malloc_r+0x430>
   11638:	24c1bc23          	sd	a2,600(gp) # 206d0 <__malloc_max_sbrked_mem>
   1163c:	2501b583          	ld	a1,592(gp) # 206c8 <__malloc_max_total_mem>
   11640:	00c5f463          	bgeu	a1,a2,11648 <_malloc_r+0x43c>
   11644:	24c1b823          	sd	a2,592(gp) # 206c8 <__malloc_max_total_mem>
   11648:	00030793          	mv	a5,t1
   1164c:	2340006f          	j	11880 <_malloc_r+0x674>
   11650:	00883583          	ld	a1,8(a6)
   11654:	d79ff06f          	j	113cc <_malloc_r+0x1c0>
   11658:	00176693          	ori	a3,a4,1
   1165c:	00d7b423          	sd	a3,8(a5)
   11660:	00e78733          	add	a4,a5,a4
   11664:	00166613          	ori	a2,a2,1
   11668:	00e83823          	sd	a4,16(a6)
   1166c:	00040513          	mv	a0,s0
   11670:	00c73423          	sd	a2,8(a4)
   11674:	00f13423          	sd	a5,8(sp)
   11678:	47c000ef          	jal	11af4 <__malloc_unlock>
   1167c:	00813783          	ld	a5,8(sp)
   11680:	05813083          	ld	ra,88(sp)
   11684:	05013403          	ld	s0,80(sp)
   11688:	01078513          	addi	a0,a5,16
   1168c:	06010113          	addi	sp,sp,96
   11690:	00008067          	ret
   11694:	0107b603          	ld	a2,16(a5)
   11698:	00d786b3          	add	a3,a5,a3
   1169c:	0086b703          	ld	a4,8(a3)
   116a0:	00b63c23          	sd	a1,24(a2)
   116a4:	00c5b823          	sd	a2,16(a1)
   116a8:	00176713          	ori	a4,a4,1
   116ac:	00040513          	mv	a0,s0
   116b0:	00e6b423          	sd	a4,8(a3)
   116b4:	00f13423          	sd	a5,8(sp)
   116b8:	43c000ef          	jal	11af4 <__malloc_unlock>
   116bc:	00813783          	ld	a5,8(sp)
   116c0:	05813083          	ld	ra,88(sp)
   116c4:	05013403          	ld	s0,80(sp)
   116c8:	01078513          	addi	a0,a5,16
   116cc:	06010113          	addi	sp,sp,96
   116d0:	00008067          	ret
   116d4:	0186b783          	ld	a5,24(a3)
   116d8:	0028889b          	addiw	a7,a7,2
   116dc:	c6f68ae3          	beq	a3,a5,11350 <_malloc_r+0x144>
   116e0:	b79ff06f          	j	11258 <_malloc_r+0x4c>
   116e4:	00935693          	srli	a3,t1,0x9
   116e8:	00400613          	li	a2,4
   116ec:	16d67863          	bgeu	a2,a3,1185c <_malloc_r+0x650>
   116f0:	01400613          	li	a2,20
   116f4:	28d66e63          	bltu	a2,a3,11990 <_malloc_r+0x784>
   116f8:	00169513          	slli	a0,a3,0x1
   116fc:	0b85051b          	addiw	a0,a0,184
   11700:	00351513          	slli	a0,a0,0x3
   11704:	05b6861b          	addiw	a2,a3,91
   11708:	00a80533          	add	a0,a6,a0
   1170c:	00053683          	ld	a3,0(a0)
   11710:	ff050513          	addi	a0,a0,-16
   11714:	00d51863          	bne	a0,a3,11724 <_malloc_r+0x518>
   11718:	1f80006f          	j	11910 <_malloc_r+0x704>
   1171c:	0106b683          	ld	a3,16(a3)
   11720:	00d50863          	beq	a0,a3,11730 <_malloc_r+0x524>
   11724:	0086b603          	ld	a2,8(a3)
   11728:	ffc67613          	andi	a2,a2,-4
   1172c:	fec368e3          	bltu	t1,a2,1171c <_malloc_r+0x510>
   11730:	0186b503          	ld	a0,24(a3)
   11734:	00a7bc23          	sd	a0,24(a5)
   11738:	00d7b823          	sd	a3,16(a5)
   1173c:	00f53823          	sd	a5,16(a0)
   11740:	00f6bc23          	sd	a5,24(a3)
   11744:	c89ff06f          	j	113cc <_malloc_r+0x1c0>
   11748:	01400693          	li	a3,20
   1174c:	14f6fa63          	bgeu	a3,a5,118a0 <_malloc_r+0x694>
   11750:	05400693          	li	a3,84
   11754:	24f6ee63          	bltu	a3,a5,119b0 <_malloc_r+0x7a4>
   11758:	00c75793          	srli	a5,a4,0xc
   1175c:	06f7889b          	addiw	a7,a5,111
   11760:	0018951b          	slliw	a0,a7,0x1
   11764:	06e78e1b          	addiw	t3,a5,110
   11768:	00351513          	slli	a0,a0,0x3
   1176c:	ba1ff06f          	j	1130c <_malloc_r+0x100>
   11770:	001f8f9b          	addiw	t6,t6,1
   11774:	003ff793          	andi	a5,t6,3
   11778:	01030313          	addi	t1,t1,16
   1177c:	14078263          	beqz	a5,118c0 <_malloc_r+0x6b4>
   11780:	01833683          	ld	a3,24(t1)
   11784:	ca9ff06f          	j	1142c <_malloc_r+0x220>
   11788:	0107b503          	ld	a0,16(a5)
   1178c:	00176893          	ori	a7,a4,1
   11790:	0117b423          	sd	a7,8(a5)
   11794:	00d53c23          	sd	a3,24(a0)
   11798:	00a6b823          	sd	a0,16(a3)
   1179c:	00e78733          	add	a4,a5,a4
   117a0:	02e83423          	sd	a4,40(a6)
   117a4:	02e83023          	sd	a4,32(a6)
   117a8:	0015e693          	ori	a3,a1,1
   117ac:	00c78633          	add	a2,a5,a2
   117b0:	01c73c23          	sd	t3,24(a4)
   117b4:	01c73823          	sd	t3,16(a4)
   117b8:	00d73423          	sd	a3,8(a4)
   117bc:	00040513          	mv	a0,s0
   117c0:	00b63023          	sd	a1,0(a2)
   117c4:	00f13423          	sd	a5,8(sp)
   117c8:	32c000ef          	jal	11af4 <__malloc_unlock>
   117cc:	00813783          	ld	a5,8(sp)
   117d0:	01078513          	addi	a0,a5,16
   117d4:	addff06f          	j	112b0 <_malloc_r+0xa4>
   117d8:	00375893          	srli	a7,a4,0x3
   117dc:	00189693          	slli	a3,a7,0x1
   117e0:	0026869b          	addiw	a3,a3,2
   117e4:	00369693          	slli	a3,a3,0x3
   117e8:	0008889b          	sext.w	a7,a7
   117ec:	a55ff06f          	j	11240 <_malloc_r+0x34>
   117f0:	00678333          	add	t1,a5,t1
   117f4:	00833703          	ld	a4,8(t1)
   117f8:	00040513          	mv	a0,s0
   117fc:	00f13423          	sd	a5,8(sp)
   11800:	00176713          	ori	a4,a4,1
   11804:	00e33423          	sd	a4,8(t1)
   11808:	2ec000ef          	jal	11af4 <__malloc_unlock>
   1180c:	00813783          	ld	a5,8(sp)
   11810:	01078513          	addi	a0,a5,16
   11814:	a9dff06f          	j	112b0 <_malloc_r+0xa4>
   11818:	00176613          	ori	a2,a4,1
   1181c:	00c7b423          	sd	a2,8(a5)
   11820:	00e78733          	add	a4,a5,a4
   11824:	02e83423          	sd	a4,40(a6)
   11828:	02e83023          	sd	a4,32(a6)
   1182c:	0016e613          	ori	a2,a3,1
   11830:	00678333          	add	t1,a5,t1
   11834:	01c73c23          	sd	t3,24(a4)
   11838:	01c73823          	sd	t3,16(a4)
   1183c:	00c73423          	sd	a2,8(a4)
   11840:	00040513          	mv	a0,s0
   11844:	00d33023          	sd	a3,0(t1)
   11848:	00f13423          	sd	a5,8(sp)
   1184c:	2a8000ef          	jal	11af4 <__malloc_unlock>
   11850:	00813783          	ld	a5,8(sp)
   11854:	01078513          	addi	a0,a5,16
   11858:	a59ff06f          	j	112b0 <_malloc_r+0xa4>
   1185c:	00635693          	srli	a3,t1,0x6
   11860:	00169513          	slli	a0,a3,0x1
   11864:	0725051b          	addiw	a0,a0,114
   11868:	00351513          	slli	a0,a0,0x3
   1186c:	0386861b          	addiw	a2,a3,56
   11870:	e99ff06f          	j	11708 <_malloc_r+0x4fc>
   11874:	15078e63          	beq	a5,a6,119d0 <_malloc_r+0x7c4>
   11878:	01083783          	ld	a5,16(a6)
   1187c:	0087b683          	ld	a3,8(a5)
   11880:	ffc6f693          	andi	a3,a3,-4
   11884:	40e68633          	sub	a2,a3,a4
   11888:	00e6e663          	bltu	a3,a4,11894 <_malloc_r+0x688>
   1188c:	02062693          	slti	a3,a2,32
   11890:	dc0684e3          	beqz	a3,11658 <_malloc_r+0x44c>
   11894:	00040513          	mv	a0,s0
   11898:	25c000ef          	jal	11af4 <__malloc_unlock>
   1189c:	a11ff06f          	j	112ac <_malloc_r+0xa0>
   118a0:	05c7889b          	addiw	a7,a5,92
   118a4:	0018951b          	slliw	a0,a7,0x1
   118a8:	05b78e1b          	addiw	t3,a5,91
   118ac:	00351513          	slli	a0,a0,0x3
   118b0:	a5dff06f          	j	1130c <_malloc_r+0x100>
   118b4:	010f3783          	ld	a5,16(t5)
   118b8:	fff8889b          	addiw	a7,a7,-1
   118bc:	23e79663          	bne	a5,t5,11ae8 <_malloc_r+0x8dc>
   118c0:	0038f793          	andi	a5,a7,3
   118c4:	ff0f0f13          	addi	t5,t5,-16
   118c8:	fe0796e3          	bnez	a5,118b4 <_malloc_r+0x6a8>
   118cc:	00883683          	ld	a3,8(a6)
   118d0:	fff54793          	not	a5,a0
   118d4:	00d7f7b3          	and	a5,a5,a3
   118d8:	00f83423          	sd	a5,8(a6)
   118dc:	00151513          	slli	a0,a0,0x1
   118e0:	fff50693          	addi	a3,a0,-1
   118e4:	baf6f6e3          	bgeu	a3,a5,11490 <_malloc_r+0x284>
   118e8:	00f576b3          	and	a3,a0,a5
   118ec:	00069a63          	bnez	a3,11900 <_malloc_r+0x6f4>
   118f0:	00151513          	slli	a0,a0,0x1
   118f4:	00f576b3          	and	a3,a0,a5
   118f8:	004f8f9b          	addiw	t6,t6,4
   118fc:	fe068ae3          	beqz	a3,118f0 <_malloc_r+0x6e4>
   11900:	000f8893          	mv	a7,t6
   11904:	b09ff06f          	j	1140c <_malloc_r+0x200>
   11908:	02058593          	addi	a1,a1,32
   1190c:	bc9ff06f          	j	114d4 <_malloc_r+0x2c8>
   11910:	4026561b          	sraiw	a2,a2,0x2
   11914:	00100313          	li	t1,1
   11918:	00c31633          	sll	a2,t1,a2
   1191c:	00c5e5b3          	or	a1,a1,a2
   11920:	00b83423          	sd	a1,8(a6)
   11924:	e11ff06f          	j	11734 <_malloc_r+0x528>
   11928:	00b30633          	add	a2,t1,a1
   1192c:	40c005b3          	neg	a1,a2
   11930:	03459593          	slli	a1,a1,0x34
   11934:	0345d593          	srli	a1,a1,0x34
   11938:	00040513          	mv	a0,s0
   1193c:	03c13c23          	sd	t3,56(sp)
   11940:	03013823          	sd	a6,48(sp)
   11944:	02f13423          	sd	a5,40(sp)
   11948:	02e13023          	sd	a4,32(sp)
   1194c:	01113c23          	sd	a7,24(sp)
   11950:	00613823          	sd	t1,16(sp)
   11954:	00c13423          	sd	a2,8(sp)
   11958:	04b13023          	sd	a1,64(sp)
   1195c:	4f5030ef          	jal	15650 <_sbrk_r>
   11960:	00050693          	mv	a3,a0
   11964:	fff00513          	li	a0,-1
   11968:	01013303          	ld	t1,16(sp)
   1196c:	01813883          	ld	a7,24(sp)
   11970:	02013703          	ld	a4,32(sp)
   11974:	02813783          	ld	a5,40(sp)
   11978:	03013803          	ld	a6,48(sp)
   1197c:	03813e03          	ld	t3,56(sp)
   11980:	0ea68463          	beq	a3,a0,11a68 <_malloc_r+0x85c>
   11984:	04013583          	ld	a1,64(sp)
   11988:	0005851b          	sext.w	a0,a1
   1198c:	c49ff06f          	j	115d4 <_malloc_r+0x3c8>
   11990:	05400613          	li	a2,84
   11994:	08d66063          	bltu	a2,a3,11a14 <_malloc_r+0x808>
   11998:	00c35693          	srli	a3,t1,0xc
   1199c:	00169513          	slli	a0,a3,0x1
   119a0:	0de5051b          	addiw	a0,a0,222
   119a4:	00351513          	slli	a0,a0,0x3
   119a8:	06e6861b          	addiw	a2,a3,110
   119ac:	d5dff06f          	j	11708 <_malloc_r+0x4fc>
   119b0:	15400693          	li	a3,340
   119b4:	08f6e063          	bltu	a3,a5,11a34 <_malloc_r+0x828>
   119b8:	00f75793          	srli	a5,a4,0xf
   119bc:	0787889b          	addiw	a7,a5,120
   119c0:	0018951b          	slliw	a0,a7,0x1
   119c4:	07778e1b          	addiw	t3,a5,119
   119c8:	00351513          	slli	a0,a0,0x3
   119cc:	941ff06f          	j	1130c <_malloc_r+0x100>
   119d0:	4c018e13          	addi	t3,gp,1216 # 20938 <__malloc_current_mallinfo>
   119d4:	000e2503          	lw	a0,0(t3)
   119d8:	00b5053b          	addw	a0,a0,a1
   119dc:	00ae2023          	sw	a0,0(t3)
   119e0:	b51ff06f          	j	11530 <_malloc_r+0x324>
   119e4:	03431f13          	slli	t5,t1,0x34
   119e8:	b40f14e3          	bnez	t5,11530 <_malloc_r+0x324>
   119ec:	01083303          	ld	t1,16(a6)
   119f0:	00b885b3          	add	a1,a7,a1
   119f4:	0015e693          	ori	a3,a1,1
   119f8:	00d33423          	sd	a3,8(t1)
   119fc:	c35ff06f          	j	11630 <_malloc_r+0x424>
   11a00:	2261b423          	sd	t1,552(gp) # 206a0 <__malloc_sbrk_base>
   11a04:	b45ff06f          	j	11548 <_malloc_r+0x33c>
   11a08:	00100793          	li	a5,1
   11a0c:	00f33423          	sd	a5,8(t1)
   11a10:	e85ff06f          	j	11894 <_malloc_r+0x688>
   11a14:	15400613          	li	a2,340
   11a18:	08d66a63          	bltu	a2,a3,11aac <_malloc_r+0x8a0>
   11a1c:	00f35693          	srli	a3,t1,0xf
   11a20:	00169513          	slli	a0,a3,0x1
   11a24:	0f05051b          	addiw	a0,a0,240
   11a28:	00351513          	slli	a0,a0,0x3
   11a2c:	0776861b          	addiw	a2,a3,119
   11a30:	cd9ff06f          	j	11708 <_malloc_r+0x4fc>
   11a34:	55400693          	li	a3,1364
   11a38:	08f6ea63          	bltu	a3,a5,11acc <_malloc_r+0x8c0>
   11a3c:	01275793          	srli	a5,a4,0x12
   11a40:	07d7889b          	addiw	a7,a5,125
   11a44:	0018951b          	slliw	a0,a7,0x1
   11a48:	07c78e1b          	addiw	t3,a5,124
   11a4c:	00351513          	slli	a0,a0,0x3
   11a50:	8bdff06f          	j	1130c <_malloc_r+0x100>
   11a54:	ff0e8e93          	addi	t4,t4,-16
   11a58:	01d606b3          	add	a3,a2,t4
   11a5c:	00000513          	li	a0,0
   11a60:	00000593          	li	a1,0
   11a64:	b71ff06f          	j	115d4 <_malloc_r+0x3c8>
   11a68:	00813683          	ld	a3,8(sp)
   11a6c:	00000593          	li	a1,0
   11a70:	00000513          	li	a0,0
   11a74:	b61ff06f          	j	115d4 <_malloc_r+0x3c8>
   11a78:	01078593          	addi	a1,a5,16
   11a7c:	00040513          	mv	a0,s0
   11a80:	01c13c23          	sd	t3,24(sp)
   11a84:	01013823          	sd	a6,16(sp)
   11a88:	00e13423          	sd	a4,8(sp)
   11a8c:	c7cff0ef          	jal	10f08 <_free_r>
   11a90:	01013803          	ld	a6,16(sp)
   11a94:	01813e03          	ld	t3,24(sp)
   11a98:	00813703          	ld	a4,8(sp)
   11a9c:	01083303          	ld	t1,16(a6)
   11aa0:	000e2603          	lw	a2,0(t3)
   11aa4:	00833683          	ld	a3,8(t1)
   11aa8:	b89ff06f          	j	11630 <_malloc_r+0x424>
   11aac:	55400613          	li	a2,1364
   11ab0:	02d66663          	bltu	a2,a3,11adc <_malloc_r+0x8d0>
   11ab4:	01235693          	srli	a3,t1,0x12
   11ab8:	00169513          	slli	a0,a3,0x1
   11abc:	0fa5051b          	addiw	a0,a0,250
   11ac0:	00351513          	slli	a0,a0,0x3
   11ac4:	07c6861b          	addiw	a2,a3,124
   11ac8:	c41ff06f          	j	11708 <_malloc_r+0x4fc>
   11acc:	7f000513          	li	a0,2032
   11ad0:	07f00893          	li	a7,127
   11ad4:	07e00e13          	li	t3,126
   11ad8:	835ff06f          	j	1130c <_malloc_r+0x100>
   11adc:	7f000513          	li	a0,2032
   11ae0:	07e00613          	li	a2,126
   11ae4:	c25ff06f          	j	11708 <_malloc_r+0x4fc>
   11ae8:	00883783          	ld	a5,8(a6)
   11aec:	df1ff06f          	j	118dc <_malloc_r+0x6d0>

0000000000011af0 <__malloc_lock>:
   11af0:	00008067          	ret

0000000000011af4 <__malloc_unlock>:
   11af4:	00008067          	ret

0000000000011af8 <_vfprintf_r>:
   11af8:	db010113          	addi	sp,sp,-592
   11afc:	24113423          	sd	ra,584(sp)
   11b00:	24813023          	sd	s0,576(sp)
   11b04:	22913c23          	sd	s1,568(sp)
   11b08:	21613823          	sd	s6,528(sp)
   11b0c:	00d13c23          	sd	a3,24(sp)
   11b10:	00060b13          	mv	s6,a2
   11b14:	00058493          	mv	s1,a1
   11b18:	00050413          	mv	s0,a0
   11b1c:	00a13023          	sd	a0,0(sp)
   11b20:	321030ef          	jal	15640 <_localeconv_r>
   11b24:	00053703          	ld	a4,0(a0)
   11b28:	00070513          	mv	a0,a4
   11b2c:	04e13823          	sd	a4,80(sp)
   11b30:	629030ef          	jal	15958 <strlen>
   11b34:	04a13423          	sd	a0,72(sp)
   11b38:	0c013823          	sd	zero,208(sp)
   11b3c:	0c013c23          	sd	zero,216(sp)
   11b40:	00040863          	beqz	s0,11b50 <_vfprintf_r+0x58>
   11b44:	04843783          	ld	a5,72(s0)
   11b48:	00079463          	bnez	a5,11b50 <_vfprintf_r+0x58>
   11b4c:	4450106f          	j	13790 <_vfprintf_r+0x1c98>
   11b50:	01049783          	lh	a5,16(s1)
   11b54:	0ac4a703          	lw	a4,172(s1)
   11b58:	00002637          	lui	a2,0x2
   11b5c:	03279693          	slli	a3,a5,0x32
   11b60:	3606c263          	bltz	a3,11ec4 <_vfprintf_r+0x3cc>
   11b64:	ffffe6b7          	lui	a3,0xffffe
   11b68:	00c7e7b3          	or	a5,a5,a2
   11b6c:	fff68693          	addi	a3,a3,-1 # ffffffffffffdfff <__BSS_END__+0xfffffffffffdd387>
   11b70:	00d77733          	and	a4,a4,a3
   11b74:	00f49823          	sh	a5,16(s1)
   11b78:	0107979b          	slliw	a5,a5,0x10
   11b7c:	4107d79b          	sraiw	a5,a5,0x10
   11b80:	0ae4a623          	sw	a4,172(s1)
   11b84:	0087f713          	andi	a4,a5,8
   11b88:	2c070c63          	beqz	a4,11e60 <_vfprintf_r+0x368>
   11b8c:	0184b703          	ld	a4,24(s1)
   11b90:	2c070863          	beqz	a4,11e60 <_vfprintf_r+0x368>
   11b94:	01a7f793          	andi	a5,a5,26
   11b98:	00a00713          	li	a4,10
   11b9c:	2ee78263          	beq	a5,a4,11e80 <_vfprintf_r+0x388>
   11ba0:	0001e7b7          	lui	a5,0x1e
   11ba4:	23313423          	sd	s3,552(sp)
   11ba8:	23413023          	sd	s4,544(sp)
   11bac:	16010993          	addi	s3,sp,352
   11bb0:	0001ea37          	lui	s4,0x1e
   11bb4:	42878793          	addi	a5,a5,1064 # 1e428 <__clzdi2+0x1dc>
   11bb8:	21713423          	sd	s7,520(sp)
   11bbc:	1f913c23          	sd	s9,504(sp)
   11bc0:	23213823          	sd	s2,560(sp)
   11bc4:	21513c23          	sd	s5,536(sp)
   11bc8:	21813023          	sd	s8,512(sp)
   11bcc:	1fa13823          	sd	s10,496(sp)
   11bd0:	1fb13423          	sd	s11,488(sp)
   11bd4:	0e013823          	sd	zero,240(sp)
   11bd8:	0e012423          	sw	zero,232(sp)
   11bdc:	0f313023          	sd	s3,224(sp)
   11be0:	00098b93          	mv	s7,s3
   11be4:	02f13423          	sd	a5,40(sp)
   11be8:	598a0a13          	addi	s4,s4,1432 # 1e598 <zeroes.0>
   11bec:	02013823          	sd	zero,48(sp)
   11bf0:	04013c23          	sd	zero,88(sp)
   11bf4:	06013423          	sd	zero,104(sp)
   11bf8:	08013023          	sd	zero,128(sp)
   11bfc:	06013023          	sd	zero,96(sp)
   11c00:	00013823          	sd	zero,16(sp)
   11c04:	01000413          	li	s0,16
   11c08:	000b0c93          	mv	s9,s6
   11c0c:	00913423          	sd	s1,8(sp)
   11c10:	000cc703          	lbu	a4,0(s9)
   11c14:	000c8913          	mv	s2,s9
   11c18:	fdb70793          	addi	a5,a4,-37
   11c1c:	0007069b          	sext.w	a3,a4
   11c20:	06078463          	beqz	a5,11c88 <_vfprintf_r+0x190>
   11c24:	06068263          	beqz	a3,11c88 <_vfprintf_r+0x190>
   11c28:	00090a93          	mv	s5,s2
   11c2c:	00194703          	lbu	a4,1(s2)
   11c30:	00190913          	addi	s2,s2,1
   11c34:	0007079b          	sext.w	a5,a4
   11c38:	00070663          	beqz	a4,11c44 <_vfprintf_r+0x14c>
   11c3c:	fdb78793          	addi	a5,a5,-37
   11c40:	fe0794e3          	bnez	a5,11c28 <_vfprintf_r+0x130>
   11c44:	41990b3b          	subw	s6,s2,s9
   11c48:	040b0063          	beqz	s6,11c88 <_vfprintf_r+0x190>
   11c4c:	0f013703          	ld	a4,240(sp)
   11c50:	0e812783          	lw	a5,232(sp)
   11c54:	019bb023          	sd	s9,0(s7)
   11c58:	01670733          	add	a4,a4,s6
   11c5c:	0017879b          	addiw	a5,a5,1
   11c60:	016bb423          	sd	s6,8(s7)
   11c64:	0ee13823          	sd	a4,240(sp)
   11c68:	0ef12423          	sw	a5,232(sp)
   11c6c:	00700713          	li	a4,7
   11c70:	010b8b93          	addi	s7,s7,16
   11c74:	22f74863          	blt	a4,a5,11ea4 <_vfprintf_r+0x3ac>
   11c78:	01013783          	ld	a5,16(sp)
   11c7c:	001ac703          	lbu	a4,1(s5)
   11c80:	016787bb          	addw	a5,a5,s6
   11c84:	00f13823          	sd	a5,16(sp)
   11c88:	00071463          	bnez	a4,11c90 <_vfprintf_r+0x198>
   11c8c:	3e90106f          	j	13874 <_vfprintf_r+0x1d7c>
   11c90:	00194303          	lbu	t1,1(s2)
   11c94:	00190c93          	addi	s9,s2,1
   11c98:	0a0103a3          	sb	zero,167(sp)
   11c9c:	fff00a93          	li	s5,-1
   11ca0:	00000d13          	li	s10,0
   11ca4:	05a00913          	li	s2,90
   11ca8:	00000493          	li	s1,0
   11cac:	001c8c93          	addi	s9,s9,1
   11cb0:	0003031b          	sext.w	t1,t1
   11cb4:	fe03079b          	addiw	a5,t1,-32
   11cb8:	04f96a63          	bltu	s2,a5,11d0c <_vfprintf_r+0x214>
   11cbc:	02079713          	slli	a4,a5,0x20
   11cc0:	01e75793          	srli	a5,a4,0x1e
   11cc4:	02813703          	ld	a4,40(sp)
   11cc8:	00e787b3          	add	a5,a5,a4
   11ccc:	0007a783          	lw	a5,0(a5)
   11cd0:	00078067          	jr	a5
   11cd4:	00000d13          	li	s10,0
   11cd8:	00900693          	li	a3,9
   11cdc:	002d179b          	slliw	a5,s10,0x2
   11ce0:	001c8c93          	addi	s9,s9,1
   11ce4:	01a78d3b          	addw	s10,a5,s10
   11ce8:	fffcc783          	lbu	a5,-1(s9)
   11cec:	fd03031b          	addiw	t1,t1,-48
   11cf0:	001d1d1b          	slliw	s10,s10,0x1
   11cf4:	fd07871b          	addiw	a4,a5,-48
   11cf8:	01a30d3b          	addw	s10,t1,s10
   11cfc:	0007831b          	sext.w	t1,a5
   11d00:	fce6fee3          	bgeu	a3,a4,11cdc <_vfprintf_r+0x1e4>
   11d04:	fe03079b          	addiw	a5,t1,-32
   11d08:	faf97ae3          	bgeu	s2,a5,11cbc <_vfprintf_r+0x1c4>
   11d0c:	00048e13          	mv	t3,s1
   11d10:	00031463          	bnez	t1,11d18 <_vfprintf_r+0x220>
   11d14:	3610106f          	j	13874 <_vfprintf_r+0x1d7c>
   11d18:	00100b13          	li	s6,1
   11d1c:	0e610c23          	sb	t1,248(sp)
   11d20:	0a0103a3          	sb	zero,167(sp)
   11d24:	000b0813          	mv	a6,s6
   11d28:	02013023          	sd	zero,32(sp)
   11d2c:	00000a93          	li	s5,0
   11d30:	04013023          	sd	zero,64(sp)
   11d34:	02013c23          	sd	zero,56(sp)
   11d38:	00000493          	li	s1,0
   11d3c:	0f810d93          	addi	s11,sp,248
   11d40:	0f013903          	ld	s2,240(sp)
   11d44:	084e7293          	andi	t0,t3,132
   11d48:	00090593          	mv	a1,s2
   11d4c:	20028ce3          	beqz	t0,12764 <_vfprintf_r+0xc6c>
   11d50:	0a714703          	lbu	a4,167(sp)
   11d54:	06070863          	beqz	a4,11dc4 <_vfprintf_r+0x2cc>
   11d58:	0e812603          	lw	a2,232(sp)
   11d5c:	00000393          	li	t2,0
   11d60:	0a710713          	addi	a4,sp,167
   11d64:	00ebb023          	sd	a4,0(s7)
   11d68:	00190913          	addi	s2,s2,1
   11d6c:	00100713          	li	a4,1
   11d70:	0016061b          	addiw	a2,a2,1 # 2001 <exit-0xe11f>
   11d74:	00ebb423          	sd	a4,8(s7)
   11d78:	0f213823          	sd	s2,240(sp)
   11d7c:	0ec12423          	sw	a2,232(sp)
   11d80:	00700713          	li	a4,7
   11d84:	010b8b93          	addi	s7,s7,16
   11d88:	40c74863          	blt	a4,a2,12198 <_vfprintf_r+0x6a0>
   11d8c:	02038c63          	beqz	t2,11dc4 <_vfprintf_r+0x2cc>
   11d90:	0e812603          	lw	a2,232(sp)
   11d94:	0a810713          	addi	a4,sp,168
   11d98:	00ebb023          	sd	a4,0(s7)
   11d9c:	00290913          	addi	s2,s2,2
   11da0:	00200713          	li	a4,2
   11da4:	0016061b          	addiw	a2,a2,1
   11da8:	00ebb423          	sd	a4,8(s7)
   11dac:	0f213823          	sd	s2,240(sp)
   11db0:	0ec12423          	sw	a2,232(sp)
   11db4:	00700713          	li	a4,7
   11db8:	010b8b93          	addi	s7,s7,16
   11dbc:	00c75463          	bge	a4,a2,11dc4 <_vfprintf_r+0x2cc>
   11dc0:	7e50006f          	j	12da4 <_vfprintf_r+0x12ac>
   11dc4:	08000713          	li	a4,128
   11dc8:	50e284e3          	beq	t0,a4,12ad0 <_vfprintf_r+0xfd8>
   11dcc:	416a8abb          	subw	s5,s5,s6
   11dd0:	1b5046e3          	bgtz	s5,1277c <_vfprintf_r+0xc84>
   11dd4:	100e7713          	andi	a4,t3,256
   11dd8:	2a071ce3          	bnez	a4,12890 <_vfprintf_r+0xd98>
   11ddc:	0e812783          	lw	a5,232(sp)
   11de0:	01690933          	add	s2,s2,s6
   11de4:	0f213823          	sd	s2,240(sp)
   11de8:	0017879b          	addiw	a5,a5,1
   11dec:	01bbb023          	sd	s11,0(s7)
   11df0:	016bb423          	sd	s6,8(s7)
   11df4:	00700713          	li	a4,7
   11df8:	0ef12423          	sw	a5,232(sp)
   11dfc:	48f74863          	blt	a4,a5,1228c <_vfprintf_r+0x794>
   11e00:	010b8b93          	addi	s7,s7,16
   11e04:	004e7f13          	andi	t5,t3,4
   11e08:	000f0863          	beqz	t5,11e18 <_vfprintf_r+0x320>
   11e0c:	410d0abb          	subw	s5,s10,a6
   11e10:	01505463          	blez	s5,11e18 <_vfprintf_r+0x320>
   11e14:	7d10006f          	j	12de4 <_vfprintf_r+0x12ec>
   11e18:	000d0793          	mv	a5,s10
   11e1c:	010d5463          	bge	s10,a6,11e24 <_vfprintf_r+0x32c>
   11e20:	00080793          	mv	a5,a6
   11e24:	01013703          	ld	a4,16(sp)
   11e28:	00e787bb          	addw	a5,a5,a4
   11e2c:	00f13823          	sd	a5,16(sp)
   11e30:	5a091ce3          	bnez	s2,12be8 <_vfprintf_r+0x10f0>
   11e34:	02013783          	ld	a5,32(sp)
   11e38:	0e012423          	sw	zero,232(sp)
   11e3c:	00078863          	beqz	a5,11e4c <_vfprintf_r+0x354>
   11e40:	02013583          	ld	a1,32(sp)
   11e44:	00013503          	ld	a0,0(sp)
   11e48:	8c0ff0ef          	jal	10f08 <_free_r>
   11e4c:	00098b93          	mv	s7,s3
   11e50:	dc1ff06f          	j	11c10 <_vfprintf_r+0x118>
   11e54:	000cc303          	lbu	t1,0(s9)
   11e58:	0104e493          	ori	s1,s1,16
   11e5c:	e51ff06f          	j	11cac <_vfprintf_r+0x1b4>
   11e60:	00013503          	ld	a0,0(sp)
   11e64:	00048593          	mv	a1,s1
   11e68:	4f0030ef          	jal	15358 <__swsetup_r>
   11e6c:	06051063          	bnez	a0,11ecc <_vfprintf_r+0x3d4>
   11e70:	01049783          	lh	a5,16(s1)
   11e74:	00a00713          	li	a4,10
   11e78:	01a7f793          	andi	a5,a5,26
   11e7c:	d2e792e3          	bne	a5,a4,11ba0 <_vfprintf_r+0xa8>
   11e80:	01249783          	lh	a5,18(s1)
   11e84:	d007cee3          	bltz	a5,11ba0 <_vfprintf_r+0xa8>
   11e88:	01813683          	ld	a3,24(sp)
   11e8c:	00013503          	ld	a0,0(sp)
   11e90:	000b0613          	mv	a2,s6
   11e94:	00048593          	mv	a1,s1
   11e98:	281020ef          	jal	14918 <__sbprintf>
   11e9c:	00a13823          	sd	a0,16(sp)
   11ea0:	5a50006f          	j	12c44 <_vfprintf_r+0x114c>
   11ea4:	00813583          	ld	a1,8(sp)
   11ea8:	00013503          	ld	a0,0(sp)
   11eac:	0e010613          	addi	a2,sp,224
   11eb0:	329020ef          	jal	149d8 <__sprint_r>
   11eb4:	00050463          	beqz	a0,11ebc <_vfprintf_r+0x3c4>
   11eb8:	70c0206f          	j	145c4 <_vfprintf_r+0x2acc>
   11ebc:	00098b93          	mv	s7,s3
   11ec0:	db9ff06f          	j	11c78 <_vfprintf_r+0x180>
   11ec4:	03271693          	slli	a3,a4,0x32
   11ec8:	ca06dee3          	bgez	a3,11b84 <_vfprintf_r+0x8c>
   11ecc:	fff00793          	li	a5,-1
   11ed0:	00f13823          	sd	a5,16(sp)
   11ed4:	5710006f          	j	12c44 <_vfprintf_r+0x114c>
   11ed8:	0084f793          	andi	a5,s1,8
   11edc:	00048e13          	mv	t3,s1
   11ee0:	00078463          	beqz	a5,11ee8 <_vfprintf_r+0x3f0>
   11ee4:	4bc0106f          	j	133a0 <_vfprintf_r+0x18a8>
   11ee8:	01813783          	ld	a5,24(sp)
   11eec:	02613023          	sd	t1,32(sp)
   11ef0:	02913c23          	sd	s1,56(sp)
   11ef4:	0007b503          	ld	a0,0(a5)
   11ef8:	1400c0ef          	jal	1e038 <__extenddftf2>
   11efc:	01813783          	ld	a5,24(sp)
   11f00:	03813e03          	ld	t3,56(sp)
   11f04:	02013303          	ld	t1,32(sp)
   11f08:	00878793          	addi	a5,a5,8
   11f0c:	00f13c23          	sd	a5,24(sp)
   11f10:	0ca13823          	sd	a0,208(sp)
   11f14:	0d010513          	addi	a0,sp,208
   11f18:	03c13c23          	sd	t3,56(sp)
   11f1c:	02613023          	sd	t1,32(sp)
   11f20:	0cb13c23          	sd	a1,216(sp)
   11f24:	6dd030ef          	jal	15e00 <_ldcheck>
   11f28:	0aa12823          	sw	a0,176(sp)
   11f2c:	00200793          	li	a5,2
   11f30:	02013303          	ld	t1,32(sp)
   11f34:	03813e03          	ld	t3,56(sp)
   11f38:	00f51463          	bne	a0,a5,11f40 <_vfprintf_r+0x448>
   11f3c:	0d50106f          	j	13810 <_vfprintf_r+0x1d18>
   11f40:	00100793          	li	a5,1
   11f44:	00f51463          	bne	a0,a5,11f4c <_vfprintf_r+0x454>
   11f48:	2490106f          	j	13990 <_vfprintf_r+0x1e98>
   11f4c:	fdf37913          	andi	s2,t1,-33
   11f50:	04100793          	li	a5,65
   11f54:	00f90463          	beq	s2,a5,11f5c <_vfprintf_r+0x464>
   11f58:	1f50106f          	j	1394c <_vfprintf_r+0x1e54>
   11f5c:	03000793          	li	a5,48
   11f60:	0af10423          	sb	a5,168(sp)
   11f64:	06100713          	li	a4,97
   11f68:	05800793          	li	a5,88
   11f6c:	00e31463          	bne	t1,a4,11f74 <_vfprintf_r+0x47c>
   11f70:	7c10106f          	j	13f30 <_vfprintf_r+0x2438>
   11f74:	0af104a3          	sb	a5,169(sp)
   11f78:	06300793          	li	a5,99
   11f7c:	0157d463          	bge	a5,s5,11f84 <_vfprintf_r+0x48c>
   11f80:	7b90106f          	j	13f38 <_vfprintf_r+0x2440>
   11f84:	0d813583          	ld	a1,216(sp)
   11f88:	0d013503          	ld	a0,208(sp)
   11f8c:	0005d463          	bgez	a1,11f94 <_vfprintf_r+0x49c>
   11f90:	6140206f          	j	145a4 <_vfprintf_r+0x2aac>
   11f94:	06013823          	sd	zero,112(sp)
   11f98:	02013023          	sd	zero,32(sp)
   11f9c:	0f810d93          	addi	s11,sp,248
   11fa0:	002e6793          	ori	a5,t3,2
   11fa4:	0b010613          	addi	a2,sp,176
   11fa8:	02613823          	sd	t1,48(sp)
   11fac:	02f13c23          	sd	a5,56(sp)
   11fb0:	27d030ef          	jal	15a2c <frexpl>
   11fb4:	00fff6b7          	lui	a3,0xfff
   11fb8:	02669693          	slli	a3,a3,0x26
   11fbc:	00000613          	li	a2,0
   11fc0:	0740b0ef          	jal	1d034 <__multf3>
   11fc4:	00000613          	li	a2,0
   11fc8:	00000693          	li	a3,0
   11fcc:	00050493          	mv	s1,a0
   11fd0:	00058913          	mv	s2,a1
   11fd4:	5ed0a0ef          	jal	1cdc0 <__eqtf2>
   11fd8:	03013303          	ld	t1,48(sp)
   11fdc:	00051663          	bnez	a0,11fe8 <_vfprintf_r+0x4f0>
   11fe0:	00100713          	li	a4,1
   11fe4:	0ae12823          	sw	a4,176(sp)
   11fe8:	06100713          	li	a4,97
   11fec:	00e31463          	bne	t1,a4,11ff4 <_vfprintf_r+0x4fc>
   11ff0:	78c0206f          	j	1477c <_vfprintf_r+0x2c84>
   11ff4:	0001e737          	lui	a4,0x1e
   11ff8:	2e070793          	addi	a5,a4,736 # 1e2e0 <__clzdi2+0x94>
   11ffc:	02f13823          	sd	a5,48(sp)
   12000:	05713023          	sd	s7,64(sp)
   12004:	05913c23          	sd	s9,88(sp)
   12008:	03013b83          	ld	s7,48(sp)
   1200c:	000d8b13          	mv	s6,s11
   12010:	00030c93          	mv	s9,t1
   12014:	01c0006f          	j	12030 <_vfprintf_r+0x538>
   12018:	00000613          	li	a2,0
   1201c:	00000693          	li	a3,0
   12020:	5a10a0ef          	jal	1cdc0 <__eqtf2>
   12024:	00051463          	bnez	a0,1202c <_vfprintf_r+0x534>
   12028:	7140206f          	j	1473c <_vfprintf_r+0x2c44>
   1202c:	fffa8a9b          	addiw	s5,s5,-1
   12030:	040036b7          	lui	a3,0x4003
   12034:	02469693          	slli	a3,a3,0x24
   12038:	00000613          	li	a2,0
   1203c:	00048513          	mv	a0,s1
   12040:	00090593          	mv	a1,s2
   12044:	7f10a0ef          	jal	1d034 <__multf3>
   12048:	00058493          	mv	s1,a1
   1204c:	00050913          	mv	s2,a0
   12050:	6f50b0ef          	jal	1df44 <__fixtfsi>
   12054:	00050c1b          	sext.w	s8,a0
   12058:	000c0513          	mv	a0,s8
   1205c:	7550b0ef          	jal	1dfb0 <__floatsitf>
   12060:	00050613          	mv	a2,a0
   12064:	00058693          	mv	a3,a1
   12068:	00090513          	mv	a0,s2
   1206c:	00048593          	mv	a1,s1
   12070:	6dc0b0ef          	jal	1d74c <__subtf3>
   12074:	018b86b3          	add	a3,s7,s8
   12078:	0006c683          	lbu	a3,0(a3) # 4003000 <__BSS_END__+0x3fe2388>
   1207c:	000b0613          	mv	a2,s6
   12080:	00050493          	mv	s1,a0
   12084:	00db0023          	sb	a3,0(s6)
   12088:	001b0b13          	addi	s6,s6,1
   1208c:	00058913          	mv	s2,a1
   12090:	f80a94e3          	bnez	s5,12018 <_vfprintf_r+0x520>
   12094:	01fff6b7          	lui	a3,0x1fff
   12098:	000b0793          	mv	a5,s6
   1209c:	00060493          	mv	s1,a2
   120a0:	02569693          	slli	a3,a3,0x25
   120a4:	00000613          	li	a2,0
   120a8:	04013b83          	ld	s7,64(sp)
   120ac:	000c0b13          	mv	s6,s8
   120b0:	05913023          	sd	s9,64(sp)
   120b4:	00050a93          	mv	s5,a0
   120b8:	00078c13          	mv	s8,a5
   120bc:	5a10a0ef          	jal	1ce5c <__getf2>
   120c0:	05813c83          	ld	s9,88(sp)
   120c4:	04013303          	ld	t1,64(sp)
   120c8:	02a04663          	bgtz	a0,120f4 <_vfprintf_r+0x5fc>
   120cc:	01fff6b7          	lui	a3,0x1fff
   120d0:	000a8513          	mv	a0,s5
   120d4:	00090593          	mv	a1,s2
   120d8:	02569693          	slli	a3,a3,0x25
   120dc:	00000613          	li	a2,0
   120e0:	4e10a0ef          	jal	1cdc0 <__eqtf2>
   120e4:	04013303          	ld	t1,64(sp)
   120e8:	04051c63          	bnez	a0,12140 <_vfprintf_r+0x648>
   120ec:	001b7713          	andi	a4,s6,1
   120f0:	04070863          	beqz	a4,12140 <_vfprintf_r+0x648>
   120f4:	03013783          	ld	a5,48(sp)
   120f8:	0c913423          	sd	s1,200(sp)
   120fc:	fffc4683          	lbu	a3,-1(s8)
   12100:	00f7c603          	lbu	a2,15(a5)
   12104:	000c0713          	mv	a4,s8
   12108:	02d61063          	bne	a2,a3,12128 <_vfprintf_r+0x630>
   1210c:	03000593          	li	a1,48
   12110:	feb70fa3          	sb	a1,-1(a4)
   12114:	0c813703          	ld	a4,200(sp)
   12118:	fff70793          	addi	a5,a4,-1
   1211c:	0cf13423          	sd	a5,200(sp)
   12120:	fff74683          	lbu	a3,-1(a4)
   12124:	fec686e3          	beq	a3,a2,12110 <_vfprintf_r+0x618>
   12128:	03900613          	li	a2,57
   1212c:	00c69463          	bne	a3,a2,12134 <_vfprintf_r+0x63c>
   12130:	7480206f          	j	14878 <_vfprintf_r+0x2d80>
   12134:	0016869b          	addiw	a3,a3,1 # 1fff001 <__BSS_END__+0x1fde389>
   12138:	0ff6f693          	zext.b	a3,a3
   1213c:	fed70fa3          	sb	a3,-1(a4)
   12140:	0b012703          	lw	a4,176(sp)
   12144:	00f3069b          	addiw	a3,t1,15
   12148:	41bc07bb          	subw	a5,s8,s11
   1214c:	fff70a9b          	addiw	s5,a4,-1
   12150:	0ad10c23          	sb	a3,184(sp)
   12154:	0b512823          	sw	s5,176(sp)
   12158:	02f13823          	sd	a5,48(sp)
   1215c:	000ad463          	bgez	s5,12164 <_vfprintf_r+0x66c>
   12160:	6bc0206f          	j	1481c <_vfprintf_r+0x2d24>
   12164:	02b00713          	li	a4,43
   12168:	0ae10ca3          	sb	a4,185(sp)
   1216c:	00900713          	li	a4,9
   12170:	01575463          	bge	a4,s5,12178 <_vfprintf_r+0x680>
   12174:	6f90106f          	j	1406c <_vfprintf_r+0x2574>
   12178:	0ba10713          	addi	a4,sp,186
   1217c:	1e010793          	addi	a5,sp,480
   12180:	030a869b          	addiw	a3,s5,48
   12184:	00d70023          	sb	a3,0(a4)
   12188:	40f70733          	sub	a4,a4,a5
   1218c:	1297079b          	addiw	a5,a4,297
   12190:	04f13c23          	sd	a5,88(sp)
   12194:	7650106f          	j	140f8 <_vfprintf_r+0x2600>
   12198:	00813583          	ld	a1,8(sp)
   1219c:	00013503          	ld	a0,0(sp)
   121a0:	0e010613          	addi	a2,sp,224
   121a4:	09013c23          	sd	a6,152(sp)
   121a8:	09c13823          	sd	t3,144(sp)
   121ac:	08613423          	sd	t1,136(sp)
   121b0:	06513c23          	sd	t0,120(sp)
   121b4:	06713823          	sd	t2,112(sp)
   121b8:	021020ef          	jal	149d8 <__sprint_r>
   121bc:	240510e3          	bnez	a0,12bfc <_vfprintf_r+0x1104>
   121c0:	0f013903          	ld	s2,240(sp)
   121c4:	09813803          	ld	a6,152(sp)
   121c8:	09013e03          	ld	t3,144(sp)
   121cc:	08813303          	ld	t1,136(sp)
   121d0:	07813283          	ld	t0,120(sp)
   121d4:	07013383          	ld	t2,112(sp)
   121d8:	00098b93          	mv	s7,s3
   121dc:	bb1ff06f          	j	11d8c <_vfprintf_r+0x294>
   121e0:	0e812703          	lw	a4,232(sp)
   121e4:	0001e6b7          	lui	a3,0x1e
   121e8:	30068693          	addi	a3,a3,768 # 1e300 <__clzdi2+0xb4>
   121ec:	00dbb023          	sd	a3,0(s7)
   121f0:	00190913          	addi	s2,s2,1
   121f4:	00100693          	li	a3,1
   121f8:	0017071b          	addiw	a4,a4,1
   121fc:	00dbb423          	sd	a3,8(s7)
   12200:	0f213823          	sd	s2,240(sp)
   12204:	0ee12423          	sw	a4,232(sp)
   12208:	00700693          	li	a3,7
   1220c:	010b8b93          	addi	s7,s7,16
   12210:	00e6d463          	bge	a3,a4,12218 <_vfprintf_r+0x720>
   12214:	7ad0106f          	j	141c0 <_vfprintf_r+0x26c8>
   12218:	03013783          	ld	a5,48(sp)
   1221c:	00c7e733          	or	a4,a5,a2
   12220:	00071463          	bnez	a4,12228 <_vfprintf_r+0x730>
   12224:	2950106f          	j	13cb8 <_vfprintf_r+0x21c0>
   12228:	04813783          	ld	a5,72(sp)
   1222c:	0e812703          	lw	a4,232(sp)
   12230:	00700693          	li	a3,7
   12234:	01278933          	add	s2,a5,s2
   12238:	05013783          	ld	a5,80(sp)
   1223c:	0017071b          	addiw	a4,a4,1
   12240:	0f213823          	sd	s2,240(sp)
   12244:	00fbb023          	sd	a5,0(s7)
   12248:	04813783          	ld	a5,72(sp)
   1224c:	0ee12423          	sw	a4,232(sp)
   12250:	010b8b93          	addi	s7,s7,16
   12254:	fefbbc23          	sd	a5,-8(s7)
   12258:	00e6d463          	bge	a3,a4,12260 <_vfprintf_r+0x768>
   1225c:	2990106f          	j	13cf4 <_vfprintf_r+0x21fc>
   12260:	00065463          	bgez	a2,12268 <_vfprintf_r+0x770>
   12264:	1a40206f          	j	14408 <_vfprintf_r+0x2910>
   12268:	03013783          	ld	a5,48(sp)
   1226c:	0017071b          	addiw	a4,a4,1
   12270:	0ee12423          	sw	a4,232(sp)
   12274:	01278933          	add	s2,a5,s2
   12278:	00fbb423          	sd	a5,8(s7)
   1227c:	0f213823          	sd	s2,240(sp)
   12280:	01bbb023          	sd	s11,0(s7)
   12284:	00700793          	li	a5,7
   12288:	b6e7dce3          	bge	a5,a4,11e00 <_vfprintf_r+0x308>
   1228c:	00813583          	ld	a1,8(sp)
   12290:	00013503          	ld	a0,0(sp)
   12294:	0e010613          	addi	a2,sp,224
   12298:	05013023          	sd	a6,64(sp)
   1229c:	03c13c23          	sd	t3,56(sp)
   122a0:	738020ef          	jal	149d8 <__sprint_r>
   122a4:	14051ce3          	bnez	a0,12bfc <_vfprintf_r+0x1104>
   122a8:	0f013903          	ld	s2,240(sp)
   122ac:	03813e03          	ld	t3,56(sp)
   122b0:	04013803          	ld	a6,64(sp)
   122b4:	00098b93          	mv	s7,s3
   122b8:	b4dff06f          	j	11e04 <_vfprintf_r+0x30c>
   122bc:	01813783          	ld	a5,24(sp)
   122c0:	00048e13          	mv	t3,s1
   122c4:	00100b13          	li	s6,1
   122c8:	0007a783          	lw	a5,0(a5)
   122cc:	0a0103a3          	sb	zero,167(sp)
   122d0:	0ef10c23          	sb	a5,248(sp)
   122d4:	01813783          	ld	a5,24(sp)
   122d8:	00878793          	addi	a5,a5,8
   122dc:	00f13c23          	sd	a5,24(sp)
   122e0:	a45ff06f          	j	11d24 <_vfprintf_r+0x22c>
   122e4:	01813783          	ld	a5,24(sp)
   122e8:	0a0103a3          	sb	zero,167(sp)
   122ec:	00048e13          	mv	t3,s1
   122f0:	0007bd83          	ld	s11,0(a5)
   122f4:	00878493          	addi	s1,a5,8
   122f8:	000d9463          	bnez	s11,12300 <_vfprintf_r+0x808>
   122fc:	2800106f          	j	1357c <_vfprintf_r+0x1a84>
   12300:	000ad463          	bgez	s5,12308 <_vfprintf_r+0x810>
   12304:	5900106f          	j	13894 <_vfprintf_r+0x1d9c>
   12308:	000a8613          	mv	a2,s5
   1230c:	00000593          	li	a1,0
   12310:	000d8513          	mv	a0,s11
   12314:	03c13c23          	sd	t3,56(sp)
   12318:	00613c23          	sd	t1,24(sp)
   1231c:	1a0030ef          	jal	154bc <memchr>
   12320:	02a13023          	sd	a0,32(sp)
   12324:	0a714703          	lbu	a4,167(sp)
   12328:	01813303          	ld	t1,24(sp)
   1232c:	03813e03          	ld	t3,56(sp)
   12330:	00051463          	bnez	a0,12338 <_vfprintf_r+0x840>
   12334:	0000206f          	j	14334 <_vfprintf_r+0x283c>
   12338:	41b50b3b          	subw	s6,a0,s11
   1233c:	000b0693          	mv	a3,s6
   12340:	000b5463          	bgez	s6,12348 <_vfprintf_r+0x850>
   12344:	27d0106f          	j	13dc0 <_vfprintf_r+0x22c8>
   12348:	0006881b          	sext.w	a6,a3
   1234c:	00070463          	beqz	a4,12354 <_vfprintf_r+0x85c>
   12350:	0016881b          	addiw	a6,a3,1
   12354:	00913c23          	sd	s1,24(sp)
   12358:	2400106f          	j	13598 <_vfprintf_r+0x1aa0>
   1235c:	01813703          	ld	a4,24(sp)
   12360:	0204f793          	andi	a5,s1,32
   12364:	00048e13          	mv	t3,s1
   12368:	00870613          	addi	a2,a4,8
   1236c:	0c079263          	bnez	a5,12430 <_vfprintf_r+0x938>
   12370:	0104f793          	andi	a5,s1,16
   12374:	00078463          	beqz	a5,1237c <_vfprintf_r+0x884>
   12378:	1140206f          	j	1448c <_vfprintf_r+0x2994>
   1237c:	01813703          	ld	a4,24(sp)
   12380:	0404f793          	andi	a5,s1,64
   12384:	00072703          	lw	a4,0(a4)
   12388:	00079463          	bnez	a5,12390 <_vfprintf_r+0x898>
   1238c:	55c0106f          	j	138e8 <_vfprintf_r+0x1df0>
   12390:	0107171b          	slliw	a4,a4,0x10
   12394:	4107571b          	sraiw	a4,a4,0x10
   12398:	00c13c23          	sd	a2,24(sp)
   1239c:	00070793          	mv	a5,a4
   123a0:	0a07c263          	bltz	a5,12444 <_vfprintf_r+0x94c>
   123a4:	0a0aca63          	bltz	s5,12458 <_vfprintf_r+0x960>
   123a8:	f7fe7e13          	andi	t3,t3,-129
   123ac:	0a071663          	bnez	a4,12458 <_vfprintf_r+0x960>
   123b0:	0a0a9463          	bnez	s5,12458 <_vfprintf_r+0x960>
   123b4:	0a714503          	lbu	a0,167(sp)
   123b8:	00051463          	bnez	a0,123c0 <_vfprintf_r+0x8c8>
   123bc:	5700106f          	j	1392c <_vfprintf_r+0x1e34>
   123c0:	00000813          	li	a6,0
   123c4:	00000493          	li	s1,0
   123c8:	02013023          	sd	zero,32(sp)
   123cc:	00000b13          	li	s6,0
   123d0:	00000a93          	li	s5,0
   123d4:	15c10d93          	addi	s11,sp,348
   123d8:	0018081b          	addiw	a6,a6,1
   123dc:	00049463          	bnez	s1,123e4 <_vfprintf_r+0x8ec>
   123e0:	4cc0206f          	j	148ac <_vfprintf_r+0x2db4>
   123e4:	0f013903          	ld	s2,240(sp)
   123e8:	0e812603          	lw	a2,232(sp)
   123ec:	084e7293          	andi	t0,t3,132
   123f0:	0028081b          	addiw	a6,a6,2
   123f4:	00090593          	mv	a1,s2
   123f8:	00060693          	mv	a3,a2
   123fc:	060282e3          	beqz	t0,12c60 <_vfprintf_r+0x1168>
   12400:	04013023          	sd	zero,64(sp)
   12404:	02013c23          	sd	zero,56(sp)
   12408:	00000493          	li	s1,0
   1240c:	980504e3          	beqz	a0,11d94 <_vfprintf_r+0x29c>
   12410:	00200393          	li	t2,2
   12414:	94dff06f          	j	11d60 <_vfprintf_r+0x268>
   12418:	0204f793          	andi	a5,s1,32
   1241c:	0104ef13          	ori	t5,s1,16
   12420:	70078ce3          	beqz	a5,13338 <_vfprintf_r+0x1840>
   12424:	01813783          	ld	a5,24(sp)
   12428:	000f0e13          	mv	t3,t5
   1242c:	00878613          	addi	a2,a5,8
   12430:	01813783          	ld	a5,24(sp)
   12434:	00c13c23          	sd	a2,24(sp)
   12438:	0007b783          	ld	a5,0(a5)
   1243c:	00078713          	mv	a4,a5
   12440:	f607d2e3          	bgez	a5,123a4 <_vfprintf_r+0x8ac>
   12444:	02d00793          	li	a5,45
   12448:	0af103a3          	sb	a5,167(sp)
   1244c:	40e00733          	neg	a4,a4
   12450:	000ac463          	bltz	s5,12458 <_vfprintf_r+0x960>
   12454:	f7fe7e13          	andi	t3,t3,-129
   12458:	00900793          	li	a5,9
   1245c:	14e7e863          	bltu	a5,a4,125ac <_vfprintf_r+0xab4>
   12460:	0307071b          	addiw	a4,a4,48
   12464:	14e10da3          	sb	a4,347(sp)
   12468:	000a881b          	sext.w	a6,s5
   1246c:	75505ae3          	blez	s5,133c0 <_vfprintf_r+0x18c8>
   12470:	0a714503          	lbu	a0,167(sp)
   12474:	00000493          	li	s1,0
   12478:	00100b13          	li	s6,1
   1247c:	15b10d93          	addi	s11,sp,347
   12480:	02013023          	sd	zero,32(sp)
   12484:	f4050ce3          	beqz	a0,123dc <_vfprintf_r+0x8e4>
   12488:	0018081b          	addiw	a6,a6,1
   1248c:	f51ff06f          	j	123dc <_vfprintf_r+0x8e4>
   12490:	01813783          	ld	a5,24(sp)
   12494:	0007ad03          	lw	s10,0(a5)
   12498:	620d56e3          	bgez	s10,132c4 <_vfprintf_r+0x17cc>
   1249c:	01813783          	ld	a5,24(sp)
   124a0:	41a00d3b          	negw	s10,s10
   124a4:	00878793          	addi	a5,a5,8
   124a8:	00f13c23          	sd	a5,24(sp)
   124ac:	000cc303          	lbu	t1,0(s9)
   124b0:	0044e493          	ori	s1,s1,4
   124b4:	ff8ff06f          	j	11cac <_vfprintf_r+0x1b4>
   124b8:	02b00793          	li	a5,43
   124bc:	000cc303          	lbu	t1,0(s9)
   124c0:	0af103a3          	sb	a5,167(sp)
   124c4:	fe8ff06f          	j	11cac <_vfprintf_r+0x1b4>
   124c8:	000cc303          	lbu	t1,0(s9)
   124cc:	0804e493          	ori	s1,s1,128
   124d0:	fdcff06f          	j	11cac <_vfprintf_r+0x1b4>
   124d4:	000cc303          	lbu	t1,0(s9)
   124d8:	02a00793          	li	a5,42
   124dc:	001c8613          	addi	a2,s9,1
   124e0:	00f31463          	bne	t1,a5,124e8 <_vfprintf_r+0x9f0>
   124e4:	2a80206f          	j	1478c <_vfprintf_r+0x2c94>
   124e8:	fd03071b          	addiw	a4,t1,-48
   124ec:	00900593          	li	a1,9
   124f0:	00000693          	li	a3,0
   124f4:	00060c93          	mv	s9,a2
   124f8:	00000a93          	li	s5,0
   124fc:	fae5ec63          	bltu	a1,a4,11cb4 <_vfprintf_r+0x1bc>
   12500:	0026979b          	slliw	a5,a3,0x2
   12504:	00064303          	lbu	t1,0(a2)
   12508:	00d787bb          	addw	a5,a5,a3
   1250c:	0017979b          	slliw	a5,a5,0x1
   12510:	00e786bb          	addw	a3,a5,a4
   12514:	fd03071b          	addiw	a4,t1,-48
   12518:	00160613          	addi	a2,a2,1
   1251c:	fee5f2e3          	bgeu	a1,a4,12500 <_vfprintf_r+0xa08>
   12520:	00068a9b          	sext.w	s5,a3
   12524:	7806cae3          	bltz	a3,134b8 <_vfprintf_r+0x19c0>
   12528:	00060c93          	mv	s9,a2
   1252c:	f88ff06f          	j	11cb4 <_vfprintf_r+0x1bc>
   12530:	0204f793          	andi	a5,s1,32
   12534:	0104ef13          	ori	t5,s1,16
   12538:	04079263          	bnez	a5,1257c <_vfprintf_r+0xa84>
   1253c:	01813783          	ld	a5,24(sp)
   12540:	01813703          	ld	a4,24(sp)
   12544:	0a0103a3          	sb	zero,167(sp)
   12548:	00878793          	addi	a5,a5,8
   1254c:	00073703          	ld	a4,0(a4)
   12550:	680ac4e3          	bltz	s5,133d8 <_vfprintf_r+0x18e0>
   12554:	00f13c23          	sd	a5,24(sp)
   12558:	f7ff7e13          	andi	t3,t5,-129
   1255c:	ee071ee3          	bnez	a4,12458 <_vfprintf_r+0x960>
   12560:	ee0a9ce3          	bnez	s5,12458 <_vfprintf_r+0x960>
   12564:	00000493          	li	s1,0
   12568:	4b00006f          	j	12a18 <_vfprintf_r+0xf20>
   1256c:	0204f793          	andi	a5,s1,32
   12570:	00048e13          	mv	t3,s1
   12574:	5e0782e3          	beqz	a5,13358 <_vfprintf_r+0x1860>
   12578:	00048f13          	mv	t5,s1
   1257c:	01813783          	ld	a5,24(sp)
   12580:	01813703          	ld	a4,24(sp)
   12584:	0a0103a3          	sb	zero,167(sp)
   12588:	00878793          	addi	a5,a5,8
   1258c:	00073703          	ld	a4,0(a4)
   12590:	640ac4e3          	bltz	s5,133d8 <_vfprintf_r+0x18e0>
   12594:	00f13c23          	sd	a5,24(sp)
   12598:	f7ff7e13          	andi	t3,t5,-129
   1259c:	ea0a9ee3          	bnez	s5,12458 <_vfprintf_r+0x960>
   125a0:	ea071ce3          	bnez	a4,12458 <_vfprintf_r+0x960>
   125a4:	00000493          	li	s1,0
   125a8:	4700006f          	j	12a18 <_vfprintf_r+0xf20>
   125ac:	15c10b13          	addi	s6,sp,348
   125b0:	000b0913          	mv	s2,s6
   125b4:	05513023          	sd	s5,64(sp)
   125b8:	07613823          	sd	s6,112(sp)
   125bc:	400e7c13          	andi	s8,t3,1024
   125c0:	06813b03          	ld	s6,104(sp)
   125c4:	00000493          	li	s1,0
   125c8:	03713023          	sd	s7,32(sp)
   125cc:	02613823          	sd	t1,48(sp)
   125d0:	03c13c23          	sd	t3,56(sp)
   125d4:	00070a93          	mv	s5,a4
   125d8:	0240006f          	j	125fc <_vfprintf_r+0xb04>
   125dc:	000a8513          	mv	a0,s5
   125e0:	00a00593          	li	a1,10
   125e4:	3b10b0ef          	jal	1e194 <__hidden___udivdi3>
   125e8:	000a8b93          	mv	s7,s5
   125ec:	00900793          	li	a5,9
   125f0:	000d8913          	mv	s2,s11
   125f4:	00050a93          	mv	s5,a0
   125f8:	0577f063          	bgeu	a5,s7,12638 <_vfprintf_r+0xb40>
   125fc:	00a00593          	li	a1,10
   12600:	000a8513          	mv	a0,s5
   12604:	3d90b0ef          	jal	1e1dc <__umoddi3>
   12608:	0305051b          	addiw	a0,a0,48
   1260c:	fea90fa3          	sb	a0,-1(s2)
   12610:	fff90d93          	addi	s11,s2,-1
   12614:	0014849b          	addiw	s1,s1,1
   12618:	fc0c02e3          	beqz	s8,125dc <_vfprintf_r+0xae4>
   1261c:	000b4783          	lbu	a5,0(s6)
   12620:	f0178713          	addi	a4,a5,-255
   12624:	fa070ce3          	beqz	a4,125dc <_vfprintf_r+0xae4>
   12628:	fa979ae3          	bne	a5,s1,125dc <_vfprintf_r+0xae4>
   1262c:	00900793          	li	a5,9
   12630:	0157f463          	bgeu	a5,s5,12638 <_vfprintf_r+0xb40>
   12634:	52d0106f          	j	14360 <_vfprintf_r+0x2868>
   12638:	07613423          	sd	s6,104(sp)
   1263c:	07013b03          	ld	s6,112(sp)
   12640:	04013a83          	ld	s5,64(sp)
   12644:	03013303          	ld	t1,48(sp)
   12648:	41bb0b3b          	subw	s6,s6,s11
   1264c:	02913823          	sd	s1,48(sp)
   12650:	02013b83          	ld	s7,32(sp)
   12654:	03813e03          	ld	t3,56(sp)
   12658:	000a881b          	sext.w	a6,s5
   1265c:	016ad463          	bge	s5,s6,12664 <_vfprintf_r+0xb6c>
   12660:	000b081b          	sext.w	a6,s6
   12664:	0a714503          	lbu	a0,167(sp)
   12668:	00000493          	li	s1,0
   1266c:	02013023          	sd	zero,32(sp)
   12670:	e15ff06f          	j	12484 <_vfprintf_r+0x98c>
   12674:	00013b03          	ld	s6,0(sp)
   12678:	000b0513          	mv	a0,s6
   1267c:	7c5020ef          	jal	15640 <_localeconv_r>
   12680:	00853783          	ld	a5,8(a0)
   12684:	00078513          	mv	a0,a5
   12688:	06f13023          	sd	a5,96(sp)
   1268c:	2cc030ef          	jal	15958 <strlen>
   12690:	00050793          	mv	a5,a0
   12694:	000b0513          	mv	a0,s6
   12698:	08f13023          	sd	a5,128(sp)
   1269c:	00078b13          	mv	s6,a5
   126a0:	7a1020ef          	jal	15640 <_localeconv_r>
   126a4:	01053703          	ld	a4,16(a0)
   126a8:	000cc303          	lbu	t1,0(s9)
   126ac:	06e13423          	sd	a4,104(sp)
   126b0:	de0b0e63          	beqz	s6,11cac <_vfprintf_r+0x1b4>
   126b4:	de070c63          	beqz	a4,11cac <_vfprintf_r+0x1b4>
   126b8:	00074783          	lbu	a5,0(a4)
   126bc:	de078863          	beqz	a5,11cac <_vfprintf_r+0x1b4>
   126c0:	4004e493          	ori	s1,s1,1024
   126c4:	de8ff06f          	j	11cac <_vfprintf_r+0x1b4>
   126c8:	000cc303          	lbu	t1,0(s9)
   126cc:	0014e493          	ori	s1,s1,1
   126d0:	ddcff06f          	j	11cac <_vfprintf_r+0x1b4>
   126d4:	0a714783          	lbu	a5,167(sp)
   126d8:	000cc303          	lbu	t1,0(s9)
   126dc:	dc079863          	bnez	a5,11cac <_vfprintf_r+0x1b4>
   126e0:	02000793          	li	a5,32
   126e4:	0af103a3          	sb	a5,167(sp)
   126e8:	dc4ff06f          	j	11cac <_vfprintf_r+0x1b4>
   126ec:	000cc303          	lbu	t1,0(s9)
   126f0:	0084e493          	ori	s1,s1,8
   126f4:	db8ff06f          	j	11cac <_vfprintf_r+0x1b4>
   126f8:	01813783          	ld	a5,24(sp)
   126fc:	0104e813          	ori	a6,s1,16
   12700:	00878613          	addi	a2,a5,8
   12704:	01813783          	ld	a5,24(sp)
   12708:	0007b683          	ld	a3,0(a5)
   1270c:	00c13c23          	sd	a2,24(sp)
   12710:	0a0103a3          	sb	zero,167(sp)
   12714:	bff87e13          	andi	t3,a6,-1025
   12718:	780ace63          	bltz	s5,12eb4 <_vfprintf_r+0x13bc>
   1271c:	b7f87e13          	andi	t3,a6,-1153
   12720:	780a9a63          	bnez	s5,12eb4 <_vfprintf_r+0x13bc>
   12724:	78069863          	bnez	a3,12eb4 <_vfprintf_r+0x13bc>
   12728:	00187813          	andi	a6,a6,1
   1272c:	280804e3          	beqz	a6,131b4 <_vfprintf_r+0x16bc>
   12730:	0f013903          	ld	s2,240(sp)
   12734:	03000793          	li	a5,48
   12738:	14f10da3          	sb	a5,347(sp)
   1273c:	02013023          	sd	zero,32(sp)
   12740:	04013023          	sd	zero,64(sp)
   12744:	02013c23          	sd	zero,56(sp)
   12748:	084e7293          	andi	t0,t3,132
   1274c:	00080b13          	mv	s6,a6
   12750:	00000a93          	li	s5,0
   12754:	00000493          	li	s1,0
   12758:	15b10d93          	addi	s11,sp,347
   1275c:	00090593          	mv	a1,s2
   12760:	de029863          	bnez	t0,11d50 <_vfprintf_r+0x258>
   12764:	410d073b          	subw	a4,s10,a6
   12768:	22e04ee3          	bgtz	a4,131a4 <_vfprintf_r+0x16ac>
   1276c:	0a714703          	lbu	a4,167(sp)
   12770:	de071463          	bnez	a4,11d58 <_vfprintf_r+0x260>
   12774:	416a8abb          	subw	s5,s5,s6
   12778:	e5505e63          	blez	s5,11dd4 <_vfprintf_r+0x2dc>
   1277c:	0001e6b7          	lui	a3,0x1e
   12780:	0e812603          	lw	a2,232(sp)
   12784:	59868693          	addi	a3,a3,1432 # 1e598 <zeroes.0>
   12788:	0b545463          	bge	s0,s5,12830 <_vfprintf_r+0xd38>
   1278c:	00048593          	mv	a1,s1
   12790:	000b8793          	mv	a5,s7
   12794:	000a8493          	mv	s1,s5
   12798:	00090693          	mv	a3,s2
   1279c:	00700713          	li	a4,7
   127a0:	00030c13          	mv	s8,t1
   127a4:	07c13823          	sd	t3,112(sp)
   127a8:	000a0b93          	mv	s7,s4
   127ac:	00080913          	mv	s2,a6
   127b0:	00058a93          	mv	s5,a1
   127b4:	00c0006f          	j	127c0 <_vfprintf_r+0xcc8>
   127b8:	ff04849b          	addiw	s1,s1,-16
   127bc:	04945863          	bge	s0,s1,1280c <_vfprintf_r+0xd14>
   127c0:	01068693          	addi	a3,a3,16
   127c4:	0016061b          	addiw	a2,a2,1
   127c8:	0147b023          	sd	s4,0(a5)
   127cc:	0087b423          	sd	s0,8(a5)
   127d0:	0ed13823          	sd	a3,240(sp)
   127d4:	0ec12423          	sw	a2,232(sp)
   127d8:	01078793          	addi	a5,a5,16
   127dc:	fcc75ee3          	bge	a4,a2,127b8 <_vfprintf_r+0xcc0>
   127e0:	00813583          	ld	a1,8(sp)
   127e4:	00013503          	ld	a0,0(sp)
   127e8:	0e010613          	addi	a2,sp,224
   127ec:	1ec020ef          	jal	149d8 <__sprint_r>
   127f0:	40051663          	bnez	a0,12bfc <_vfprintf_r+0x1104>
   127f4:	ff04849b          	addiw	s1,s1,-16
   127f8:	0f013683          	ld	a3,240(sp)
   127fc:	0e812603          	lw	a2,232(sp)
   12800:	00098793          	mv	a5,s3
   12804:	00700713          	li	a4,7
   12808:	fa944ce3          	blt	s0,s1,127c0 <_vfprintf_r+0xcc8>
   1280c:	07013e03          	ld	t3,112(sp)
   12810:	000a8713          	mv	a4,s5
   12814:	00090813          	mv	a6,s2
   12818:	00048a93          	mv	s5,s1
   1281c:	00068913          	mv	s2,a3
   12820:	000c0313          	mv	t1,s8
   12824:	000b8693          	mv	a3,s7
   12828:	00070493          	mv	s1,a4
   1282c:	00078b93          	mv	s7,a5
   12830:	01590933          	add	s2,s2,s5
   12834:	0016061b          	addiw	a2,a2,1
   12838:	00dbb023          	sd	a3,0(s7)
   1283c:	015bb423          	sd	s5,8(s7)
   12840:	0f213823          	sd	s2,240(sp)
   12844:	0ec12423          	sw	a2,232(sp)
   12848:	00700713          	li	a4,7
   1284c:	010b8b93          	addi	s7,s7,16
   12850:	d8c75263          	bge	a4,a2,11dd4 <_vfprintf_r+0x2dc>
   12854:	00813583          	ld	a1,8(sp)
   12858:	00013503          	ld	a0,0(sp)
   1285c:	0e010613          	addi	a2,sp,224
   12860:	09013423          	sd	a6,136(sp)
   12864:	07c13c23          	sd	t3,120(sp)
   12868:	06613823          	sd	t1,112(sp)
   1286c:	16c020ef          	jal	149d8 <__sprint_r>
   12870:	38051663          	bnez	a0,12bfc <_vfprintf_r+0x1104>
   12874:	07813e03          	ld	t3,120(sp)
   12878:	0f013903          	ld	s2,240(sp)
   1287c:	08813803          	ld	a6,136(sp)
   12880:	100e7713          	andi	a4,t3,256
   12884:	07013303          	ld	t1,112(sp)
   12888:	00098b93          	mv	s7,s3
   1288c:	d4070863          	beqz	a4,11ddc <_vfprintf_r+0x2e4>
   12890:	06500713          	li	a4,101
   12894:	3e675663          	bge	a4,t1,12c80 <_vfprintf_r+0x1188>
   12898:	0d013503          	ld	a0,208(sp)
   1289c:	0d813583          	ld	a1,216(sp)
   128a0:	00000613          	li	a2,0
   128a4:	00000693          	li	a3,0
   128a8:	07013c23          	sd	a6,120(sp)
   128ac:	07c13823          	sd	t3,112(sp)
   128b0:	5100a0ef          	jal	1cdc0 <__eqtf2>
   128b4:	07013e03          	ld	t3,112(sp)
   128b8:	07813803          	ld	a6,120(sp)
   128bc:	64051863          	bnez	a0,12f0c <_vfprintf_r+0x1414>
   128c0:	0e812783          	lw	a5,232(sp)
   128c4:	0001e737          	lui	a4,0x1e
   128c8:	30070713          	addi	a4,a4,768 # 1e300 <__clzdi2+0xb4>
   128cc:	00ebb023          	sd	a4,0(s7)
   128d0:	00190913          	addi	s2,s2,1
   128d4:	00100713          	li	a4,1
   128d8:	0017879b          	addiw	a5,a5,1
   128dc:	00ebb423          	sd	a4,8(s7)
   128e0:	0f213823          	sd	s2,240(sp)
   128e4:	0ef12423          	sw	a5,232(sp)
   128e8:	00700713          	li	a4,7
   128ec:	010b8b93          	addi	s7,s7,16
   128f0:	6af746e3          	blt	a4,a5,1379c <_vfprintf_r+0x1ca4>
   128f4:	0b012783          	lw	a5,176(sp)
   128f8:	03013703          	ld	a4,48(sp)
   128fc:	1ae7dce3          	bge	a5,a4,132b4 <_vfprintf_r+0x17bc>
   12900:	04813703          	ld	a4,72(sp)
   12904:	0e812783          	lw	a5,232(sp)
   12908:	010b8b93          	addi	s7,s7,16
   1290c:	00e90933          	add	s2,s2,a4
   12910:	05013703          	ld	a4,80(sp)
   12914:	0017879b          	addiw	a5,a5,1
   12918:	0f213823          	sd	s2,240(sp)
   1291c:	feebb823          	sd	a4,-16(s7)
   12920:	04813703          	ld	a4,72(sp)
   12924:	0ef12423          	sw	a5,232(sp)
   12928:	feebbc23          	sd	a4,-8(s7)
   1292c:	00700713          	li	a4,7
   12930:	3af742e3          	blt	a4,a5,134d4 <_vfprintf_r+0x19dc>
   12934:	03013783          	ld	a5,48(sp)
   12938:	fff78a9b          	addiw	s5,a5,-1
   1293c:	cd505463          	blez	s5,11e04 <_vfprintf_r+0x30c>
   12940:	01000b13          	li	s6,16
   12944:	0e812783          	lw	a5,232(sp)
   12948:	0001e6b7          	lui	a3,0x1e
   1294c:	015b4463          	blt	s6,s5,12954 <_vfprintf_r+0xe5c>
   12950:	0690106f          	j	141b8 <_vfprintf_r+0x26c0>
   12954:	000a8493          	mv	s1,s5
   12958:	00090713          	mv	a4,s2
   1295c:	00700d93          	li	s11,7
   12960:	00080a93          	mv	s5,a6
   12964:	000e0913          	mv	s2,t3
   12968:	59868c13          	addi	s8,a3,1432 # 1e598 <zeroes.0>
   1296c:	00c0006f          	j	12978 <_vfprintf_r+0xe80>
   12970:	ff04849b          	addiw	s1,s1,-16
   12974:	669b50e3          	bge	s6,s1,137d4 <_vfprintf_r+0x1cdc>
   12978:	01070713          	addi	a4,a4,16
   1297c:	0017879b          	addiw	a5,a5,1
   12980:	018bb023          	sd	s8,0(s7)
   12984:	016bb423          	sd	s6,8(s7)
   12988:	0ee13823          	sd	a4,240(sp)
   1298c:	0ef12423          	sw	a5,232(sp)
   12990:	010b8b93          	addi	s7,s7,16
   12994:	fcfddee3          	bge	s11,a5,12970 <_vfprintf_r+0xe78>
   12998:	00813583          	ld	a1,8(sp)
   1299c:	00013503          	ld	a0,0(sp)
   129a0:	0e010613          	addi	a2,sp,224
   129a4:	034020ef          	jal	149d8 <__sprint_r>
   129a8:	24051a63          	bnez	a0,12bfc <_vfprintf_r+0x1104>
   129ac:	0f013703          	ld	a4,240(sp)
   129b0:	0e812783          	lw	a5,232(sp)
   129b4:	00098b93          	mv	s7,s3
   129b8:	fb9ff06f          	j	12970 <_vfprintf_r+0xe78>
   129bc:	000cc303          	lbu	t1,0(s9)
   129c0:	06800793          	li	a5,104
   129c4:	34f300e3          	beq	t1,a5,13504 <_vfprintf_r+0x1a0c>
   129c8:	0404e493          	ori	s1,s1,64
   129cc:	ae0ff06f          	j	11cac <_vfprintf_r+0x1b4>
   129d0:	000cc303          	lbu	t1,0(s9)
   129d4:	0204e493          	ori	s1,s1,32
   129d8:	ad4ff06f          	j	11cac <_vfprintf_r+0x1b4>
   129dc:	000087b7          	lui	a5,0x8
   129e0:	83078793          	addi	a5,a5,-2000 # 7830 <exit-0x88f0>
   129e4:	0af11423          	sh	a5,168(sp)
   129e8:	01813783          	ld	a5,24(sp)
   129ec:	0a0103a3          	sb	zero,167(sp)
   129f0:	0007b703          	ld	a4,0(a5)
   129f4:	00878593          	addi	a1,a5,8
   129f8:	1e0acee3          	bltz	s5,133f4 <_vfprintf_r+0x18fc>
   129fc:	f7f4ff13          	andi	t5,s1,-129
   12a00:	002f6e13          	ori	t3,t5,2
   12a04:	640a9ee3          	bnez	s5,13860 <_vfprintf_r+0x1d68>
   12a08:	64071ce3          	bnez	a4,13860 <_vfprintf_r+0x1d68>
   12a0c:	00b13c23          	sd	a1,24(sp)
   12a10:	00200493          	li	s1,2
   12a14:	07800313          	li	t1,120
   12a18:	0a714503          	lbu	a0,167(sp)
   12a1c:	00000a93          	li	s5,0
   12a20:	00000813          	li	a6,0
   12a24:	00000b13          	li	s6,0
   12a28:	15c10d93          	addi	s11,sp,348
   12a2c:	02013023          	sd	zero,32(sp)
   12a30:	a55ff06f          	j	12484 <_vfprintf_r+0x98c>
   12a34:	01813703          	ld	a4,24(sp)
   12a38:	0204f793          	andi	a5,s1,32
   12a3c:	00048e13          	mv	t3,s1
   12a40:	00870613          	addi	a2,a4,8
   12a44:	0a079ee3          	bnez	a5,13300 <_vfprintf_r+0x1808>
   12a48:	0104f793          	andi	a5,s1,16
   12a4c:	0a079ae3          	bnez	a5,13300 <_vfprintf_r+0x1808>
   12a50:	01813703          	ld	a4,24(sp)
   12a54:	0404f793          	andi	a5,s1,64
   12a58:	00072683          	lw	a3,0(a4)
   12a5c:	6a078ce3          	beqz	a5,13914 <_vfprintf_r+0x1e1c>
   12a60:	03069693          	slli	a3,a3,0x30
   12a64:	0306d693          	srli	a3,a3,0x30
   12a68:	00c13c23          	sd	a2,24(sp)
   12a6c:	00048813          	mv	a6,s1
   12a70:	ca1ff06f          	j	12710 <_vfprintf_r+0xc18>
   12a74:	01813683          	ld	a3,24(sp)
   12a78:	01813703          	ld	a4,24(sp)
   12a7c:	0204f793          	andi	a5,s1,32
   12a80:	00868693          	addi	a3,a3,8
   12a84:	00d13c23          	sd	a3,24(sp)
   12a88:	00073703          	ld	a4,0(a4)
   12a8c:	060794e3          	bnez	a5,132f4 <_vfprintf_r+0x17fc>
   12a90:	0104f793          	andi	a5,s1,16
   12a94:	060790e3          	bnez	a5,132f4 <_vfprintf_r+0x17fc>
   12a98:	0404f793          	andi	a5,s1,64
   12a9c:	00078463          	beqz	a5,12aa4 <_vfprintf_r+0xfac>
   12aa0:	2cc0106f          	j	13d6c <_vfprintf_r+0x2274>
   12aa4:	2004ff13          	andi	t5,s1,512
   12aa8:	01013783          	ld	a5,16(sp)
   12aac:	000f1463          	bnez	t5,12ab4 <_vfprintf_r+0xfbc>
   12ab0:	2ed0106f          	j	1459c <_vfprintf_r+0x2aa4>
   12ab4:	00f70023          	sb	a5,0(a4)
   12ab8:	958ff06f          	j	11c10 <_vfprintf_r+0x118>
   12abc:	000cc303          	lbu	t1,0(s9)
   12ac0:	06c00793          	li	a5,108
   12ac4:	20f300e3          	beq	t1,a5,134c4 <_vfprintf_r+0x19cc>
   12ac8:	0104e493          	ori	s1,s1,16
   12acc:	9e0ff06f          	j	11cac <_vfprintf_r+0x1b4>
   12ad0:	410d073b          	subw	a4,s10,a6
   12ad4:	aee05c63          	blez	a4,11dcc <_vfprintf_r+0x2d4>
   12ad8:	01000293          	li	t0,16
   12adc:	0e812603          	lw	a2,232(sp)
   12ae0:	0001e6b7          	lui	a3,0x1e
   12ae4:	00e2c463          	blt	t0,a4,12aec <_vfprintf_r+0xff4>
   12ae8:	20d0106f          	j	144f4 <_vfprintf_r+0x29fc>
   12aec:	000b8793          	mv	a5,s7
   12af0:	00090593          	mv	a1,s2
   12af4:	00048b93          	mv	s7,s1
   12af8:	00700393          	li	t2,7
   12afc:	00030c13          	mv	s8,t1
   12b00:	07c13823          	sd	t3,112(sp)
   12b04:	07013c23          	sd	a6,120(sp)
   12b08:	00070493          	mv	s1,a4
   12b0c:	59868913          	addi	s2,a3,1432 # 1e598 <zeroes.0>
   12b10:	00c0006f          	j	12b1c <_vfprintf_r+0x1024>
   12b14:	ff04849b          	addiw	s1,s1,-16
   12b18:	0492da63          	bge	t0,s1,12b6c <_vfprintf_r+0x1074>
   12b1c:	01058593          	addi	a1,a1,16
   12b20:	0016061b          	addiw	a2,a2,1
   12b24:	0127b023          	sd	s2,0(a5)
   12b28:	0057b423          	sd	t0,8(a5)
   12b2c:	0eb13823          	sd	a1,240(sp)
   12b30:	0ec12423          	sw	a2,232(sp)
   12b34:	01078793          	addi	a5,a5,16
   12b38:	fcc3dee3          	bge	t2,a2,12b14 <_vfprintf_r+0x101c>
   12b3c:	00813583          	ld	a1,8(sp)
   12b40:	00013503          	ld	a0,0(sp)
   12b44:	0e010613          	addi	a2,sp,224
   12b48:	691010ef          	jal	149d8 <__sprint_r>
   12b4c:	0a051863          	bnez	a0,12bfc <_vfprintf_r+0x1104>
   12b50:	01000293          	li	t0,16
   12b54:	ff04849b          	addiw	s1,s1,-16
   12b58:	0f013583          	ld	a1,240(sp)
   12b5c:	0e812603          	lw	a2,232(sp)
   12b60:	00098793          	mv	a5,s3
   12b64:	00700393          	li	t2,7
   12b68:	fa92cae3          	blt	t0,s1,12b1c <_vfprintf_r+0x1024>
   12b6c:	07013e03          	ld	t3,112(sp)
   12b70:	07813803          	ld	a6,120(sp)
   12b74:	00048713          	mv	a4,s1
   12b78:	00090693          	mv	a3,s2
   12b7c:	000b8493          	mv	s1,s7
   12b80:	000c0313          	mv	t1,s8
   12b84:	00078b93          	mv	s7,a5
   12b88:	00058913          	mv	s2,a1
   12b8c:	00e90933          	add	s2,s2,a4
   12b90:	0016061b          	addiw	a2,a2,1
   12b94:	00ebb423          	sd	a4,8(s7)
   12b98:	00dbb023          	sd	a3,0(s7)
   12b9c:	0f213823          	sd	s2,240(sp)
   12ba0:	0ec12423          	sw	a2,232(sp)
   12ba4:	00700713          	li	a4,7
   12ba8:	010b8b93          	addi	s7,s7,16
   12bac:	a2c75063          	bge	a4,a2,11dcc <_vfprintf_r+0x2d4>
   12bb0:	00813583          	ld	a1,8(sp)
   12bb4:	00013503          	ld	a0,0(sp)
   12bb8:	0e010613          	addi	a2,sp,224
   12bbc:	09013423          	sd	a6,136(sp)
   12bc0:	07c13c23          	sd	t3,120(sp)
   12bc4:	06613823          	sd	t1,112(sp)
   12bc8:	611010ef          	jal	149d8 <__sprint_r>
   12bcc:	02051863          	bnez	a0,12bfc <_vfprintf_r+0x1104>
   12bd0:	0f013903          	ld	s2,240(sp)
   12bd4:	07013303          	ld	t1,112(sp)
   12bd8:	07813e03          	ld	t3,120(sp)
   12bdc:	08813803          	ld	a6,136(sp)
   12be0:	00098b93          	mv	s7,s3
   12be4:	9e8ff06f          	j	11dcc <_vfprintf_r+0x2d4>
   12be8:	00813583          	ld	a1,8(sp)
   12bec:	00013503          	ld	a0,0(sp)
   12bf0:	0e010613          	addi	a2,sp,224
   12bf4:	5e5010ef          	jal	149d8 <__sprint_r>
   12bf8:	a2050e63          	beqz	a0,11e34 <_vfprintf_r+0x33c>
   12bfc:	00813483          	ld	s1,8(sp)
   12c00:	02013783          	ld	a5,32(sp)
   12c04:	00078863          	beqz	a5,12c14 <_vfprintf_r+0x111c>
   12c08:	00013503          	ld	a0,0(sp)
   12c0c:	00078593          	mv	a1,a5
   12c10:	af8fe0ef          	jal	10f08 <_free_r>
   12c14:	0104d783          	lhu	a5,16(s1)
   12c18:	23013903          	ld	s2,560(sp)
   12c1c:	22813983          	ld	s3,552(sp)
   12c20:	0407f793          	andi	a5,a5,64
   12c24:	22013a03          	ld	s4,544(sp)
   12c28:	21813a83          	ld	s5,536(sp)
   12c2c:	20813b83          	ld	s7,520(sp)
   12c30:	20013c03          	ld	s8,512(sp)
   12c34:	1f813c83          	ld	s9,504(sp)
   12c38:	1f013d03          	ld	s10,496(sp)
   12c3c:	1e813d83          	ld	s11,488(sp)
   12c40:	a8079663          	bnez	a5,11ecc <_vfprintf_r+0x3d4>
   12c44:	24813083          	ld	ra,584(sp)
   12c48:	24013403          	ld	s0,576(sp)
   12c4c:	01013503          	ld	a0,16(sp)
   12c50:	23813483          	ld	s1,568(sp)
   12c54:	21013b03          	ld	s6,528(sp)
   12c58:	25010113          	addi	sp,sp,592
   12c5c:	00008067          	ret
   12c60:	410d073b          	subw	a4,s10,a6
   12c64:	04013023          	sd	zero,64(sp)
   12c68:	02013c23          	sd	zero,56(sp)
   12c6c:	42e04a63          	bgtz	a4,130a0 <_vfprintf_r+0x15a8>
   12c70:	00000493          	li	s1,0
   12c74:	92050063          	beqz	a0,11d94 <_vfprintf_r+0x29c>
   12c78:	00200393          	li	t2,2
   12c7c:	8e4ff06f          	j	11d60 <_vfprintf_r+0x268>
   12c80:	0e812a83          	lw	s5,232(sp)
   12c84:	03013783          	ld	a5,48(sp)
   12c88:	00100693          	li	a3,1
   12c8c:	001a8a9b          	addiw	s5,s5,1
   12c90:	00d90933          	add	s2,s2,a3
   12c94:	000a8713          	mv	a4,s5
   12c98:	010b8b13          	addi	s6,s7,16
   12c9c:	52f6dc63          	bge	a3,a5,131d4 <_vfprintf_r+0x16dc>
   12ca0:	00100693          	li	a3,1
   12ca4:	00dbb423          	sd	a3,8(s7)
   12ca8:	01bbb023          	sd	s11,0(s7)
   12cac:	0f213823          	sd	s2,240(sp)
   12cb0:	0ee12423          	sw	a4,232(sp)
   12cb4:	00700693          	li	a3,7
   12cb8:	1ae6c8e3          	blt	a3,a4,13668 <_vfprintf_r+0x1b70>
   12cbc:	04813783          	ld	a5,72(sp)
   12cc0:	001a8a9b          	addiw	s5,s5,1
   12cc4:	0f512423          	sw	s5,232(sp)
   12cc8:	00f90933          	add	s2,s2,a5
   12ccc:	05013783          	ld	a5,80(sp)
   12cd0:	0f213823          	sd	s2,240(sp)
   12cd4:	00700713          	li	a4,7
   12cd8:	00fb3023          	sd	a5,0(s6)
   12cdc:	04813783          	ld	a5,72(sp)
   12ce0:	010b0b13          	addi	s6,s6,16
   12ce4:	fefb3c23          	sd	a5,-8(s6)
   12ce8:	1b574ae3          	blt	a4,s5,1369c <_vfprintf_r+0x1ba4>
   12cec:	03013783          	ld	a5,48(sp)
   12cf0:	0d013503          	ld	a0,208(sp)
   12cf4:	0d813583          	ld	a1,216(sp)
   12cf8:	00000613          	li	a2,0
   12cfc:	00000693          	li	a3,0
   12d00:	05013023          	sd	a6,64(sp)
   12d04:	03c13c23          	sd	t3,56(sp)
   12d08:	fff78b9b          	addiw	s7,a5,-1
   12d0c:	0b40a0ef          	jal	1cdc0 <__eqtf2>
   12d10:	03813e03          	ld	t3,56(sp)
   12d14:	04013803          	ld	a6,64(sp)
   12d18:	50050863          	beqz	a0,13228 <_vfprintf_r+0x1730>
   12d1c:	001a8a9b          	addiw	s5,s5,1
   12d20:	01790933          	add	s2,s2,s7
   12d24:	001d8793          	addi	a5,s11,1
   12d28:	0f512423          	sw	s5,232(sp)
   12d2c:	0f213823          	sd	s2,240(sp)
   12d30:	00fb3023          	sd	a5,0(s6)
   12d34:	017b3423          	sd	s7,8(s6)
   12d38:	00700793          	li	a5,7
   12d3c:	7557c463          	blt	a5,s5,13484 <_vfprintf_r+0x198c>
   12d40:	010b0b13          	addi	s6,s6,16
   12d44:	05813783          	ld	a5,88(sp)
   12d48:	05813703          	ld	a4,88(sp)
   12d4c:	001a8a9b          	addiw	s5,s5,1
   12d50:	01278933          	add	s2,a5,s2
   12d54:	0b810793          	addi	a5,sp,184
   12d58:	00fb3023          	sd	a5,0(s6)
   12d5c:	0f213823          	sd	s2,240(sp)
   12d60:	0f512423          	sw	s5,232(sp)
   12d64:	00eb3423          	sd	a4,8(s6)
   12d68:	00700793          	li	a5,7
   12d6c:	010b0b93          	addi	s7,s6,16
   12d70:	8957da63          	bge	a5,s5,11e04 <_vfprintf_r+0x30c>
   12d74:	00813583          	ld	a1,8(sp)
   12d78:	00013503          	ld	a0,0(sp)
   12d7c:	0e010613          	addi	a2,sp,224
   12d80:	05013023          	sd	a6,64(sp)
   12d84:	03c13c23          	sd	t3,56(sp)
   12d88:	451010ef          	jal	149d8 <__sprint_r>
   12d8c:	e60518e3          	bnez	a0,12bfc <_vfprintf_r+0x1104>
   12d90:	0f013903          	ld	s2,240(sp)
   12d94:	04013803          	ld	a6,64(sp)
   12d98:	03813e03          	ld	t3,56(sp)
   12d9c:	00098b93          	mv	s7,s3
   12da0:	864ff06f          	j	11e04 <_vfprintf_r+0x30c>
   12da4:	00813583          	ld	a1,8(sp)
   12da8:	00013503          	ld	a0,0(sp)
   12dac:	0e010613          	addi	a2,sp,224
   12db0:	09013823          	sd	a6,144(sp)
   12db4:	09c13423          	sd	t3,136(sp)
   12db8:	06613c23          	sd	t1,120(sp)
   12dbc:	06513823          	sd	t0,112(sp)
   12dc0:	419010ef          	jal	149d8 <__sprint_r>
   12dc4:	e2051ce3          	bnez	a0,12bfc <_vfprintf_r+0x1104>
   12dc8:	0f013903          	ld	s2,240(sp)
   12dcc:	09013803          	ld	a6,144(sp)
   12dd0:	08813e03          	ld	t3,136(sp)
   12dd4:	07813303          	ld	t1,120(sp)
   12dd8:	07013283          	ld	t0,112(sp)
   12ddc:	00098b93          	mv	s7,s3
   12de0:	fe5fe06f          	j	11dc4 <_vfprintf_r+0x2cc>
   12de4:	01000b13          	li	s6,16
   12de8:	0e812783          	lw	a5,232(sp)
   12dec:	0001e6b7          	lui	a3,0x1e
   12df0:	015b4463          	blt	s6,s5,12df8 <_vfprintf_r+0x1300>
   12df4:	60c0106f          	j	14400 <_vfprintf_r+0x2908>
   12df8:	00090713          	mv	a4,s2
   12dfc:	00813c03          	ld	s8,8(sp)
   12e00:	00700d93          	li	s11,7
   12e04:	00080913          	mv	s2,a6
   12e08:	5a868493          	addi	s1,a3,1448 # 1e5a8 <blanks.1>
   12e0c:	00c0006f          	j	12e18 <_vfprintf_r+0x1320>
   12e10:	ff0a8a9b          	addiw	s5,s5,-16
   12e14:	055b5663          	bge	s6,s5,12e60 <_vfprintf_r+0x1368>
   12e18:	01070713          	addi	a4,a4,16
   12e1c:	0017879b          	addiw	a5,a5,1
   12e20:	009bb023          	sd	s1,0(s7)
   12e24:	016bb423          	sd	s6,8(s7)
   12e28:	0ee13823          	sd	a4,240(sp)
   12e2c:	0ef12423          	sw	a5,232(sp)
   12e30:	010b8b93          	addi	s7,s7,16
   12e34:	fcfddee3          	bge	s11,a5,12e10 <_vfprintf_r+0x1318>
   12e38:	00013503          	ld	a0,0(sp)
   12e3c:	0e010613          	addi	a2,sp,224
   12e40:	000c0593          	mv	a1,s8
   12e44:	395010ef          	jal	149d8 <__sprint_r>
   12e48:	180512e3          	bnez	a0,137cc <_vfprintf_r+0x1cd4>
   12e4c:	ff0a8a9b          	addiw	s5,s5,-16
   12e50:	0f013703          	ld	a4,240(sp)
   12e54:	0e812783          	lw	a5,232(sp)
   12e58:	00098b93          	mv	s7,s3
   12e5c:	fb5b4ee3          	blt	s6,s5,12e18 <_vfprintf_r+0x1320>
   12e60:	00090813          	mv	a6,s2
   12e64:	00048693          	mv	a3,s1
   12e68:	00070913          	mv	s2,a4
   12e6c:	01590933          	add	s2,s2,s5
   12e70:	0017879b          	addiw	a5,a5,1
   12e74:	0f213823          	sd	s2,240(sp)
   12e78:	0ef12423          	sw	a5,232(sp)
   12e7c:	00dbb023          	sd	a3,0(s7)
   12e80:	015bb423          	sd	s5,8(s7)
   12e84:	00700713          	li	a4,7
   12e88:	00f74463          	blt	a4,a5,12e90 <_vfprintf_r+0x1398>
   12e8c:	f8dfe06f          	j	11e18 <_vfprintf_r+0x320>
   12e90:	00813583          	ld	a1,8(sp)
   12e94:	00013503          	ld	a0,0(sp)
   12e98:	0e010613          	addi	a2,sp,224
   12e9c:	03013c23          	sd	a6,56(sp)
   12ea0:	339010ef          	jal	149d8 <__sprint_r>
   12ea4:	d4051ce3          	bnez	a0,12bfc <_vfprintf_r+0x1104>
   12ea8:	0f013903          	ld	s2,240(sp)
   12eac:	03813803          	ld	a6,56(sp)
   12eb0:	f69fe06f          	j	11e18 <_vfprintf_r+0x320>
   12eb4:	15c10b13          	addi	s6,sp,348
   12eb8:	000b0d93          	mv	s11,s6
   12ebc:	0076f713          	andi	a4,a3,7
   12ec0:	000d8613          	mv	a2,s11
   12ec4:	03070713          	addi	a4,a4,48
   12ec8:	0036d693          	srli	a3,a3,0x3
   12ecc:	feed8fa3          	sb	a4,-1(s11)
   12ed0:	fffd8d93          	addi	s11,s11,-1
   12ed4:	fe0694e3          	bnez	a3,12ebc <_vfprintf_r+0x13c4>
   12ed8:	fd070713          	addi	a4,a4,-48
   12edc:	03000693          	li	a3,48
   12ee0:	00070663          	beqz	a4,12eec <_vfprintf_r+0x13f4>
   12ee4:	001e7713          	andi	a4,t3,1
   12ee8:	42071063          	bnez	a4,13308 <_vfprintf_r+0x1810>
   12eec:	41bb0b3b          	subw	s6,s6,s11
   12ef0:	000a881b          	sext.w	a6,s5
   12ef4:	3f6ac463          	blt	s5,s6,132dc <_vfprintf_r+0x17e4>
   12ef8:	02013023          	sd	zero,32(sp)
   12efc:	04013023          	sd	zero,64(sp)
   12f00:	02013c23          	sd	zero,56(sp)
   12f04:	00000493          	li	s1,0
   12f08:	e39fe06f          	j	11d40 <_vfprintf_r+0x248>
   12f0c:	0b012603          	lw	a2,176(sp)
   12f10:	acc05863          	blez	a2,121e0 <_vfprintf_r+0x6e8>
   12f14:	03013783          	ld	a5,48(sp)
   12f18:	00048713          	mv	a4,s1
   12f1c:	4c97c463          	blt	a5,s1,133e4 <_vfprintf_r+0x18ec>
   12f20:	00070b1b          	sext.w	s6,a4
   12f24:	03605663          	blez	s6,12f50 <_vfprintf_r+0x1458>
   12f28:	0e812703          	lw	a4,232(sp)
   12f2c:	01690933          	add	s2,s2,s6
   12f30:	01bbb023          	sd	s11,0(s7)
   12f34:	0017071b          	addiw	a4,a4,1
   12f38:	016bb423          	sd	s6,8(s7)
   12f3c:	0f213823          	sd	s2,240(sp)
   12f40:	0ee12423          	sw	a4,232(sp)
   12f44:	00700693          	li	a3,7
   12f48:	010b8b93          	addi	s7,s7,16
   12f4c:	52e6cce3          	blt	a3,a4,13c84 <_vfprintf_r+0x218c>
   12f50:	000b0a93          	mv	s5,s6
   12f54:	600b4863          	bltz	s6,13564 <_vfprintf_r+0x1a6c>
   12f58:	41548abb          	subw	s5,s1,s5
   12f5c:	65504a63          	bgtz	s5,135b0 <_vfprintf_r+0x1ab8>
   12f60:	400e7713          	andi	a4,t3,1024
   12f64:	009d8fb3          	add	t6,s11,s1
   12f68:	2e071ce3          	bnez	a4,13a60 <_vfprintf_r+0x1f68>
   12f6c:	0b012a83          	lw	s5,176(sp)
   12f70:	03013783          	ld	a5,48(sp)
   12f74:	00fac663          	blt	s5,a5,12f80 <_vfprintf_r+0x1488>
   12f78:	001e7713          	andi	a4,t3,1
   12f7c:	5a070ae3          	beqz	a4,13d30 <_vfprintf_r+0x2238>
   12f80:	04813783          	ld	a5,72(sp)
   12f84:	0e812703          	lw	a4,232(sp)
   12f88:	00700693          	li	a3,7
   12f8c:	00f90933          	add	s2,s2,a5
   12f90:	05013783          	ld	a5,80(sp)
   12f94:	0017071b          	addiw	a4,a4,1
   12f98:	0f213823          	sd	s2,240(sp)
   12f9c:	00fbb023          	sd	a5,0(s7)
   12fa0:	04813783          	ld	a5,72(sp)
   12fa4:	0ee12423          	sw	a4,232(sp)
   12fa8:	010b8b93          	addi	s7,s7,16
   12fac:	fefbbc23          	sd	a5,-8(s7)
   12fb0:	00e6d463          	bge	a3,a4,12fb8 <_vfprintf_r+0x14c0>
   12fb4:	3400106f          	j	142f4 <_vfprintf_r+0x27fc>
   12fb8:	03013783          	ld	a5,48(sp)
   12fbc:	00fd87b3          	add	a5,s11,a5
   12fc0:	41f78b33          	sub	s6,a5,t6
   12fc4:	03013783          	ld	a5,48(sp)
   12fc8:	41578abb          	subw	s5,a5,s5
   12fcc:	000b079b          	sext.w	a5,s6
   12fd0:	00fad463          	bge	s5,a5,12fd8 <_vfprintf_r+0x14e0>
   12fd4:	000a8b13          	mv	s6,s5
   12fd8:	000b0b1b          	sext.w	s6,s6
   12fdc:	03605863          	blez	s6,1300c <_vfprintf_r+0x1514>
   12fe0:	0e812783          	lw	a5,232(sp)
   12fe4:	01690933          	add	s2,s2,s6
   12fe8:	01fbb023          	sd	t6,0(s7)
   12fec:	0017879b          	addiw	a5,a5,1
   12ff0:	016bb423          	sd	s6,8(s7)
   12ff4:	0f213823          	sd	s2,240(sp)
   12ff8:	0ef12423          	sw	a5,232(sp)
   12ffc:	00700713          	li	a4,7
   13000:	010b8b93          	addi	s7,s7,16
   13004:	00f75463          	bge	a4,a5,1300c <_vfprintf_r+0x1514>
   13008:	3b80106f          	j	143c0 <_vfprintf_r+0x28c8>
   1300c:	000b0793          	mv	a5,s6
   13010:	000b5463          	bgez	s6,13018 <_vfprintf_r+0x1520>
   13014:	00000793          	li	a5,0
   13018:	40fa8abb          	subw	s5,s5,a5
   1301c:	01504463          	bgtz	s5,13024 <_vfprintf_r+0x152c>
   13020:	de5fe06f          	j	11e04 <_vfprintf_r+0x30c>
   13024:	01000b13          	li	s6,16
   13028:	0e812783          	lw	a5,232(sp)
   1302c:	0001e6b7          	lui	a3,0x1e
   13030:	015b4463          	blt	s6,s5,13038 <_vfprintf_r+0x1540>
   13034:	1840106f          	j	141b8 <_vfprintf_r+0x26c0>
   13038:	000a8493          	mv	s1,s5
   1303c:	00090713          	mv	a4,s2
   13040:	00700d93          	li	s11,7
   13044:	00080a93          	mv	s5,a6
   13048:	000e0913          	mv	s2,t3
   1304c:	59868c13          	addi	s8,a3,1432 # 1e598 <zeroes.0>
   13050:	00c0006f          	j	1305c <_vfprintf_r+0x1564>
   13054:	ff04849b          	addiw	s1,s1,-16
   13058:	769b5e63          	bge	s6,s1,137d4 <_vfprintf_r+0x1cdc>
   1305c:	01070713          	addi	a4,a4,16
   13060:	0017879b          	addiw	a5,a5,1
   13064:	018bb023          	sd	s8,0(s7)
   13068:	016bb423          	sd	s6,8(s7)
   1306c:	0ee13823          	sd	a4,240(sp)
   13070:	0ef12423          	sw	a5,232(sp)
   13074:	010b8b93          	addi	s7,s7,16
   13078:	fcfddee3          	bge	s11,a5,13054 <_vfprintf_r+0x155c>
   1307c:	00813583          	ld	a1,8(sp)
   13080:	00013503          	ld	a0,0(sp)
   13084:	0e010613          	addi	a2,sp,224
   13088:	151010ef          	jal	149d8 <__sprint_r>
   1308c:	b60518e3          	bnez	a0,12bfc <_vfprintf_r+0x1104>
   13090:	0f013703          	ld	a4,240(sp)
   13094:	0e812783          	lw	a5,232(sp)
   13098:	00098b93          	mv	s7,s3
   1309c:	fb9ff06f          	j	13054 <_vfprintf_r+0x155c>
   130a0:	00200393          	li	t2,2
   130a4:	01000913          	li	s2,16
   130a8:	00068613          	mv	a2,a3
   130ac:	0001e6b7          	lui	a3,0x1e
   130b0:	00e94463          	blt	s2,a4,130b8 <_vfprintf_r+0x15c0>
   130b4:	2a40106f          	j	14358 <_vfprintf_r+0x2860>
   130b8:	000b8793          	mv	a5,s7
   130bc:	09513823          	sd	s5,144(sp)
   130c0:	000b0b93          	mv	s7,s6
   130c4:	00700f93          	li	t6,7
   130c8:	00070493          	mv	s1,a4
   130cc:	06713823          	sd	t2,112(sp)
   130d0:	06513c23          	sd	t0,120(sp)
   130d4:	08613423          	sd	t1,136(sp)
   130d8:	000e0c13          	mv	s8,t3
   130dc:	00080b13          	mv	s6,a6
   130e0:	5a868a93          	addi	s5,a3,1448 # 1e5a8 <blanks.1>
   130e4:	00c0006f          	j	130f0 <_vfprintf_r+0x15f8>
   130e8:	ff04849b          	addiw	s1,s1,-16
   130ec:	04995863          	bge	s2,s1,1313c <_vfprintf_r+0x1644>
   130f0:	01058593          	addi	a1,a1,16
   130f4:	0016061b          	addiw	a2,a2,1
   130f8:	0157b023          	sd	s5,0(a5)
   130fc:	0127b423          	sd	s2,8(a5)
   13100:	0eb13823          	sd	a1,240(sp)
   13104:	0ec12423          	sw	a2,232(sp)
   13108:	01078793          	addi	a5,a5,16
   1310c:	fccfdee3          	bge	t6,a2,130e8 <_vfprintf_r+0x15f0>
   13110:	00813583          	ld	a1,8(sp)
   13114:	00013503          	ld	a0,0(sp)
   13118:	0e010613          	addi	a2,sp,224
   1311c:	0bd010ef          	jal	149d8 <__sprint_r>
   13120:	ac051ee3          	bnez	a0,12bfc <_vfprintf_r+0x1104>
   13124:	ff04849b          	addiw	s1,s1,-16
   13128:	0f013583          	ld	a1,240(sp)
   1312c:	0e812603          	lw	a2,232(sp)
   13130:	00098793          	mv	a5,s3
   13134:	00700f93          	li	t6,7
   13138:	fa994ce3          	blt	s2,s1,130f0 <_vfprintf_r+0x15f8>
   1313c:	000a8693          	mv	a3,s5
   13140:	07013383          	ld	t2,112(sp)
   13144:	07813283          	ld	t0,120(sp)
   13148:	08813303          	ld	t1,136(sp)
   1314c:	09013a83          	ld	s5,144(sp)
   13150:	000b0813          	mv	a6,s6
   13154:	00048713          	mv	a4,s1
   13158:	000b8b13          	mv	s6,s7
   1315c:	000c0e13          	mv	t3,s8
   13160:	00078b93          	mv	s7,a5
   13164:	00b70933          	add	s2,a4,a1
   13168:	0016061b          	addiw	a2,a2,1
   1316c:	00ebb423          	sd	a4,8(s7)
   13170:	0f213823          	sd	s2,240(sp)
   13174:	0ec12423          	sw	a2,232(sp)
   13178:	00dbb023          	sd	a3,0(s7)
   1317c:	00700713          	li	a4,7
   13180:	56c74263          	blt	a4,a2,136e4 <_vfprintf_r+0x1bec>
   13184:	0a714703          	lbu	a4,167(sp)
   13188:	010b8b93          	addi	s7,s7,16
   1318c:	00028493          	mv	s1,t0
   13190:	14071263          	bnez	a4,132d4 <_vfprintf_r+0x17dc>
   13194:	00039463          	bnez	t2,1319c <_vfprintf_r+0x16a4>
   13198:	c35fe06f          	j	11dcc <_vfprintf_r+0x2d4>
   1319c:	00000293          	li	t0,0
   131a0:	bf5fe06f          	j	11d94 <_vfprintf_r+0x29c>
   131a4:	0e812683          	lw	a3,232(sp)
   131a8:	00048293          	mv	t0,s1
   131ac:	00000393          	li	t2,0
   131b0:	ef5ff06f          	j	130a4 <_vfprintf_r+0x15ac>
   131b4:	00000b13          	li	s6,0
   131b8:	00000a93          	li	s5,0
   131bc:	04013023          	sd	zero,64(sp)
   131c0:	02013c23          	sd	zero,56(sp)
   131c4:	00000493          	li	s1,0
   131c8:	02013023          	sd	zero,32(sp)
   131cc:	15c10d93          	addi	s11,sp,348
   131d0:	b71fe06f          	j	11d40 <_vfprintf_r+0x248>
   131d4:	00de7633          	and	a2,t3,a3
   131d8:	ac0614e3          	bnez	a2,12ca0 <_vfprintf_r+0x11a8>
   131dc:	01bbb023          	sd	s11,0(s7)
   131e0:	00dbb423          	sd	a3,8(s7)
   131e4:	0f213823          	sd	s2,240(sp)
   131e8:	0f512423          	sw	s5,232(sp)
   131ec:	00700793          	li	a5,7
   131f0:	b557dae3          	bge	a5,s5,12d44 <_vfprintf_r+0x124c>
   131f4:	00813583          	ld	a1,8(sp)
   131f8:	00013503          	ld	a0,0(sp)
   131fc:	0e010613          	addi	a2,sp,224
   13200:	05013023          	sd	a6,64(sp)
   13204:	03c13c23          	sd	t3,56(sp)
   13208:	7d0010ef          	jal	149d8 <__sprint_r>
   1320c:	9e0518e3          	bnez	a0,12bfc <_vfprintf_r+0x1104>
   13210:	0f013903          	ld	s2,240(sp)
   13214:	0e812a83          	lw	s5,232(sp)
   13218:	04013803          	ld	a6,64(sp)
   1321c:	03813e03          	ld	t3,56(sp)
   13220:	00098b13          	mv	s6,s3
   13224:	b21ff06f          	j	12d44 <_vfprintf_r+0x124c>
   13228:	03013703          	ld	a4,48(sp)
   1322c:	00100793          	li	a5,1
   13230:	b0e7dae3          	bge	a5,a4,12d44 <_vfprintf_r+0x124c>
   13234:	01100793          	li	a5,17
   13238:	0001e6b7          	lui	a3,0x1e
   1323c:	00e7c463          	blt	a5,a4,13244 <_vfprintf_r+0x174c>
   13240:	5780106f          	j	147b8 <_vfprintf_r+0x2cc0>
   13244:	00090713          	mv	a4,s2
   13248:	000b8493          	mv	s1,s7
   1324c:	01000d93          	li	s11,16
   13250:	00700793          	li	a5,7
   13254:	000e0913          	mv	s2,t3
   13258:	00080b93          	mv	s7,a6
   1325c:	59868c13          	addi	s8,a3,1432 # 1e598 <zeroes.0>
   13260:	00c0006f          	j	1326c <_vfprintf_r+0x1774>
   13264:	ff04849b          	addiw	s1,s1,-16
   13268:	1e9dd463          	bge	s11,s1,13450 <_vfprintf_r+0x1958>
   1326c:	01070713          	addi	a4,a4,16
   13270:	001a8a9b          	addiw	s5,s5,1
   13274:	018b3023          	sd	s8,0(s6)
   13278:	01bb3423          	sd	s11,8(s6)
   1327c:	0ee13823          	sd	a4,240(sp)
   13280:	0f512423          	sw	s5,232(sp)
   13284:	010b0b13          	addi	s6,s6,16
   13288:	fd57dee3          	bge	a5,s5,13264 <_vfprintf_r+0x176c>
   1328c:	00813583          	ld	a1,8(sp)
   13290:	00013503          	ld	a0,0(sp)
   13294:	0e010613          	addi	a2,sp,224
   13298:	740010ef          	jal	149d8 <__sprint_r>
   1329c:	960510e3          	bnez	a0,12bfc <_vfprintf_r+0x1104>
   132a0:	0f013703          	ld	a4,240(sp)
   132a4:	0e812a83          	lw	s5,232(sp)
   132a8:	00098b13          	mv	s6,s3
   132ac:	00700793          	li	a5,7
   132b0:	fb5ff06f          	j	13264 <_vfprintf_r+0x176c>
   132b4:	001e7793          	andi	a5,t3,1
   132b8:	00079463          	bnez	a5,132c0 <_vfprintf_r+0x17c8>
   132bc:	b49fe06f          	j	11e04 <_vfprintf_r+0x30c>
   132c0:	e40ff06f          	j	12900 <_vfprintf_r+0xe08>
   132c4:	00878793          	addi	a5,a5,8
   132c8:	000cc303          	lbu	t1,0(s9)
   132cc:	00f13c23          	sd	a5,24(sp)
   132d0:	9ddfe06f          	j	11cac <_vfprintf_r+0x1b4>
   132d4:	00000293          	li	t0,0
   132d8:	a89fe06f          	j	11d60 <_vfprintf_r+0x268>
   132dc:	000b081b          	sext.w	a6,s6
   132e0:	02013023          	sd	zero,32(sp)
   132e4:	04013023          	sd	zero,64(sp)
   132e8:	02013c23          	sd	zero,56(sp)
   132ec:	00000493          	li	s1,0
   132f0:	a51fe06f          	j	11d40 <_vfprintf_r+0x248>
   132f4:	01013783          	ld	a5,16(sp)
   132f8:	00f73023          	sd	a5,0(a4)
   132fc:	915fe06f          	j	11c10 <_vfprintf_r+0x118>
   13300:	000e0813          	mv	a6,t3
   13304:	c00ff06f          	j	12704 <_vfprintf_r+0xc0c>
   13308:	ffe60613          	addi	a2,a2,-2
   1330c:	40cb0b3b          	subw	s6,s6,a2
   13310:	fedd8fa3          	sb	a3,-1(s11)
   13314:	000a881b          	sext.w	a6,s5
   13318:	016ad463          	bge	s5,s6,13320 <_vfprintf_r+0x1828>
   1331c:	000b081b          	sext.w	a6,s6
   13320:	00060d93          	mv	s11,a2
   13324:	02013023          	sd	zero,32(sp)
   13328:	04013023          	sd	zero,64(sp)
   1332c:	02013c23          	sd	zero,56(sp)
   13330:	00000493          	li	s1,0
   13334:	a0dfe06f          	j	11d40 <_vfprintf_r+0x248>
   13338:	01813783          	ld	a5,24(sp)
   1333c:	00878613          	addi	a2,a5,8
   13340:	01813783          	ld	a5,24(sp)
   13344:	000f0e13          	mv	t3,t5
   13348:	00c13c23          	sd	a2,24(sp)
   1334c:	0007b783          	ld	a5,0(a5)
   13350:	00078713          	mv	a4,a5
   13354:	84cff06f          	j	123a0 <_vfprintf_r+0x8a8>
   13358:	0104f793          	andi	a5,s1,16
   1335c:	00078463          	beqz	a5,13364 <_vfprintf_r+0x186c>
   13360:	1240106f          	j	14484 <_vfprintf_r+0x298c>
   13364:	01813703          	ld	a4,24(sp)
   13368:	0404f793          	andi	a5,s1,64
   1336c:	00870693          	addi	a3,a4,8
   13370:	00072703          	lw	a4,0(a4)
   13374:	2c078263          	beqz	a5,13638 <_vfprintf_r+0x1b40>
   13378:	03071713          	slli	a4,a4,0x30
   1337c:	0a0103a3          	sb	zero,167(sp)
   13380:	03075713          	srli	a4,a4,0x30
   13384:	2c0ac463          	bltz	s5,1364c <_vfprintf_r+0x1b54>
   13388:	00eaefb3          	or	t6,s5,a4
   1338c:	000f849b          	sext.w	s1,t6
   13390:	00d13c23          	sd	a3,24(sp)
   13394:	f7fe7e13          	andi	t3,t3,-129
   13398:	8c049063          	bnez	s1,12458 <_vfprintf_r+0x960>
   1339c:	e7cff06f          	j	12a18 <_vfprintf_r+0xf20>
   133a0:	01813783          	ld	a5,24(sp)
   133a4:	00f78793          	addi	a5,a5,15
   133a8:	ff07f793          	andi	a5,a5,-16
   133ac:	01078713          	addi	a4,a5,16
   133b0:	0007b503          	ld	a0,0(a5)
   133b4:	0087b583          	ld	a1,8(a5)
   133b8:	00e13c23          	sd	a4,24(sp)
   133bc:	b55fe06f          	j	11f10 <_vfprintf_r+0x418>
   133c0:	0a714503          	lbu	a0,167(sp)
   133c4:	00100813          	li	a6,1
   133c8:	00000493          	li	s1,0
   133cc:	00100b13          	li	s6,1
   133d0:	15b10d93          	addi	s11,sp,347
   133d4:	8acff06f          	j	12480 <_vfprintf_r+0x988>
   133d8:	00f13c23          	sd	a5,24(sp)
   133dc:	000f0e13          	mv	t3,t5
   133e0:	878ff06f          	j	12458 <_vfprintf_r+0x960>
   133e4:	03012703          	lw	a4,48(sp)
   133e8:	00070b1b          	sext.w	s6,a4
   133ec:	b3604ee3          	bgtz	s6,12f28 <_vfprintf_r+0x1430>
   133f0:	b61ff06f          	j	12f50 <_vfprintf_r+0x1458>
   133f4:	0001e637          	lui	a2,0x1e
   133f8:	0024ee13          	ori	t3,s1,2
   133fc:	00b13c23          	sd	a1,24(sp)
   13400:	2c860613          	addi	a2,a2,712 # 1e2c8 <__clzdi2+0x7c>
   13404:	00200493          	li	s1,2
   13408:	00000513          	li	a0,0
   1340c:	07800313          	li	t1,120
   13410:	15c10b13          	addi	s6,sp,348
   13414:	000b0d93          	mv	s11,s6
   13418:	00f77793          	andi	a5,a4,15
   1341c:	00f607b3          	add	a5,a2,a5
   13420:	0007c783          	lbu	a5,0(a5)
   13424:	00475713          	srli	a4,a4,0x4
   13428:	fffd8d93          	addi	s11,s11,-1
   1342c:	00fd8023          	sb	a5,0(s11)
   13430:	fe0714e3          	bnez	a4,13418 <_vfprintf_r+0x1920>
   13434:	41bb0b3b          	subw	s6,s6,s11
   13438:	000a881b          	sext.w	a6,s5
   1343c:	016ac463          	blt	s5,s6,13444 <_vfprintf_r+0x194c>
   13440:	840ff06f          	j	12480 <_vfprintf_r+0x988>
   13444:	000b081b          	sext.w	a6,s6
   13448:	02013023          	sd	zero,32(sp)
   1344c:	838ff06f          	j	12484 <_vfprintf_r+0x98c>
   13450:	00090e13          	mv	t3,s2
   13454:	000b8813          	mv	a6,s7
   13458:	00070913          	mv	s2,a4
   1345c:	00048b93          	mv	s7,s1
   13460:	000c0693          	mv	a3,s8
   13464:	01790933          	add	s2,s2,s7
   13468:	001a8a9b          	addiw	s5,s5,1
   1346c:	0f213823          	sd	s2,240(sp)
   13470:	0f512423          	sw	s5,232(sp)
   13474:	00db3023          	sd	a3,0(s6)
   13478:	017b3423          	sd	s7,8(s6)
   1347c:	00700793          	li	a5,7
   13480:	8d57d0e3          	bge	a5,s5,12d40 <_vfprintf_r+0x1248>
   13484:	00813583          	ld	a1,8(sp)
   13488:	00013503          	ld	a0,0(sp)
   1348c:	0e010613          	addi	a2,sp,224
   13490:	05013023          	sd	a6,64(sp)
   13494:	03c13c23          	sd	t3,56(sp)
   13498:	540010ef          	jal	149d8 <__sprint_r>
   1349c:	f6051063          	bnez	a0,12bfc <_vfprintf_r+0x1104>
   134a0:	0f013903          	ld	s2,240(sp)
   134a4:	0e812a83          	lw	s5,232(sp)
   134a8:	03813e03          	ld	t3,56(sp)
   134ac:	04013803          	ld	a6,64(sp)
   134b0:	00098b13          	mv	s6,s3
   134b4:	891ff06f          	j	12d44 <_vfprintf_r+0x124c>
   134b8:	fff00a93          	li	s5,-1
   134bc:	00060c93          	mv	s9,a2
   134c0:	ff4fe06f          	j	11cb4 <_vfprintf_r+0x1bc>
   134c4:	001cc303          	lbu	t1,1(s9)
   134c8:	0204e493          	ori	s1,s1,32
   134cc:	001c8c93          	addi	s9,s9,1
   134d0:	fdcfe06f          	j	11cac <_vfprintf_r+0x1b4>
   134d4:	00813583          	ld	a1,8(sp)
   134d8:	00013503          	ld	a0,0(sp)
   134dc:	0e010613          	addi	a2,sp,224
   134e0:	05013023          	sd	a6,64(sp)
   134e4:	03c13c23          	sd	t3,56(sp)
   134e8:	4f0010ef          	jal	149d8 <__sprint_r>
   134ec:	f0051863          	bnez	a0,12bfc <_vfprintf_r+0x1104>
   134f0:	0f013903          	ld	s2,240(sp)
   134f4:	04013803          	ld	a6,64(sp)
   134f8:	03813e03          	ld	t3,56(sp)
   134fc:	00098b93          	mv	s7,s3
   13500:	c34ff06f          	j	12934 <_vfprintf_r+0xe3c>
   13504:	001cc303          	lbu	t1,1(s9)
   13508:	2004e493          	ori	s1,s1,512
   1350c:	001c8c93          	addi	s9,s9,1
   13510:	f9cfe06f          	j	11cac <_vfprintf_r+0x1b4>
   13514:	0001e637          	lui	a2,0x1e
   13518:	00048e13          	mv	t3,s1
   1351c:	2e060613          	addi	a2,a2,736 # 1e2e0 <__clzdi2+0x94>
   13520:	01813703          	ld	a4,24(sp)
   13524:	020e7793          	andi	a5,t3,32
   13528:	00870593          	addi	a1,a4,8
   1352c:	12078463          	beqz	a5,13654 <_vfprintf_r+0x1b5c>
   13530:	00073703          	ld	a4,0(a4)
   13534:	001e7793          	andi	a5,t3,1
   13538:	00e036b3          	snez	a3,a4
   1353c:	00078463          	beqz	a5,13544 <_vfprintf_r+0x1a4c>
   13540:	20069e63          	bnez	a3,1375c <_vfprintf_r+0x1c64>
   13544:	0a0103a3          	sb	zero,167(sp)
   13548:	180ac463          	bltz	s5,136d0 <_vfprintf_r+0x1bd8>
   1354c:	b7fe7e13          	andi	t3,t3,-1153
   13550:	220a9c63          	bnez	s5,13788 <_vfprintf_r+0x1c90>
   13554:	22069a63          	bnez	a3,13788 <_vfprintf_r+0x1c90>
   13558:	00b13c23          	sd	a1,24(sp)
   1355c:	00000493          	li	s1,0
   13560:	cb8ff06f          	j	12a18 <_vfprintf_r+0xf20>
   13564:	00000a93          	li	s5,0
   13568:	9f1ff06f          	j	12f58 <_vfprintf_r+0x1460>
   1356c:	0001e637          	lui	a2,0x1e
   13570:	00048e13          	mv	t3,s1
   13574:	2c860613          	addi	a2,a2,712 # 1e2c8 <__clzdi2+0x7c>
   13578:	fa9ff06f          	j	13520 <_vfprintf_r+0x1a28>
   1357c:	00600793          	li	a5,6
   13580:	000a881b          	sext.w	a6,s5
   13584:	6f57ec63          	bltu	a5,s5,13c7c <_vfprintf_r+0x2184>
   13588:	0001e7b7          	lui	a5,0x1e
   1358c:	00913c23          	sd	s1,24(sp)
   13590:	00080b13          	mv	s6,a6
   13594:	2f878d93          	addi	s11,a5,760 # 1e2f8 <__clzdi2+0xac>
   13598:	02013023          	sd	zero,32(sp)
   1359c:	00000a93          	li	s5,0
   135a0:	04013023          	sd	zero,64(sp)
   135a4:	02013c23          	sd	zero,56(sp)
   135a8:	00000493          	li	s1,0
   135ac:	f94fe06f          	j	11d40 <_vfprintf_r+0x248>
   135b0:	01000893          	li	a7,16
   135b4:	0e812703          	lw	a4,232(sp)
   135b8:	0001e6b7          	lui	a3,0x1e
   135bc:	0158c463          	blt	a7,s5,135c4 <_vfprintf_r+0x1acc>
   135c0:	2940106f          	j	14854 <_vfprintf_r+0x2d5c>
   135c4:	000b8793          	mv	a5,s7
   135c8:	00090613          	mv	a2,s2
   135cc:	00048b93          	mv	s7,s1
   135d0:	00700b13          	li	s6,7
   135d4:	000a8493          	mv	s1,s5
   135d8:	000e0913          	mv	s2,t3
   135dc:	00080a93          	mv	s5,a6
   135e0:	59868c13          	addi	s8,a3,1432 # 1e598 <zeroes.0>
   135e4:	00c0006f          	j	135f0 <_vfprintf_r+0x1af8>
   135e8:	ff04849b          	addiw	s1,s1,-16
   135ec:	4098d263          	bge	a7,s1,139f0 <_vfprintf_r+0x1ef8>
   135f0:	01060613          	addi	a2,a2,16
   135f4:	0017071b          	addiw	a4,a4,1
   135f8:	0187b023          	sd	s8,0(a5)
   135fc:	0117b423          	sd	a7,8(a5)
   13600:	0ec13823          	sd	a2,240(sp)
   13604:	0ee12423          	sw	a4,232(sp)
   13608:	01078793          	addi	a5,a5,16
   1360c:	fceb5ee3          	bge	s6,a4,135e8 <_vfprintf_r+0x1af0>
   13610:	00813583          	ld	a1,8(sp)
   13614:	00013503          	ld	a0,0(sp)
   13618:	0e010613          	addi	a2,sp,224
   1361c:	3bc010ef          	jal	149d8 <__sprint_r>
   13620:	dc051e63          	bnez	a0,12bfc <_vfprintf_r+0x1104>
   13624:	0f013603          	ld	a2,240(sp)
   13628:	0e812703          	lw	a4,232(sp)
   1362c:	00098793          	mv	a5,s3
   13630:	01000893          	li	a7,16
   13634:	fb5ff06f          	j	135e8 <_vfprintf_r+0x1af0>
   13638:	2004f493          	andi	s1,s1,512
   1363c:	0a0103a3          	sb	zero,167(sp)
   13640:	74048863          	beqz	s1,13d90 <_vfprintf_r+0x2298>
   13644:	0ff77713          	zext.b	a4,a4
   13648:	d40ad0e3          	bgez	s5,13388 <_vfprintf_r+0x1890>
   1364c:	00d13c23          	sd	a3,24(sp)
   13650:	e09fe06f          	j	12458 <_vfprintf_r+0x960>
   13654:	010e7793          	andi	a5,t3,16
   13658:	0e078463          	beqz	a5,13740 <_vfprintf_r+0x1c48>
   1365c:	01813783          	ld	a5,24(sp)
   13660:	0007b703          	ld	a4,0(a5)
   13664:	ed1ff06f          	j	13534 <_vfprintf_r+0x1a3c>
   13668:	00813583          	ld	a1,8(sp)
   1366c:	00013503          	ld	a0,0(sp)
   13670:	0e010613          	addi	a2,sp,224
   13674:	05013023          	sd	a6,64(sp)
   13678:	03c13c23          	sd	t3,56(sp)
   1367c:	35c010ef          	jal	149d8 <__sprint_r>
   13680:	d6051e63          	bnez	a0,12bfc <_vfprintf_r+0x1104>
   13684:	0f013903          	ld	s2,240(sp)
   13688:	0e812a83          	lw	s5,232(sp)
   1368c:	04013803          	ld	a6,64(sp)
   13690:	03813e03          	ld	t3,56(sp)
   13694:	00098b13          	mv	s6,s3
   13698:	e24ff06f          	j	12cbc <_vfprintf_r+0x11c4>
   1369c:	00813583          	ld	a1,8(sp)
   136a0:	00013503          	ld	a0,0(sp)
   136a4:	0e010613          	addi	a2,sp,224
   136a8:	05013023          	sd	a6,64(sp)
   136ac:	03c13c23          	sd	t3,56(sp)
   136b0:	328010ef          	jal	149d8 <__sprint_r>
   136b4:	d4051463          	bnez	a0,12bfc <_vfprintf_r+0x1104>
   136b8:	0f013903          	ld	s2,240(sp)
   136bc:	0e812a83          	lw	s5,232(sp)
   136c0:	04013803          	ld	a6,64(sp)
   136c4:	03813e03          	ld	t3,56(sp)
   136c8:	00098b13          	mv	s6,s3
   136cc:	e20ff06f          	j	12cec <_vfprintf_r+0x11f4>
   136d0:	bffe7e13          	andi	t3,t3,-1025
   136d4:	00b13c23          	sd	a1,24(sp)
   136d8:	00000493          	li	s1,0
   136dc:	00000513          	li	a0,0
   136e0:	d31ff06f          	j	13410 <_vfprintf_r+0x1918>
   136e4:	00813583          	ld	a1,8(sp)
   136e8:	00013503          	ld	a0,0(sp)
   136ec:	0e010613          	addi	a2,sp,224
   136f0:	09013c23          	sd	a6,152(sp)
   136f4:	09c13823          	sd	t3,144(sp)
   136f8:	08613423          	sd	t1,136(sp)
   136fc:	06513c23          	sd	t0,120(sp)
   13700:	06713823          	sd	t2,112(sp)
   13704:	2d4010ef          	jal	149d8 <__sprint_r>
   13708:	ce051a63          	bnez	a0,12bfc <_vfprintf_r+0x1104>
   1370c:	07813283          	ld	t0,120(sp)
   13710:	0a714703          	lbu	a4,167(sp)
   13714:	0f013903          	ld	s2,240(sp)
   13718:	07013383          	ld	t2,112(sp)
   1371c:	08813303          	ld	t1,136(sp)
   13720:	09013e03          	ld	t3,144(sp)
   13724:	09813803          	ld	a6,152(sp)
   13728:	00028493          	mv	s1,t0
   1372c:	1a070463          	beqz	a4,138d4 <_vfprintf_r+0x1ddc>
   13730:	0e812603          	lw	a2,232(sp)
   13734:	00000293          	li	t0,0
   13738:	00098b93          	mv	s7,s3
   1373c:	e24fe06f          	j	11d60 <_vfprintf_r+0x268>
   13740:	01813703          	ld	a4,24(sp)
   13744:	040e7793          	andi	a5,t3,64
   13748:	00072703          	lw	a4,0(a4)
   1374c:	1a078c63          	beqz	a5,13904 <_vfprintf_r+0x1e0c>
   13750:	03071713          	slli	a4,a4,0x30
   13754:	03075713          	srli	a4,a4,0x30
   13758:	dddff06f          	j	13534 <_vfprintf_r+0x1a3c>
   1375c:	03000793          	li	a5,48
   13760:	0a6104a3          	sb	t1,169(sp)
   13764:	0a0103a3          	sb	zero,167(sp)
   13768:	0af10423          	sb	a5,168(sp)
   1376c:	260ac663          	bltz	s5,139d8 <_vfprintf_r+0x1ee0>
   13770:	b7fe7f13          	andi	t5,t3,-1153
   13774:	002f6e13          	ori	t3,t5,2
   13778:	00200493          	li	s1,2
   1377c:	0a714503          	lbu	a0,167(sp)
   13780:	00b13c23          	sd	a1,24(sp)
   13784:	c8dff06f          	j	13410 <_vfprintf_r+0x1918>
   13788:	00000493          	li	s1,0
   1378c:	ff1ff06f          	j	1377c <_vfprintf_r+0x1c84>
   13790:	00013503          	ld	a0,0(sp)
   13794:	e05fc0ef          	jal	10598 <__sinit>
   13798:	bb8fe06f          	j	11b50 <_vfprintf_r+0x58>
   1379c:	00813583          	ld	a1,8(sp)
   137a0:	00013503          	ld	a0,0(sp)
   137a4:	0e010613          	addi	a2,sp,224
   137a8:	05013023          	sd	a6,64(sp)
   137ac:	03c13c23          	sd	t3,56(sp)
   137b0:	228010ef          	jal	149d8 <__sprint_r>
   137b4:	c4051463          	bnez	a0,12bfc <_vfprintf_r+0x1104>
   137b8:	0f013903          	ld	s2,240(sp)
   137bc:	04013803          	ld	a6,64(sp)
   137c0:	03813e03          	ld	t3,56(sp)
   137c4:	00098b93          	mv	s7,s3
   137c8:	92cff06f          	j	128f4 <_vfprintf_r+0xdfc>
   137cc:	000c0493          	mv	s1,s8
   137d0:	c30ff06f          	j	12c00 <_vfprintf_r+0x1108>
   137d4:	00090e13          	mv	t3,s2
   137d8:	000a8813          	mv	a6,s5
   137dc:	00070913          	mv	s2,a4
   137e0:	00048a93          	mv	s5,s1
   137e4:	000c0693          	mv	a3,s8
   137e8:	01590933          	add	s2,s2,s5
   137ec:	0017879b          	addiw	a5,a5,1
   137f0:	0f213823          	sd	s2,240(sp)
   137f4:	0ef12423          	sw	a5,232(sp)
   137f8:	00dbb023          	sd	a3,0(s7)
   137fc:	015bb423          	sd	s5,8(s7)
   13800:	00700713          	li	a4,7
   13804:	00f74463          	blt	a4,a5,1380c <_vfprintf_r+0x1d14>
   13808:	df8fe06f          	j	11e00 <_vfprintf_r+0x308>
   1380c:	a81fe06f          	j	1228c <_vfprintf_r+0x794>
   13810:	0d013503          	ld	a0,208(sp)
   13814:	0d813583          	ld	a1,216(sp)
   13818:	f7fe7e13          	andi	t3,t3,-129
   1381c:	00000613          	li	a2,0
   13820:	00000693          	li	a3,0
   13824:	02613c23          	sd	t1,56(sp)
   13828:	03c13023          	sd	t3,32(sp)
   1382c:	71c090ef          	jal	1cf48 <__letf2>
   13830:	02013e03          	ld	t3,32(sp)
   13834:	03813303          	ld	t1,56(sp)
   13838:	260544e3          	bltz	a0,142a0 <_vfprintf_r+0x27a8>
   1383c:	04700793          	li	a5,71
   13840:	0a714703          	lbu	a4,167(sp)
   13844:	5a67cc63          	blt	a5,t1,13dfc <_vfprintf_r+0x2304>
   13848:	0001e7b7          	lui	a5,0x1e
   1384c:	2a878d93          	addi	s11,a5,680 # 1e2a8 <__clzdi2+0x5c>
   13850:	16071463          	bnez	a4,139b8 <_vfprintf_r+0x1ec0>
   13854:	00300b13          	li	s6,3
   13858:	000b0813          	mv	a6,s6
   1385c:	d3dff06f          	j	13598 <_vfprintf_r+0x1aa0>
   13860:	0001e637          	lui	a2,0x1e
   13864:	2c860613          	addi	a2,a2,712 # 1e2c8 <__clzdi2+0x7c>
   13868:	00200493          	li	s1,2
   1386c:	07800313          	li	t1,120
   13870:	f0dff06f          	j	1377c <_vfprintf_r+0x1c84>
   13874:	0f013783          	ld	a5,240(sp)
   13878:	00813483          	ld	s1,8(sp)
   1387c:	b8078c63          	beqz	a5,12c14 <_vfprintf_r+0x111c>
   13880:	00013503          	ld	a0,0(sp)
   13884:	0e010613          	addi	a2,sp,224
   13888:	00048593          	mv	a1,s1
   1388c:	14c010ef          	jal	149d8 <__sprint_r>
   13890:	b84ff06f          	j	12c14 <_vfprintf_r+0x111c>
   13894:	000d8513          	mv	a0,s11
   13898:	03c13023          	sd	t3,32(sp)
   1389c:	00613c23          	sd	t1,24(sp)
   138a0:	0b8020ef          	jal	15958 <strlen>
   138a4:	00050b1b          	sext.w	s6,a0
   138a8:	01813303          	ld	t1,24(sp)
   138ac:	02013e03          	ld	t3,32(sp)
   138b0:	000b0713          	mv	a4,s6
   138b4:	500b4263          	bltz	s6,13db8 <_vfprintf_r+0x22c0>
   138b8:	0a714683          	lbu	a3,167(sp)
   138bc:	0007081b          	sext.w	a6,a4
   138c0:	00069463          	bnez	a3,138c8 <_vfprintf_r+0x1dd0>
   138c4:	a91fe06f          	j	12354 <_vfprintf_r+0x85c>
   138c8:	0017081b          	addiw	a6,a4,1
   138cc:	00913c23          	sd	s1,24(sp)
   138d0:	cc9ff06f          	j	13598 <_vfprintf_r+0x1aa0>
   138d4:	46038e63          	beqz	t2,13d50 <_vfprintf_r+0x2258>
   138d8:	0e812603          	lw	a2,232(sp)
   138dc:	00000293          	li	t0,0
   138e0:	00098b93          	mv	s7,s3
   138e4:	cb0fe06f          	j	11d94 <_vfprintf_r+0x29c>
   138e8:	2004f793          	andi	a5,s1,512
   138ec:	48078c63          	beqz	a5,13d84 <_vfprintf_r+0x228c>
   138f0:	0187171b          	slliw	a4,a4,0x18
   138f4:	4187571b          	sraiw	a4,a4,0x18
   138f8:	00c13c23          	sd	a2,24(sp)
   138fc:	00070793          	mv	a5,a4
   13900:	aa1fe06f          	j	123a0 <_vfprintf_r+0x8a8>
   13904:	200e7793          	andi	a5,t3,512
   13908:	46078863          	beqz	a5,13d78 <_vfprintf_r+0x2280>
   1390c:	0ff77713          	zext.b	a4,a4
   13910:	c25ff06f          	j	13534 <_vfprintf_r+0x1a3c>
   13914:	2004f793          	andi	a5,s1,512
   13918:	44078063          	beqz	a5,13d58 <_vfprintf_r+0x2260>
   1391c:	0ff6f693          	zext.b	a3,a3
   13920:	00c13c23          	sd	a2,24(sp)
   13924:	00048813          	mv	a6,s1
   13928:	de9fe06f          	j	12710 <_vfprintf_r+0xc18>
   1392c:	02013023          	sd	zero,32(sp)
   13930:	00000b13          	li	s6,0
   13934:	04013023          	sd	zero,64(sp)
   13938:	02013c23          	sd	zero,56(sp)
   1393c:	00000493          	li	s1,0
   13940:	15c10d93          	addi	s11,sp,348
   13944:	00000813          	li	a6,0
   13948:	bf8fe06f          	j	11d40 <_vfprintf_r+0x248>
   1394c:	100e6713          	ori	a4,t3,256
   13950:	fff00793          	li	a5,-1
   13954:	02e13023          	sd	a4,32(sp)
   13958:	0d013483          	ld	s1,208(sp)
   1395c:	0d813b03          	ld	s6,216(sp)
   13960:	4afa8463          	beq	s5,a5,13e08 <_vfprintf_r+0x2310>
   13964:	06013823          	sd	zero,112(sp)
   13968:	000a9663          	bnez	s5,13974 <_vfprintf_r+0x1e7c>
   1396c:	fb990713          	addi	a4,s2,-71
   13970:	64070a63          	beqz	a4,13fc4 <_vfprintf_r+0x24cc>
   13974:	4a0b5063          	bgez	s6,13e14 <_vfprintf_r+0x231c>
   13978:	fff00793          	li	a5,-1
   1397c:	03f79793          	slli	a5,a5,0x3f
   13980:	00fb4b33          	xor	s6,s6,a5
   13984:	02d00793          	li	a5,45
   13988:	06f13823          	sd	a5,112(sp)
   1398c:	4880006f          	j	13e14 <_vfprintf_r+0x231c>
   13990:	0d813783          	ld	a5,216(sp)
   13994:	f7fe7e13          	andi	t3,t3,-129
   13998:	03f7d493          	srli	s1,a5,0x3f
   1399c:	4207d663          	bgez	a5,13dc8 <_vfprintf_r+0x22d0>
   139a0:	02d00793          	li	a5,45
   139a4:	0af103a3          	sb	a5,167(sp)
   139a8:	04700793          	li	a5,71
   139ac:	4867d6e3          	bge	a5,t1,14638 <_vfprintf_r+0x2b40>
   139b0:	0001e7b7          	lui	a5,0x1e
   139b4:	2c078d93          	addi	s11,a5,704 # 1e2c0 <__clzdi2+0x74>
   139b8:	02013023          	sd	zero,32(sp)
   139bc:	00300b13          	li	s6,3
   139c0:	00000a93          	li	s5,0
   139c4:	04013023          	sd	zero,64(sp)
   139c8:	02013c23          	sd	zero,56(sp)
   139cc:	00000493          	li	s1,0
   139d0:	00400813          	li	a6,4
   139d4:	b6cfe06f          	j	11d40 <_vfprintf_r+0x248>
   139d8:	bffe7f13          	andi	t5,t3,-1025
   139dc:	002f6e13          	ori	t3,t5,2
   139e0:	00b13c23          	sd	a1,24(sp)
   139e4:	00200493          	li	s1,2
   139e8:	00000513          	li	a0,0
   139ec:	a25ff06f          	j	13410 <_vfprintf_r+0x1918>
   139f0:	00090e13          	mv	t3,s2
   139f4:	000a8813          	mv	a6,s5
   139f8:	00060913          	mv	s2,a2
   139fc:	00048a93          	mv	s5,s1
   13a00:	000c0693          	mv	a3,s8
   13a04:	000b8493          	mv	s1,s7
   13a08:	00078b93          	mv	s7,a5
   13a0c:	01590933          	add	s2,s2,s5
   13a10:	0017071b          	addiw	a4,a4,1
   13a14:	00dbb023          	sd	a3,0(s7)
   13a18:	015bb423          	sd	s5,8(s7)
   13a1c:	0f213823          	sd	s2,240(sp)
   13a20:	0ee12423          	sw	a4,232(sp)
   13a24:	00700693          	li	a3,7
   13a28:	010b8b93          	addi	s7,s7,16
   13a2c:	d2e6da63          	bge	a3,a4,12f60 <_vfprintf_r+0x1468>
   13a30:	00813583          	ld	a1,8(sp)
   13a34:	00013503          	ld	a0,0(sp)
   13a38:	0e010613          	addi	a2,sp,224
   13a3c:	07013c23          	sd	a6,120(sp)
   13a40:	07c13823          	sd	t3,112(sp)
   13a44:	795000ef          	jal	149d8 <__sprint_r>
   13a48:	9a051a63          	bnez	a0,12bfc <_vfprintf_r+0x1104>
   13a4c:	0f013903          	ld	s2,240(sp)
   13a50:	07813803          	ld	a6,120(sp)
   13a54:	07013e03          	ld	t3,112(sp)
   13a58:	00098b93          	mv	s7,s3
   13a5c:	d04ff06f          	j	12f60 <_vfprintf_r+0x1468>
   13a60:	03813783          	ld	a5,56(sp)
   13a64:	04013703          	ld	a4,64(sp)
   13a68:	00e7e733          	or	a4,a5,a4
   13a6c:	640706e3          	beqz	a4,148b8 <_vfprintf_r+0x2dc0>
   13a70:	03013783          	ld	a5,48(sp)
   13a74:	07a13823          	sd	s10,112(sp)
   13a78:	07b13c23          	sd	s11,120(sp)
   13a7c:	00fd8333          	add	t1,s11,a5
   13a80:	00090713          	mv	a4,s2
   13a84:	09913c23          	sd	s9,152(sp)
   13a88:	06813d03          	ld	s10,104(sp)
   13a8c:	04013d83          	ld	s11,64(sp)
   13a90:	03813903          	ld	s2,56(sp)
   13a94:	08013c83          	ld	s9,128(sp)
   13a98:	00813a83          	ld	s5,8(sp)
   13a9c:	0001e8b7          	lui	a7,0x1e
   13aa0:	000b8793          	mv	a5,s7
   13aa4:	59888893          	addi	a7,a7,1432 # 1e598 <zeroes.0>
   13aa8:	00700693          	li	a3,7
   13aac:	01000b13          	li	s6,16
   13ab0:	000f8c13          	mv	s8,t6
   13ab4:	09c13423          	sd	t3,136(sp)
   13ab8:	09013823          	sd	a6,144(sp)
   13abc:	00030b93          	mv	s7,t1
   13ac0:	0bb04263          	bgtz	s11,13b64 <_vfprintf_r+0x206c>
   13ac4:	fffd0d13          	addi	s10,s10,-1
   13ac8:	fff9091b          	addiw	s2,s2,-1
   13acc:	0e812603          	lw	a2,232(sp)
   13ad0:	06013583          	ld	a1,96(sp)
   13ad4:	01970733          	add	a4,a4,s9
   13ad8:	0016061b          	addiw	a2,a2,1
   13adc:	00b7b023          	sd	a1,0(a5)
   13ae0:	0197b423          	sd	s9,8(a5)
   13ae4:	0ee13823          	sd	a4,240(sp)
   13ae8:	0ec12423          	sw	a2,232(sp)
   13aec:	01078793          	addi	a5,a5,16
   13af0:	12c6c263          	blt	a3,a2,13c14 <_vfprintf_r+0x211c>
   13af4:	000d4603          	lbu	a2,0(s10)
   13af8:	418b83b3          	sub	t2,s7,s8
   13afc:	0003859b          	sext.w	a1,t2
   13b00:	0006081b          	sext.w	a6,a2
   13b04:	000b8293          	mv	t0,s7
   13b08:	00b65463          	bge	a2,a1,13b10 <_vfprintf_r+0x2018>
   13b0c:	00080393          	mv	t2,a6
   13b10:	0003849b          	sext.w	s1,t2
   13b14:	02905863          	blez	s1,13b44 <_vfprintf_r+0x204c>
   13b18:	0e812603          	lw	a2,232(sp)
   13b1c:	00970733          	add	a4,a4,s1
   13b20:	0ee13823          	sd	a4,240(sp)
   13b24:	0016061b          	addiw	a2,a2,1
   13b28:	0187b023          	sd	s8,0(a5)
   13b2c:	0097b423          	sd	s1,8(a5)
   13b30:	0ec12423          	sw	a2,232(sp)
   13b34:	10c6c663          	blt	a3,a2,13c40 <_vfprintf_r+0x2148>
   13b38:	000d4603          	lbu	a2,0(s10)
   13b3c:	01078793          	addi	a5,a5,16
   13b40:	0006081b          	sext.w	a6,a2
   13b44:	00048593          	mv	a1,s1
   13b48:	0004d463          	bgez	s1,13b50 <_vfprintf_r+0x2058>
   13b4c:	00000593          	li	a1,0
   13b50:	40b804bb          	subw	s1,a6,a1
   13b54:	00904c63          	bgtz	s1,13b6c <_vfprintf_r+0x2074>
   13b58:	00cc0c33          	add	s8,s8,a2
   13b5c:	f72042e3          	bgtz	s2,13ac0 <_vfprintf_r+0x1fc8>
   13b60:	43b05663          	blez	s11,13f8c <_vfprintf_r+0x2494>
   13b64:	fffd8d9b          	addiw	s11,s11,-1
   13b68:	f65ff06f          	j	13acc <_vfprintf_r+0x1fd4>
   13b6c:	0001e5b7          	lui	a1,0x1e
   13b70:	0e812603          	lw	a2,232(sp)
   13b74:	59858593          	addi	a1,a1,1432 # 1e598 <zeroes.0>
   13b78:	069b5a63          	bge	s6,s1,13bec <_vfprintf_r+0x20f4>
   13b7c:	02513c23          	sd	t0,56(sp)
   13b80:	05113023          	sd	a7,64(sp)
   13b84:	00c0006f          	j	13b90 <_vfprintf_r+0x2098>
   13b88:	ff04849b          	addiw	s1,s1,-16
   13b8c:	049b5c63          	bge	s6,s1,13be4 <_vfprintf_r+0x20ec>
   13b90:	01070713          	addi	a4,a4,16
   13b94:	0016061b          	addiw	a2,a2,1
   13b98:	0117b023          	sd	a7,0(a5)
   13b9c:	0167b423          	sd	s6,8(a5)
   13ba0:	0ee13823          	sd	a4,240(sp)
   13ba4:	0ec12423          	sw	a2,232(sp)
   13ba8:	01078793          	addi	a5,a5,16
   13bac:	fcc6dee3          	bge	a3,a2,13b88 <_vfprintf_r+0x2090>
   13bb0:	00013503          	ld	a0,0(sp)
   13bb4:	0e010613          	addi	a2,sp,224
   13bb8:	000a8593          	mv	a1,s5
   13bbc:	61d000ef          	jal	149d8 <__sprint_r>
   13bc0:	62051c63          	bnez	a0,141f8 <_vfprintf_r+0x2700>
   13bc4:	0001e6b7          	lui	a3,0x1e
   13bc8:	ff04849b          	addiw	s1,s1,-16
   13bcc:	59868893          	addi	a7,a3,1432 # 1e598 <zeroes.0>
   13bd0:	0f013703          	ld	a4,240(sp)
   13bd4:	0e812603          	lw	a2,232(sp)
   13bd8:	00098793          	mv	a5,s3
   13bdc:	00700693          	li	a3,7
   13be0:	fa9b48e3          	blt	s6,s1,13b90 <_vfprintf_r+0x2098>
   13be4:	03813283          	ld	t0,56(sp)
   13be8:	04013583          	ld	a1,64(sp)
   13bec:	00970733          	add	a4,a4,s1
   13bf0:	0016061b          	addiw	a2,a2,1
   13bf4:	0ee13823          	sd	a4,240(sp)
   13bf8:	0ec12423          	sw	a2,232(sp)
   13bfc:	00b7b023          	sd	a1,0(a5)
   13c00:	0097b423          	sd	s1,8(a5)
   13c04:	6ac6cc63          	blt	a3,a2,142bc <_vfprintf_r+0x27c4>
   13c08:	000d4603          	lbu	a2,0(s10)
   13c0c:	01078793          	addi	a5,a5,16
   13c10:	f49ff06f          	j	13b58 <_vfprintf_r+0x2060>
   13c14:	00013503          	ld	a0,0(sp)
   13c18:	0e010613          	addi	a2,sp,224
   13c1c:	000a8593          	mv	a1,s5
   13c20:	5b9000ef          	jal	149d8 <__sprint_r>
   13c24:	5c051a63          	bnez	a0,141f8 <_vfprintf_r+0x2700>
   13c28:	0001e6b7          	lui	a3,0x1e
   13c2c:	59868893          	addi	a7,a3,1432 # 1e598 <zeroes.0>
   13c30:	0f013703          	ld	a4,240(sp)
   13c34:	00098793          	mv	a5,s3
   13c38:	00700693          	li	a3,7
   13c3c:	eb9ff06f          	j	13af4 <_vfprintf_r+0x1ffc>
   13c40:	00013503          	ld	a0,0(sp)
   13c44:	0e010613          	addi	a2,sp,224
   13c48:	000a8593          	mv	a1,s5
   13c4c:	02513c23          	sd	t0,56(sp)
   13c50:	589000ef          	jal	149d8 <__sprint_r>
   13c54:	5a051263          	bnez	a0,141f8 <_vfprintf_r+0x2700>
   13c58:	000d4603          	lbu	a2,0(s10)
   13c5c:	0001e6b7          	lui	a3,0x1e
   13c60:	59868893          	addi	a7,a3,1432 # 1e598 <zeroes.0>
   13c64:	0f013703          	ld	a4,240(sp)
   13c68:	03813283          	ld	t0,56(sp)
   13c6c:	00098793          	mv	a5,s3
   13c70:	0006081b          	sext.w	a6,a2
   13c74:	00700693          	li	a3,7
   13c78:	ecdff06f          	j	13b44 <_vfprintf_r+0x204c>
   13c7c:	0007881b          	sext.w	a6,a5
   13c80:	909ff06f          	j	13588 <_vfprintf_r+0x1a90>
   13c84:	00813583          	ld	a1,8(sp)
   13c88:	00013503          	ld	a0,0(sp)
   13c8c:	0e010613          	addi	a2,sp,224
   13c90:	07013c23          	sd	a6,120(sp)
   13c94:	07c13823          	sd	t3,112(sp)
   13c98:	541000ef          	jal	149d8 <__sprint_r>
   13c9c:	00050463          	beqz	a0,13ca4 <_vfprintf_r+0x21ac>
   13ca0:	f5dfe06f          	j	12bfc <_vfprintf_r+0x1104>
   13ca4:	0f013903          	ld	s2,240(sp)
   13ca8:	07813803          	ld	a6,120(sp)
   13cac:	07013e03          	ld	t3,112(sp)
   13cb0:	00098b93          	mv	s7,s3
   13cb4:	a9cff06f          	j	12f50 <_vfprintf_r+0x1458>
   13cb8:	001e7713          	andi	a4,t3,1
   13cbc:	00071463          	bnez	a4,13cc4 <_vfprintf_r+0x21cc>
   13cc0:	944fe06f          	j	11e04 <_vfprintf_r+0x30c>
   13cc4:	04813783          	ld	a5,72(sp)
   13cc8:	0e812703          	lw	a4,232(sp)
   13ccc:	00700693          	li	a3,7
   13cd0:	01278933          	add	s2,a5,s2
   13cd4:	05013783          	ld	a5,80(sp)
   13cd8:	0017071b          	addiw	a4,a4,1
   13cdc:	0f213823          	sd	s2,240(sp)
   13ce0:	00fbb023          	sd	a5,0(s7)
   13ce4:	04813783          	ld	a5,72(sp)
   13ce8:	0ee12423          	sw	a4,232(sp)
   13cec:	00fbb423          	sd	a5,8(s7)
   13cf0:	50e6d863          	bge	a3,a4,14200 <_vfprintf_r+0x2708>
   13cf4:	00813583          	ld	a1,8(sp)
   13cf8:	00013503          	ld	a0,0(sp)
   13cfc:	0e010613          	addi	a2,sp,224
   13d00:	05013023          	sd	a6,64(sp)
   13d04:	03c13c23          	sd	t3,56(sp)
   13d08:	4d1000ef          	jal	149d8 <__sprint_r>
   13d0c:	00050463          	beqz	a0,13d14 <_vfprintf_r+0x221c>
   13d10:	eedfe06f          	j	12bfc <_vfprintf_r+0x1104>
   13d14:	0b012603          	lw	a2,176(sp)
   13d18:	0f013903          	ld	s2,240(sp)
   13d1c:	0e812703          	lw	a4,232(sp)
   13d20:	04013803          	ld	a6,64(sp)
   13d24:	03813e03          	ld	t3,56(sp)
   13d28:	00098b93          	mv	s7,s3
   13d2c:	d34fe06f          	j	12260 <_vfprintf_r+0x768>
   13d30:	00fd8b33          	add	s6,s11,a5
   13d34:	41fb0b33          	sub	s6,s6,t6
   13d38:	41578abb          	subw	s5,a5,s5
   13d3c:	000b079b          	sext.w	a5,s6
   13d40:	00fad463          	bge	s5,a5,13d48 <_vfprintf_r+0x2250>
   13d44:	000a8b13          	mv	s6,s5
   13d48:	000b0b1b          	sext.w	s6,s6
   13d4c:	ac0ff06f          	j	1300c <_vfprintf_r+0x1514>
   13d50:	00098b93          	mv	s7,s3
   13d54:	878fe06f          	j	11dcc <_vfprintf_r+0x2d4>
   13d58:	02069693          	slli	a3,a3,0x20
   13d5c:	0206d693          	srli	a3,a3,0x20
   13d60:	00c13c23          	sd	a2,24(sp)
   13d64:	00048813          	mv	a6,s1
   13d68:	9a9fe06f          	j	12710 <_vfprintf_r+0xc18>
   13d6c:	01013783          	ld	a5,16(sp)
   13d70:	00f71023          	sh	a5,0(a4)
   13d74:	e9dfd06f          	j	11c10 <_vfprintf_r+0x118>
   13d78:	02071713          	slli	a4,a4,0x20
   13d7c:	02075713          	srli	a4,a4,0x20
   13d80:	fb4ff06f          	j	13534 <_vfprintf_r+0x1a3c>
   13d84:	00c13c23          	sd	a2,24(sp)
   13d88:	00070793          	mv	a5,a4
   13d8c:	e14fe06f          	j	123a0 <_vfprintf_r+0x8a8>
   13d90:	02071713          	slli	a4,a4,0x20
   13d94:	02075713          	srli	a4,a4,0x20
   13d98:	8a0acae3          	bltz	s5,1364c <_vfprintf_r+0x1b54>
   13d9c:	00d13c23          	sd	a3,24(sp)
   13da0:	f7fe7e13          	andi	t3,t3,-129
   13da4:	000a8463          	beqz	s5,13dac <_vfprintf_r+0x22b4>
   13da8:	eb0fe06f          	j	12458 <_vfprintf_r+0x960>
   13dac:	00071463          	bnez	a4,13db4 <_vfprintf_r+0x22bc>
   13db0:	c69fe06f          	j	12a18 <_vfprintf_r+0xf20>
   13db4:	ea4fe06f          	j	12458 <_vfprintf_r+0x960>
   13db8:	00000713          	li	a4,0
   13dbc:	afdff06f          	j	138b8 <_vfprintf_r+0x1dc0>
   13dc0:	00000693          	li	a3,0
   13dc4:	d84fe06f          	j	12348 <_vfprintf_r+0x850>
   13dc8:	04700793          	li	a5,71
   13dcc:	0a714703          	lbu	a4,167(sp)
   13dd0:	0667dae3          	bge	a5,t1,14644 <_vfprintf_r+0x2b4c>
   13dd4:	0001e7b7          	lui	a5,0x1e
   13dd8:	2c078d93          	addi	s11,a5,704 # 1e2c0 <__clzdi2+0x74>
   13ddc:	2a071ae3          	bnez	a4,14890 <_vfprintf_r+0x2d98>
   13de0:	00300b13          	li	s6,3
   13de4:	000b0813          	mv	a6,s6
   13de8:	00000a93          	li	s5,0
   13dec:	04013023          	sd	zero,64(sp)
   13df0:	02013c23          	sd	zero,56(sp)
   13df4:	02013023          	sd	zero,32(sp)
   13df8:	f49fd06f          	j	11d40 <_vfprintf_r+0x248>
   13dfc:	0001e7b7          	lui	a5,0x1e
   13e00:	2b078d93          	addi	s11,a5,688 # 1e2b0 <__clzdi2+0x64>
   13e04:	a4dff06f          	j	13850 <_vfprintf_r+0x1d58>
   13e08:	1a0b4ce3          	bltz	s6,147c0 <_vfprintf_r+0x2cc8>
   13e0c:	06013823          	sd	zero,112(sp)
   13e10:	00600a93          	li	s5,6
   13e14:	04600793          	li	a5,70
   13e18:	3ef91863          	bne	s2,a5,14208 <_vfprintf_r+0x2710>
   13e1c:	00013503          	ld	a0,0(sp)
   13e20:	000a8713          	mv	a4,s5
   13e24:	00300693          	li	a3,3
   13e28:	000b0613          	mv	a2,s6
   13e2c:	0c810893          	addi	a7,sp,200
   13e30:	0b410813          	addi	a6,sp,180
   13e34:	0b010793          	addi	a5,sp,176
   13e38:	00048593          	mv	a1,s1
   13e3c:	03c13c23          	sd	t3,56(sp)
   13e40:	02613823          	sd	t1,48(sp)
   13e44:	589010ef          	jal	15bcc <_ldtoa_r>
   13e48:	00054603          	lbu	a2,0(a0)
   13e4c:	03000693          	li	a3,48
   13e50:	03013303          	ld	t1,48(sp)
   13e54:	03813e03          	ld	t3,56(sp)
   13e58:	00050d93          	mv	s11,a0
   13e5c:	01550733          	add	a4,a0,s5
   13e60:	00d608e3          	beq	a2,a3,14670 <_vfprintf_r+0x2b78>
   13e64:	0b012783          	lw	a5,176(sp)
   13e68:	00048513          	mv	a0,s1
   13e6c:	000b0593          	mv	a1,s6
   13e70:	00000613          	li	a2,0
   13e74:	00000693          	li	a3,0
   13e78:	03c13c23          	sd	t3,56(sp)
   13e7c:	02613823          	sd	t1,48(sp)
   13e80:	00f70c33          	add	s8,a4,a5
   13e84:	73d080ef          	jal	1cdc0 <__eqtf2>
   13e88:	03013303          	ld	t1,48(sp)
   13e8c:	03813e03          	ld	t3,56(sp)
   13e90:	78050c63          	beqz	a0,14628 <_vfprintf_r+0x2b30>
   13e94:	0c813883          	ld	a7,200(sp)
   13e98:	2588f2e3          	bgeu	a7,s8,148dc <_vfprintf_r+0x2de4>
   13e9c:	03000693          	li	a3,48
   13ea0:	00188793          	addi	a5,a7,1
   13ea4:	0cf13423          	sd	a5,200(sp)
   13ea8:	00d88023          	sb	a3,0(a7)
   13eac:	0c813883          	ld	a7,200(sp)
   13eb0:	ff88e8e3          	bltu	a7,s8,13ea0 <_vfprintf_r+0x23a8>
   13eb4:	41b888b3          	sub	a7,a7,s11
   13eb8:	0008879b          	sext.w	a5,a7
   13ebc:	04700713          	li	a4,71
   13ec0:	02f13823          	sd	a5,48(sp)
   13ec4:	0b012483          	lw	s1,176(sp)
   13ec8:	16e90663          	beq	s2,a4,14034 <_vfprintf_r+0x253c>
   13ecc:	04600713          	li	a4,70
   13ed0:	16e91a63          	bne	s2,a4,14044 <_vfprintf_r+0x254c>
   13ed4:	001e7713          	andi	a4,t3,1
   13ed8:	00eae733          	or	a4,s5,a4
   13edc:	0007071b          	sext.w	a4,a4
   13ee0:	109054e3          	blez	s1,147e8 <_vfprintf_r+0x2cf0>
   13ee4:	76071663          	bnez	a4,14650 <_vfprintf_r+0x2b58>
   13ee8:	00048b13          	mv	s6,s1
   13eec:	06600313          	li	t1,102
   13ef0:	400e7f13          	andi	t5,t3,1024
   13ef4:	6c0f1e63          	bnez	t5,145d0 <_vfprintf_r+0x2ad8>
   13ef8:	000b081b          	sext.w	a6,s6
   13efc:	000b5463          	bgez	s6,13f04 <_vfprintf_r+0x240c>
   13f00:	00000813          	li	a6,0
   13f04:	07013783          	ld	a5,112(sp)
   13f08:	4a078463          	beqz	a5,143b0 <_vfprintf_r+0x28b8>
   13f0c:	02d00713          	li	a4,45
   13f10:	0ae103a3          	sb	a4,167(sp)
   13f14:	0018081b          	addiw	a6,a6,1
   13f18:	02013e03          	ld	t3,32(sp)
   13f1c:	00000a93          	li	s5,0
   13f20:	02013023          	sd	zero,32(sp)
   13f24:	04013023          	sd	zero,64(sp)
   13f28:	02013c23          	sd	zero,56(sp)
   13f2c:	e15fd06f          	j	11d40 <_vfprintf_r+0x248>
   13f30:	07800793          	li	a5,120
   13f34:	840fe06f          	j	11f74 <_vfprintf_r+0x47c>
   13f38:	00013503          	ld	a0,0(sp)
   13f3c:	001a859b          	addiw	a1,s5,1
   13f40:	03c13823          	sd	t3,48(sp)
   13f44:	02613023          	sd	t1,32(sp)
   13f48:	ac4fd0ef          	jal	1120c <_malloc_r>
   13f4c:	02013303          	ld	t1,32(sp)
   13f50:	03013e03          	ld	t3,48(sp)
   13f54:	00050d93          	mv	s11,a0
   13f58:	18050ae3          	beqz	a0,148ec <_vfprintf_r+0x2df4>
   13f5c:	0d813583          	ld	a1,216(sp)
   13f60:	03b13023          	sd	s11,32(sp)
   13f64:	06013823          	sd	zero,112(sp)
   13f68:	0d013503          	ld	a0,208(sp)
   13f6c:	0005c463          	bltz	a1,13f74 <_vfprintf_r+0x247c>
   13f70:	830fe06f          	j	11fa0 <_vfprintf_r+0x4a8>
   13f74:	fff00713          	li	a4,-1
   13f78:	03f71713          	slli	a4,a4,0x3f
   13f7c:	02d00793          	li	a5,45
   13f80:	00e5c5b3          	xor	a1,a1,a4
   13f84:	06f13823          	sd	a5,112(sp)
   13f88:	818fe06f          	j	11fa0 <_vfprintf_r+0x4a8>
   13f8c:	07a13423          	sd	s10,104(sp)
   13f90:	07813d83          	ld	s11,120(sp)
   13f94:	08813e03          	ld	t3,136(sp)
   13f98:	07013d03          	ld	s10,112(sp)
   13f9c:	09013803          	ld	a6,144(sp)
   13fa0:	09813c83          	ld	s9,152(sp)
   13fa4:	000c0f93          	mv	t6,s8
   13fa8:	00078b93          	mv	s7,a5
   13fac:	00028c13          	mv	s8,t0
   13fb0:	00070913          	mv	s2,a4
   13fb4:	01fc6463          	bltu	s8,t6,13fbc <_vfprintf_r+0x24c4>
   13fb8:	fb5fe06f          	j	12f6c <_vfprintf_r+0x1474>
   13fbc:	000c0f93          	mv	t6,s8
   13fc0:	fadfe06f          	j	12f6c <_vfprintf_r+0x1474>
   13fc4:	000b5a63          	bgez	s6,13fd8 <_vfprintf_r+0x24e0>
   13fc8:	03f79793          	slli	a5,a5,0x3f
   13fcc:	00fb4b33          	xor	s6,s6,a5
   13fd0:	02d00793          	li	a5,45
   13fd4:	06f13823          	sd	a5,112(sp)
   13fd8:	00013503          	ld	a0,0(sp)
   13fdc:	0c810893          	addi	a7,sp,200
   13fe0:	0b410813          	addi	a6,sp,180
   13fe4:	0b010793          	addi	a5,sp,176
   13fe8:	00100713          	li	a4,1
   13fec:	00200693          	li	a3,2
   13ff0:	00048593          	mv	a1,s1
   13ff4:	000b0613          	mv	a2,s6
   13ff8:	05c13023          	sd	t3,64(sp)
   13ffc:	02613c23          	sd	t1,56(sp)
   14000:	3cd010ef          	jal	15bcc <_ldtoa_r>
   14004:	03813303          	ld	t1,56(sp)
   14008:	04013e03          	ld	t3,64(sp)
   1400c:	00100a93          	li	s5,1
   14010:	00050d93          	mv	s11,a0
   14014:	03513823          	sd	s5,48(sp)
   14018:	001e7713          	andi	a4,t3,1
   1401c:	46071c63          	bnez	a4,14494 <_vfprintf_r+0x299c>
   14020:	0c813883          	ld	a7,200(sp)
   14024:	0b012483          	lw	s1,176(sp)
   14028:	41b888b3          	sub	a7,a7,s11
   1402c:	0008879b          	sext.w	a5,a7
   14030:	02f13823          	sd	a5,48(sp)
   14034:	ffd4a713          	slti	a4,s1,-3
   14038:	00071463          	bnez	a4,14040 <_vfprintf_r+0x2548>
   1403c:	109adc63          	bge	s5,s1,14154 <_vfprintf_r+0x265c>
   14040:	ffe3031b          	addiw	t1,t1,-2
   14044:	fff48a9b          	addiw	s5,s1,-1
   14048:	0a610c23          	sb	t1,184(sp)
   1404c:	0b512823          	sw	s5,176(sp)
   14050:	660ac263          	bltz	s5,146b4 <_vfprintf_r+0x2bbc>
   14054:	02b00713          	li	a4,43
   14058:	0ae10ca3          	sb	a4,185(sp)
   1405c:	00900713          	li	a4,9
   14060:	67575663          	bge	a4,s5,146cc <_vfprintf_r+0x2bd4>
   14064:	03c13c23          	sd	t3,56(sp)
   14068:	02013023          	sd	zero,32(sp)
   1406c:	0c710913          	addi	s2,sp,199
   14070:	00090b13          	mv	s6,s2
   14074:	04613023          	sd	t1,64(sp)
   14078:	00a00593          	li	a1,10
   1407c:	000a8513          	mv	a0,s5
   14080:	1900a0ef          	jal	1e210 <__moddi3>
   14084:	0305079b          	addiw	a5,a0,48
   14088:	000b0c13          	mv	s8,s6
   1408c:	fefc0fa3          	sb	a5,-1(s8)
   14090:	000a8513          	mv	a0,s5
   14094:	00a00593          	li	a1,10
   14098:	0f40a0ef          	jal	1e18c <__divdi3>
   1409c:	000a8493          	mv	s1,s5
   140a0:	06300793          	li	a5,99
   140a4:	fffb0b13          	addi	s6,s6,-1
   140a8:	00050a9b          	sext.w	s5,a0
   140ac:	fc97c6e3          	blt	a5,s1,14078 <_vfprintf_r+0x2580>
   140b0:	030a869b          	addiw	a3,s5,48
   140b4:	fedb0fa3          	sb	a3,-1(s6)
   140b8:	ffec0713          	addi	a4,s8,-2
   140bc:	04013303          	ld	t1,64(sp)
   140c0:	7b277663          	bgeu	a4,s2,1486c <_vfprintf_r+0x2d74>
   140c4:	0ba10513          	addi	a0,sp,186
   140c8:	00050693          	mv	a3,a0
   140cc:	00074783          	lbu	a5,0(a4)
   140d0:	00170713          	addi	a4,a4,1
   140d4:	00168693          	addi	a3,a3,1
   140d8:	fef68fa3          	sb	a5,-1(a3)
   140dc:	ff2718e3          	bne	a4,s2,140cc <_vfprintf_r+0x25d4>
   140e0:	00a70733          	add	a4,a4,a0
   140e4:	00270713          	addi	a4,a4,2
   140e8:	41870733          	sub	a4,a4,s8
   140ec:	0b810693          	addi	a3,sp,184
   140f0:	40d707bb          	subw	a5,a4,a3
   140f4:	04f13c23          	sd	a5,88(sp)
   140f8:	03013783          	ld	a5,48(sp)
   140fc:	05813703          	ld	a4,88(sp)
   14100:	00100693          	li	a3,1
   14104:	00e7873b          	addw	a4,a5,a4
   14108:	00070b13          	mv	s6,a4
   1410c:	40f6dc63          	bge	a3,a5,14524 <_vfprintf_r+0x2a2c>
   14110:	04813783          	ld	a5,72(sp)
   14114:	00e78b3b          	addw	s6,a5,a4
   14118:	03813783          	ld	a5,56(sp)
   1411c:	000b081b          	sext.w	a6,s6
   14120:	bff7ff13          	andi	t5,a5,-1025
   14124:	100f6e13          	ori	t3,t5,256
   14128:	000b5463          	bgez	s6,14130 <_vfprintf_r+0x2638>
   1412c:	00000813          	li	a6,0
   14130:	03813783          	ld	a5,56(sp)
   14134:	0027f493          	andi	s1,a5,2
   14138:	07013783          	ld	a5,112(sp)
   1413c:	3a078263          	beqz	a5,144e0 <_vfprintf_r+0x29e8>
   14140:	02d00513          	li	a0,45
   14144:	0aa103a3          	sb	a0,167(sp)
   14148:	00000a93          	li	s5,0
   1414c:	0018081b          	addiw	a6,a6,1
   14150:	a8cfe06f          	j	123dc <_vfprintf_r+0x8e4>
   14154:	03013783          	ld	a5,48(sp)
   14158:	02f4ca63          	blt	s1,a5,1418c <_vfprintf_r+0x2694>
   1415c:	001e7713          	andi	a4,t3,1
   14160:	00048b13          	mv	s6,s1
   14164:	00070663          	beqz	a4,14170 <_vfprintf_r+0x2678>
   14168:	04813783          	ld	a5,72(sp)
   1416c:	00978b3b          	addw	s6,a5,s1
   14170:	400e7f13          	andi	t5,t3,1024
   14174:	000f0463          	beqz	t5,1417c <_vfprintf_r+0x2684>
   14178:	44904a63          	bgtz	s1,145cc <_vfprintf_r+0x2ad4>
   1417c:	000b081b          	sext.w	a6,s6
   14180:	020b4663          	bltz	s6,141ac <_vfprintf_r+0x26b4>
   14184:	06700313          	li	t1,103
   14188:	d7dff06f          	j	13f04 <_vfprintf_r+0x240c>
   1418c:	04813783          	ld	a5,72(sp)
   14190:	06700313          	li	t1,103
   14194:	01178b3b          	addw	s6,a5,a7
   14198:	d4904ce3          	bgtz	s1,13ef0 <_vfprintf_r+0x23f8>
   1419c:	409b08bb          	subw	a7,s6,s1
   141a0:	00188b1b          	addiw	s6,a7,1
   141a4:	000b081b          	sext.w	a6,s6
   141a8:	fc0b5ee3          	bgez	s6,14184 <_vfprintf_r+0x268c>
   141ac:	00000813          	li	a6,0
   141b0:	06700313          	li	t1,103
   141b4:	d51ff06f          	j	13f04 <_vfprintf_r+0x240c>
   141b8:	59868693          	addi	a3,a3,1432
   141bc:	e2cff06f          	j	137e8 <_vfprintf_r+0x1cf0>
   141c0:	00813583          	ld	a1,8(sp)
   141c4:	00013503          	ld	a0,0(sp)
   141c8:	0e010613          	addi	a2,sp,224
   141cc:	05013023          	sd	a6,64(sp)
   141d0:	03c13c23          	sd	t3,56(sp)
   141d4:	005000ef          	jal	149d8 <__sprint_r>
   141d8:	00050463          	beqz	a0,141e0 <_vfprintf_r+0x26e8>
   141dc:	a21fe06f          	j	12bfc <_vfprintf_r+0x1104>
   141e0:	0b012603          	lw	a2,176(sp)
   141e4:	0f013903          	ld	s2,240(sp)
   141e8:	04013803          	ld	a6,64(sp)
   141ec:	03813e03          	ld	t3,56(sp)
   141f0:	00098b93          	mv	s7,s3
   141f4:	824fe06f          	j	12218 <_vfprintf_r+0x720>
   141f8:	000a8493          	mv	s1,s5
   141fc:	a05fe06f          	j	12c00 <_vfprintf_r+0x1108>
   14200:	010b8b93          	addi	s7,s7,16
   14204:	864fe06f          	j	12268 <_vfprintf_r+0x770>
   14208:	fbb90793          	addi	a5,s2,-69
   1420c:	00013503          	ld	a0,0(sp)
   14210:	0017b793          	seqz	a5,a5
   14214:	015787bb          	addw	a5,a5,s5
   14218:	00078713          	mv	a4,a5
   1421c:	02f13823          	sd	a5,48(sp)
   14220:	0c810893          	addi	a7,sp,200
   14224:	0b410813          	addi	a6,sp,180
   14228:	0b010793          	addi	a5,sp,176
   1422c:	00200693          	li	a3,2
   14230:	00048593          	mv	a1,s1
   14234:	000b0613          	mv	a2,s6
   14238:	05c13023          	sd	t3,64(sp)
   1423c:	02613c23          	sd	t1,56(sp)
   14240:	18d010ef          	jal	15bcc <_ldtoa_r>
   14244:	04700713          	li	a4,71
   14248:	03813303          	ld	t1,56(sp)
   1424c:	04013e03          	ld	t3,64(sp)
   14250:	00050d93          	mv	s11,a0
   14254:	dce902e3          	beq	s2,a4,14018 <_vfprintf_r+0x2520>
   14258:	00048513          	mv	a0,s1
   1425c:	000b0593          	mv	a1,s6
   14260:	00000613          	li	a2,0
   14264:	00000693          	li	a3,0
   14268:	05c13023          	sd	t3,64(sp)
   1426c:	02613c23          	sd	t1,56(sp)
   14270:	351080ef          	jal	1cdc0 <__eqtf2>
   14274:	03813303          	ld	t1,56(sp)
   14278:	04013e03          	ld	t3,64(sp)
   1427c:	64050463          	beqz	a0,148c4 <_vfprintf_r+0x2dcc>
   14280:	03013783          	ld	a5,48(sp)
   14284:	0c813883          	ld	a7,200(sp)
   14288:	00fd8c33          	add	s8,s11,a5
   1428c:	c188e8e3          	bltu	a7,s8,13e9c <_vfprintf_r+0x23a4>
   14290:	41b887bb          	subw	a5,a7,s11
   14294:	0b012483          	lw	s1,176(sp)
   14298:	02f13823          	sd	a5,48(sp)
   1429c:	da9ff06f          	j	14044 <_vfprintf_r+0x254c>
   142a0:	02d00793          	li	a5,45
   142a4:	0af103a3          	sb	a5,167(sp)
   142a8:	04700793          	li	a5,71
   142ac:	2467d863          	bge	a5,t1,144fc <_vfprintf_r+0x2a04>
   142b0:	0001e7b7          	lui	a5,0x1e
   142b4:	2b078d93          	addi	s11,a5,688 # 1e2b0 <__clzdi2+0x64>
   142b8:	f00ff06f          	j	139b8 <_vfprintf_r+0x1ec0>
   142bc:	00013503          	ld	a0,0(sp)
   142c0:	0e010613          	addi	a2,sp,224
   142c4:	000a8593          	mv	a1,s5
   142c8:	02513c23          	sd	t0,56(sp)
   142cc:	70c000ef          	jal	149d8 <__sprint_r>
   142d0:	f20514e3          	bnez	a0,141f8 <_vfprintf_r+0x2700>
   142d4:	0001e6b7          	lui	a3,0x1e
   142d8:	59868893          	addi	a7,a3,1432 # 1e598 <zeroes.0>
   142dc:	000d4603          	lbu	a2,0(s10)
   142e0:	0f013703          	ld	a4,240(sp)
   142e4:	03813283          	ld	t0,56(sp)
   142e8:	00098793          	mv	a5,s3
   142ec:	00700693          	li	a3,7
   142f0:	869ff06f          	j	13b58 <_vfprintf_r+0x2060>
   142f4:	00813583          	ld	a1,8(sp)
   142f8:	00013503          	ld	a0,0(sp)
   142fc:	0e010613          	addi	a2,sp,224
   14300:	07013823          	sd	a6,112(sp)
   14304:	05c13023          	sd	t3,64(sp)
   14308:	03f13c23          	sd	t6,56(sp)
   1430c:	6cc000ef          	jal	149d8 <__sprint_r>
   14310:	00050463          	beqz	a0,14318 <_vfprintf_r+0x2820>
   14314:	8e9fe06f          	j	12bfc <_vfprintf_r+0x1104>
   14318:	0b012a83          	lw	s5,176(sp)
   1431c:	0f013903          	ld	s2,240(sp)
   14320:	07013803          	ld	a6,112(sp)
   14324:	04013e03          	ld	t3,64(sp)
   14328:	03813f83          	ld	t6,56(sp)
   1432c:	00098b93          	mv	s7,s3
   14330:	c89fe06f          	j	12fb8 <_vfprintf_r+0x14c0>
   14334:	00913c23          	sd	s1,24(sp)
   14338:	1c070863          	beqz	a4,14508 <_vfprintf_r+0x2a10>
   1433c:	001a881b          	addiw	a6,s5,1
   14340:	000a8b13          	mv	s6,s5
   14344:	04013023          	sd	zero,64(sp)
   14348:	00000a93          	li	s5,0
   1434c:	02013c23          	sd	zero,56(sp)
   14350:	00000493          	li	s1,0
   14354:	9edfd06f          	j	11d40 <_vfprintf_r+0x248>
   14358:	5a868693          	addi	a3,a3,1448
   1435c:	e09fe06f          	j	13164 <_vfprintf_r+0x166c>
   14360:	08013783          	ld	a5,128(sp)
   14364:	06013583          	ld	a1,96(sp)
   14368:	40fd84b3          	sub	s1,s11,a5
   1436c:	00078613          	mv	a2,a5
   14370:	00048513          	mv	a0,s1
   14374:	208010ef          	jal	1557c <strncpy>
   14378:	001b4783          	lbu	a5,1(s6)
   1437c:	000a8513          	mv	a0,s5
   14380:	00a00593          	li	a1,10
   14384:	00f037b3          	snez	a5,a5
   14388:	00fb0b33          	add	s6,s6,a5
   1438c:	609090ef          	jal	1e194 <__hidden___udivdi3>
   14390:	00a00593          	li	a1,10
   14394:	00050a93          	mv	s5,a0
   14398:	645090ef          	jal	1e1dc <__umoddi3>
   1439c:	0305079b          	addiw	a5,a0,48
   143a0:	fff48d93          	addi	s11,s1,-1
   143a4:	fef48fa3          	sb	a5,-1(s1)
   143a8:	00100493          	li	s1,1
   143ac:	a70fe06f          	j	1261c <_vfprintf_r+0xb24>
   143b0:	0a714703          	lbu	a4,167(sp)
   143b4:	b60702e3          	beqz	a4,13f18 <_vfprintf_r+0x2420>
   143b8:	0018081b          	addiw	a6,a6,1
   143bc:	b5dff06f          	j	13f18 <_vfprintf_r+0x2420>
   143c0:	00813583          	ld	a1,8(sp)
   143c4:	00013503          	ld	a0,0(sp)
   143c8:	0e010613          	addi	a2,sp,224
   143cc:	05013023          	sd	a6,64(sp)
   143d0:	03c13c23          	sd	t3,56(sp)
   143d4:	604000ef          	jal	149d8 <__sprint_r>
   143d8:	00050463          	beqz	a0,143e0 <_vfprintf_r+0x28e8>
   143dc:	821fe06f          	j	12bfc <_vfprintf_r+0x1104>
   143e0:	0b012a83          	lw	s5,176(sp)
   143e4:	03013783          	ld	a5,48(sp)
   143e8:	0f013903          	ld	s2,240(sp)
   143ec:	04013803          	ld	a6,64(sp)
   143f0:	03813e03          	ld	t3,56(sp)
   143f4:	00098b93          	mv	s7,s3
   143f8:	41578abb          	subw	s5,a5,s5
   143fc:	c11fe06f          	j	1300c <_vfprintf_r+0x1514>
   14400:	5a868693          	addi	a3,a3,1448
   14404:	a69fe06f          	j	12e6c <_vfprintf_r+0x1374>
   14408:	ff000693          	li	a3,-16
   1440c:	40c00abb          	negw	s5,a2
   14410:	46d65a63          	bge	a2,a3,14884 <_vfprintf_r+0x2d8c>
   14414:	0001e6b7          	lui	a3,0x1e
   14418:	00090793          	mv	a5,s2
   1441c:	01000b13          	li	s6,16
   14420:	00700493          	li	s1,7
   14424:	000e0c13          	mv	s8,t3
   14428:	03013c23          	sd	a6,56(sp)
   1442c:	59868913          	addi	s2,a3,1432 # 1e598 <zeroes.0>
   14430:	00c0006f          	j	1443c <_vfprintf_r+0x2944>
   14434:	ff0a8a9b          	addiw	s5,s5,-16
   14438:	0f5b5e63          	bge	s6,s5,14534 <_vfprintf_r+0x2a3c>
   1443c:	01078793          	addi	a5,a5,16
   14440:	0017071b          	addiw	a4,a4,1
   14444:	012bb023          	sd	s2,0(s7)
   14448:	016bb423          	sd	s6,8(s7)
   1444c:	0ef13823          	sd	a5,240(sp)
   14450:	0ee12423          	sw	a4,232(sp)
   14454:	010b8b93          	addi	s7,s7,16
   14458:	fce4dee3          	bge	s1,a4,14434 <_vfprintf_r+0x293c>
   1445c:	00813583          	ld	a1,8(sp)
   14460:	00013503          	ld	a0,0(sp)
   14464:	0e010613          	addi	a2,sp,224
   14468:	570000ef          	jal	149d8 <__sprint_r>
   1446c:	00050463          	beqz	a0,14474 <_vfprintf_r+0x297c>
   14470:	f8cfe06f          	j	12bfc <_vfprintf_r+0x1104>
   14474:	0f013783          	ld	a5,240(sp)
   14478:	0e812703          	lw	a4,232(sp)
   1447c:	00098b93          	mv	s7,s3
   14480:	fb5ff06f          	j	14434 <_vfprintf_r+0x293c>
   14484:	00048f13          	mv	t5,s1
   14488:	8b4fe06f          	j	1253c <_vfprintf_r+0xa44>
   1448c:	00048f13          	mv	t5,s1
   14490:	eb1fe06f          	j	13340 <_vfprintf_r+0x1848>
   14494:	00048513          	mv	a0,s1
   14498:	000b0593          	mv	a1,s6
   1449c:	00000613          	li	a2,0
   144a0:	00000693          	li	a3,0
   144a4:	05c13023          	sd	t3,64(sp)
   144a8:	02613c23          	sd	t1,56(sp)
   144ac:	115080ef          	jal	1cdc0 <__eqtf2>
   144b0:	03813303          	ld	t1,56(sp)
   144b4:	04013e03          	ld	t3,64(sp)
   144b8:	1a050663          	beqz	a0,14664 <_vfprintf_r+0x2b6c>
   144bc:	03013783          	ld	a5,48(sp)
   144c0:	0c813883          	ld	a7,200(sp)
   144c4:	00fd8c33          	add	s8,s11,a5
   144c8:	9d88eae3          	bltu	a7,s8,13e9c <_vfprintf_r+0x23a4>
   144cc:	41b888b3          	sub	a7,a7,s11
   144d0:	0008879b          	sext.w	a5,a7
   144d4:	0b012483          	lw	s1,176(sp)
   144d8:	02f13823          	sd	a5,48(sp)
   144dc:	b59ff06f          	j	14034 <_vfprintf_r+0x253c>
   144e0:	0a714503          	lbu	a0,167(sp)
   144e4:	00000a93          	li	s5,0
   144e8:	00050463          	beqz	a0,144f0 <_vfprintf_r+0x29f8>
   144ec:	f9dfd06f          	j	12488 <_vfprintf_r+0x990>
   144f0:	eedfd06f          	j	123dc <_vfprintf_r+0x8e4>
   144f4:	59868693          	addi	a3,a3,1432
   144f8:	e94fe06f          	j	12b8c <_vfprintf_r+0x1094>
   144fc:	0001e7b7          	lui	a5,0x1e
   14500:	2a878d93          	addi	s11,a5,680 # 1e2a8 <__clzdi2+0x5c>
   14504:	cb4ff06f          	j	139b8 <_vfprintf_r+0x1ec0>
   14508:	000a8b13          	mv	s6,s5
   1450c:	000a8813          	mv	a6,s5
   14510:	04013023          	sd	zero,64(sp)
   14514:	00000a93          	li	s5,0
   14518:	02013c23          	sd	zero,56(sp)
   1451c:	00000493          	li	s1,0
   14520:	821fd06f          	j	11d40 <_vfprintf_r+0x248>
   14524:	03813783          	ld	a5,56(sp)
   14528:	00d7f6b3          	and	a3,a5,a3
   1452c:	be0686e3          	beqz	a3,14118 <_vfprintf_r+0x2620>
   14530:	be1ff06f          	j	14110 <_vfprintf_r+0x2618>
   14534:	03813803          	ld	a6,56(sp)
   14538:	00090693          	mv	a3,s2
   1453c:	000c0e13          	mv	t3,s8
   14540:	00078913          	mv	s2,a5
   14544:	01590933          	add	s2,s2,s5
   14548:	0017071b          	addiw	a4,a4,1
   1454c:	00dbb023          	sd	a3,0(s7)
   14550:	0f213823          	sd	s2,240(sp)
   14554:	0ee12423          	sw	a4,232(sp)
   14558:	015bb423          	sd	s5,8(s7)
   1455c:	00700693          	li	a3,7
   14560:	cae6d0e3          	bge	a3,a4,14200 <_vfprintf_r+0x2708>
   14564:	00813583          	ld	a1,8(sp)
   14568:	00013503          	ld	a0,0(sp)
   1456c:	0e010613          	addi	a2,sp,224
   14570:	05013023          	sd	a6,64(sp)
   14574:	03c13c23          	sd	t3,56(sp)
   14578:	460000ef          	jal	149d8 <__sprint_r>
   1457c:	00050463          	beqz	a0,14584 <_vfprintf_r+0x2a8c>
   14580:	e7cfe06f          	j	12bfc <_vfprintf_r+0x1104>
   14584:	0f013903          	ld	s2,240(sp)
   14588:	0e812703          	lw	a4,232(sp)
   1458c:	04013803          	ld	a6,64(sp)
   14590:	03813e03          	ld	t3,56(sp)
   14594:	00098b93          	mv	s7,s3
   14598:	cd1fd06f          	j	12268 <_vfprintf_r+0x770>
   1459c:	00f72023          	sw	a5,0(a4)
   145a0:	e70fd06f          	j	11c10 <_vfprintf_r+0x118>
   145a4:	fff00793          	li	a5,-1
   145a8:	03f79793          	slli	a5,a5,0x3f
   145ac:	00f5c5b3          	xor	a1,a1,a5
   145b0:	02d00793          	li	a5,45
   145b4:	06f13823          	sd	a5,112(sp)
   145b8:	02013023          	sd	zero,32(sp)
   145bc:	0f810d93          	addi	s11,sp,248
   145c0:	9e1fd06f          	j	11fa0 <_vfprintf_r+0x4a8>
   145c4:	00813483          	ld	s1,8(sp)
   145c8:	e4cfe06f          	j	12c14 <_vfprintf_r+0x111c>
   145cc:	06700313          	li	t1,103
   145d0:	06813783          	ld	a5,104(sp)
   145d4:	0007c703          	lbu	a4,0(a5)
   145d8:	f0170693          	addi	a3,a4,-255
   145dc:	2e068863          	beqz	a3,148cc <_vfprintf_r+0x2dd4>
   145e0:	2e975663          	bge	a4,s1,148cc <_vfprintf_r+0x2dd4>
   145e4:	08012583          	lw	a1,128(sp)
   145e8:	00000813          	li	a6,0
   145ec:	00000513          	li	a0,0
   145f0:	00078693          	mv	a3,a5
   145f4:	01c0006f          	j	14610 <_vfprintf_r+0x2b18>
   145f8:	0015051b          	addiw	a0,a0,1
   145fc:	00168693          	addi	a3,a3,1
   14600:	f0178613          	addi	a2,a5,-255
   14604:	0007871b          	sext.w	a4,a5
   14608:	0c060e63          	beqz	a2,146e4 <_vfprintf_r+0x2bec>
   1460c:	0c975c63          	bge	a4,s1,146e4 <_vfprintf_r+0x2bec>
   14610:	0016c783          	lbu	a5,1(a3)
   14614:	40e484bb          	subw	s1,s1,a4
   14618:	fe0790e3          	bnez	a5,145f8 <_vfprintf_r+0x2b00>
   1461c:	0006c783          	lbu	a5,0(a3)
   14620:	0018081b          	addiw	a6,a6,1
   14624:	fddff06f          	j	14600 <_vfprintf_r+0x2b08>
   14628:	41bc07bb          	subw	a5,s8,s11
   1462c:	0b012483          	lw	s1,176(sp)
   14630:	02f13823          	sd	a5,48(sp)
   14634:	8a1ff06f          	j	13ed4 <_vfprintf_r+0x23dc>
   14638:	0001e7b7          	lui	a5,0x1e
   1463c:	2b878d93          	addi	s11,a5,696 # 1e2b8 <__clzdi2+0x6c>
   14640:	b78ff06f          	j	139b8 <_vfprintf_r+0x1ec0>
   14644:	0001e7b7          	lui	a5,0x1e
   14648:	2b878d93          	addi	s11,a5,696 # 1e2b8 <__clzdi2+0x6c>
   1464c:	f90ff06f          	j	13ddc <_vfprintf_r+0x22e4>
   14650:	04813783          	ld	a5,72(sp)
   14654:	009a88bb          	addw	a7,s5,s1
   14658:	06600313          	li	t1,102
   1465c:	00f88b3b          	addw	s6,a7,a5
   14660:	891ff06f          	j	13ef0 <_vfprintf_r+0x23f8>
   14664:	0b012483          	lw	s1,176(sp)
   14668:	03013883          	ld	a7,48(sp)
   1466c:	9c9ff06f          	j	14034 <_vfprintf_r+0x253c>
   14670:	00000613          	li	a2,0
   14674:	00000693          	li	a3,0
   14678:	00048513          	mv	a0,s1
   1467c:	000b0593          	mv	a1,s6
   14680:	05c13023          	sd	t3,64(sp)
   14684:	02613c23          	sd	t1,56(sp)
   14688:	02e13823          	sd	a4,48(sp)
   1468c:	734080ef          	jal	1cdc0 <__eqtf2>
   14690:	03013703          	ld	a4,48(sp)
   14694:	03813303          	ld	t1,56(sp)
   14698:	04013e03          	ld	t3,64(sp)
   1469c:	12051e63          	bnez	a0,147d8 <_vfprintf_r+0x2ce0>
   146a0:	0b012483          	lw	s1,176(sp)
   146a4:	00970733          	add	a4,a4,s1
   146a8:	41b707bb          	subw	a5,a4,s11
   146ac:	02f13823          	sd	a5,48(sp)
   146b0:	81dff06f          	j	13ecc <_vfprintf_r+0x23d4>
   146b4:	02d00713          	li	a4,45
   146b8:	0ae10ca3          	sb	a4,185(sp)
   146bc:	00100693          	li	a3,1
   146c0:	ff800713          	li	a4,-8
   146c4:	40968abb          	subw	s5,a3,s1
   146c8:	98e4cee3          	blt	s1,a4,14064 <_vfprintf_r+0x256c>
   146cc:	03000713          	li	a4,48
   146d0:	0ae10d23          	sb	a4,186(sp)
   146d4:	03c13c23          	sd	t3,56(sp)
   146d8:	02013023          	sd	zero,32(sp)
   146dc:	0bb10713          	addi	a4,sp,187
   146e0:	a9dfd06f          	j	1217c <_vfprintf_r+0x684>
   146e4:	02a13c23          	sd	a0,56(sp)
   146e8:	00a8053b          	addw	a0,a6,a0
   146ec:	06613c23          	sd	t1,120(sp)
   146f0:	06d13423          	sd	a3,104(sp)
   146f4:	05013023          	sd	a6,64(sp)
   146f8:	231090ef          	jal	1e128 <__muldi3>
   146fc:	07813303          	ld	t1,120(sp)
   14700:	0005071b          	sext.w	a4,a0
   14704:	00eb0b3b          	addw	s6,s6,a4
   14708:	000b0713          	mv	a4,s6
   1470c:	000b5463          	bgez	s6,14714 <_vfprintf_r+0x2c1c>
   14710:	00000713          	li	a4,0
   14714:	07013783          	ld	a5,112(sp)
   14718:	0007081b          	sext.w	a6,a4
   1471c:	10078e63          	beqz	a5,14838 <_vfprintf_r+0x2d40>
   14720:	02d00693          	li	a3,45
   14724:	02013e03          	ld	t3,32(sp)
   14728:	0ad103a3          	sb	a3,167(sp)
   1472c:	0017081b          	addiw	a6,a4,1
   14730:	02013023          	sd	zero,32(sp)
   14734:	00000a93          	li	s5,0
   14738:	e08fd06f          	j	11d40 <_vfprintf_r+0x248>
   1473c:	000b0c13          	mv	s8,s6
   14740:	fffa8b1b          	addiw	s6,s5,-1
   14744:	000c8313          	mv	t1,s9
   14748:	04013b83          	ld	s7,64(sp)
   1474c:	05813c83          	ld	s9,88(sp)
   14750:	015c0ab3          	add	s5,s8,s5
   14754:	000c0713          	mv	a4,s8
   14758:	03000693          	li	a3,48
   1475c:	000b5463          	bgez	s6,14764 <_vfprintf_r+0x2c6c>
   14760:	9e1fd06f          	j	12140 <_vfprintf_r+0x648>
   14764:	00170713          	addi	a4,a4,1
   14768:	fed70fa3          	sb	a3,-1(a4)
   1476c:	feea9ce3          	bne	s5,a4,14764 <_vfprintf_r+0x2c6c>
   14770:	001c0813          	addi	a6,s8,1
   14774:	01680c33          	add	s8,a6,s6
   14778:	9c9fd06f          	j	12140 <_vfprintf_r+0x648>
   1477c:	0001e737          	lui	a4,0x1e
   14780:	2c870793          	addi	a5,a4,712 # 1e2c8 <__clzdi2+0x7c>
   14784:	02f13823          	sd	a5,48(sp)
   14788:	879fd06f          	j	12000 <_vfprintf_r+0x508>
   1478c:	01813783          	ld	a5,24(sp)
   14790:	01813703          	ld	a4,24(sp)
   14794:	0007a783          	lw	a5,0(a5)
   14798:	00870713          	addi	a4,a4,8
   1479c:	00078a9b          	sext.w	s5,a5
   147a0:	0007d463          	bgez	a5,147a8 <_vfprintf_r+0x2cb0>
   147a4:	fff00a93          	li	s5,-1
   147a8:	001cc303          	lbu	t1,1(s9)
   147ac:	00e13c23          	sd	a4,24(sp)
   147b0:	00060c93          	mv	s9,a2
   147b4:	cf8fd06f          	j	11cac <_vfprintf_r+0x1b4>
   147b8:	59868693          	addi	a3,a3,1432
   147bc:	ca9fe06f          	j	13464 <_vfprintf_r+0x196c>
   147c0:	03fa9a93          	slli	s5,s5,0x3f
   147c4:	02d00793          	li	a5,45
   147c8:	015b4b33          	xor	s6,s6,s5
   147cc:	06f13823          	sd	a5,112(sp)
   147d0:	00600a93          	li	s5,6
   147d4:	e40ff06f          	j	13e14 <_vfprintf_r+0x231c>
   147d8:	00100793          	li	a5,1
   147dc:	415787bb          	subw	a5,a5,s5
   147e0:	0af12823          	sw	a5,176(sp)
   147e4:	e84ff06f          	j	13e68 <_vfprintf_r+0x2370>
   147e8:	00071a63          	bnez	a4,147fc <_vfprintf_r+0x2d04>
   147ec:	00100813          	li	a6,1
   147f0:	00080b13          	mv	s6,a6
   147f4:	06600313          	li	t1,102
   147f8:	f0cff06f          	j	13f04 <_vfprintf_r+0x240c>
   147fc:	04813783          	ld	a5,72(sp)
   14800:	0017889b          	addiw	a7,a5,1
   14804:	01588b3b          	addw	s6,a7,s5
   14808:	000b081b          	sext.w	a6,s6
   1480c:	fe0b54e3          	bgez	s6,147f4 <_vfprintf_r+0x2cfc>
   14810:	00000813          	li	a6,0
   14814:	06600313          	li	t1,102
   14818:	eecff06f          	j	13f04 <_vfprintf_r+0x240c>
   1481c:	02d00693          	li	a3,45
   14820:	0ad10ca3          	sb	a3,185(sp)
   14824:	ff800613          	li	a2,-8
   14828:	00100693          	li	a3,1
   1482c:	40e68abb          	subw	s5,a3,a4
   14830:	82c74ee3          	blt	a4,a2,1406c <_vfprintf_r+0x2574>
   14834:	945fd06f          	j	12178 <_vfprintf_r+0x680>
   14838:	0a714683          	lbu	a3,167(sp)
   1483c:	02068063          	beqz	a3,1485c <_vfprintf_r+0x2d64>
   14840:	02013e03          	ld	t3,32(sp)
   14844:	0017081b          	addiw	a6,a4,1
   14848:	02013023          	sd	zero,32(sp)
   1484c:	00000a93          	li	s5,0
   14850:	cf0fd06f          	j	11d40 <_vfprintf_r+0x248>
   14854:	59868693          	addi	a3,a3,1432
   14858:	9b4ff06f          	j	13a0c <_vfprintf_r+0x1f14>
   1485c:	02013e03          	ld	t3,32(sp)
   14860:	00000a93          	li	s5,0
   14864:	02013023          	sd	zero,32(sp)
   14868:	cd8fd06f          	j	11d40 <_vfprintf_r+0x248>
   1486c:	00200793          	li	a5,2
   14870:	04f13c23          	sd	a5,88(sp)
   14874:	885ff06f          	j	140f8 <_vfprintf_r+0x2600>
   14878:	03013783          	ld	a5,48(sp)
   1487c:	00a7c683          	lbu	a3,10(a5)
   14880:	8bdfd06f          	j	1213c <_vfprintf_r+0x644>
   14884:	0001e6b7          	lui	a3,0x1e
   14888:	59868693          	addi	a3,a3,1432 # 1e598 <zeroes.0>
   1488c:	cb9ff06f          	j	14544 <_vfprintf_r+0x2a4c>
   14890:	00000a93          	li	s5,0
   14894:	04013023          	sd	zero,64(sp)
   14898:	02013c23          	sd	zero,56(sp)
   1489c:	02013023          	sd	zero,32(sp)
   148a0:	00300b13          	li	s6,3
   148a4:	00400813          	li	a6,4
   148a8:	c98fd06f          	j	11d40 <_vfprintf_r+0x248>
   148ac:	04013023          	sd	zero,64(sp)
   148b0:	02013c23          	sd	zero,56(sp)
   148b4:	c8cfd06f          	j	11d40 <_vfprintf_r+0x248>
   148b8:	03013783          	ld	a5,48(sp)
   148bc:	00fd8c33          	add	s8,s11,a5
   148c0:	ef4ff06f          	j	13fb4 <_vfprintf_r+0x24bc>
   148c4:	0b012483          	lw	s1,176(sp)
   148c8:	f7cff06f          	j	14044 <_vfprintf_r+0x254c>
   148cc:	00000713          	li	a4,0
   148d0:	04013023          	sd	zero,64(sp)
   148d4:	02013c23          	sd	zero,56(sp)
   148d8:	e2dff06f          	j	14704 <_vfprintf_r+0x2c0c>
   148dc:	41b887bb          	subw	a5,a7,s11
   148e0:	0b012483          	lw	s1,176(sp)
   148e4:	02f13823          	sd	a5,48(sp)
   148e8:	de4ff06f          	j	13ecc <_vfprintf_r+0x23d4>
   148ec:	00813483          	ld	s1,8(sp)
   148f0:	0104d783          	lhu	a5,16(s1)
   148f4:	0407e793          	ori	a5,a5,64
   148f8:	00f49823          	sh	a5,16(s1)
   148fc:	b18fe06f          	j	12c14 <_vfprintf_r+0x111c>

0000000000014900 <vfprintf>:
   14900:	00050713          	mv	a4,a0
   14904:	2201b503          	ld	a0,544(gp) # 20698 <_impure_ptr>
   14908:	00060693          	mv	a3,a2
   1490c:	00058613          	mv	a2,a1
   14910:	00070593          	mv	a1,a4
   14914:	9e4fd06f          	j	11af8 <_vfprintf_r>

0000000000014918 <__sbprintf>:
   14918:	0105d783          	lhu	a5,16(a1)
   1491c:	0ac5ae83          	lw	t4,172(a1)
   14920:	0125de03          	lhu	t3,18(a1)
   14924:	0305b303          	ld	t1,48(a1)
   14928:	0405b883          	ld	a7,64(a1)
   1492c:	b2010113          	addi	sp,sp,-1248
   14930:	ffd7f793          	andi	a5,a5,-3
   14934:	0c010813          	addi	a6,sp,192
   14938:	40000713          	li	a4,1024
   1493c:	4c813823          	sd	s0,1232(sp)
   14940:	00058413          	mv	s0,a1
   14944:	01010593          	addi	a1,sp,16
   14948:	4c913423          	sd	s1,1224(sp)
   1494c:	02f11023          	sh	a5,32(sp)
   14950:	4c113c23          	sd	ra,1240(sp)
   14954:	02012c23          	sw	zero,56(sp)
   14958:	0bd12e23          	sw	t4,188(sp)
   1495c:	03c11123          	sh	t3,34(sp)
   14960:	04613023          	sd	t1,64(sp)
   14964:	05113823          	sd	a7,80(sp)
   14968:	01013823          	sd	a6,16(sp)
   1496c:	03013423          	sd	a6,40(sp)
   14970:	00e12e23          	sw	a4,28(sp)
   14974:	02e12823          	sw	a4,48(sp)
   14978:	00050493          	mv	s1,a0
   1497c:	97cfd0ef          	jal	11af8 <_vfprintf_r>
   14980:	00050793          	mv	a5,a0
   14984:	02055a63          	bgez	a0,149b8 <__sbprintf+0xa0>
   14988:	02015703          	lhu	a4,32(sp)
   1498c:	04077713          	andi	a4,a4,64
   14990:	00070863          	beqz	a4,149a0 <__sbprintf+0x88>
   14994:	01045703          	lhu	a4,16(s0)
   14998:	04076713          	ori	a4,a4,64
   1499c:	00e41823          	sh	a4,16(s0)
   149a0:	4d813083          	ld	ra,1240(sp)
   149a4:	4d013403          	ld	s0,1232(sp)
   149a8:	4c813483          	ld	s1,1224(sp)
   149ac:	00078513          	mv	a0,a5
   149b0:	4e010113          	addi	sp,sp,1248
   149b4:	00008067          	ret
   149b8:	00a13423          	sd	a0,8(sp)
   149bc:	01010593          	addi	a1,sp,16
   149c0:	00048513          	mv	a0,s1
   149c4:	3c0000ef          	jal	14d84 <_fflush_r>
   149c8:	00813783          	ld	a5,8(sp)
   149cc:	fa050ee3          	beqz	a0,14988 <__sbprintf+0x70>
   149d0:	fff00793          	li	a5,-1
   149d4:	fb5ff06f          	j	14988 <__sbprintf+0x70>

00000000000149d8 <__sprint_r>:
   149d8:	01063703          	ld	a4,16(a2)
   149dc:	00071863          	bnez	a4,149ec <__sprint_r+0x14>
   149e0:	00000513          	li	a0,0
   149e4:	00062423          	sw	zero,8(a2)
   149e8:	00008067          	ret
   149ec:	fe010113          	addi	sp,sp,-32
   149f0:	00113c23          	sd	ra,24(sp)
   149f4:	00c13423          	sd	a2,8(sp)
   149f8:	480000ef          	jal	14e78 <__sfvwrite_r>
   149fc:	00813783          	ld	a5,8(sp)
   14a00:	01813083          	ld	ra,24(sp)
   14a04:	0007b823          	sd	zero,16(a5)
   14a08:	0007a423          	sw	zero,8(a5)
   14a0c:	02010113          	addi	sp,sp,32
   14a10:	00008067          	ret

0000000000014a14 <_fclose_r>:
   14a14:	fe010113          	addi	sp,sp,-32
   14a18:	00113c23          	sd	ra,24(sp)
   14a1c:	01213023          	sd	s2,0(sp)
   14a20:	02058863          	beqz	a1,14a50 <_fclose_r+0x3c>
   14a24:	00813823          	sd	s0,16(sp)
   14a28:	00913423          	sd	s1,8(sp)
   14a2c:	00058413          	mv	s0,a1
   14a30:	00050493          	mv	s1,a0
   14a34:	00050663          	beqz	a0,14a40 <_fclose_r+0x2c>
   14a38:	04853783          	ld	a5,72(a0)
   14a3c:	0c078c63          	beqz	a5,14b14 <_fclose_r+0x100>
   14a40:	01041783          	lh	a5,16(s0)
   14a44:	02079263          	bnez	a5,14a68 <_fclose_r+0x54>
   14a48:	01013403          	ld	s0,16(sp)
   14a4c:	00813483          	ld	s1,8(sp)
   14a50:	01813083          	ld	ra,24(sp)
   14a54:	00000913          	li	s2,0
   14a58:	00090513          	mv	a0,s2
   14a5c:	00013903          	ld	s2,0(sp)
   14a60:	02010113          	addi	sp,sp,32
   14a64:	00008067          	ret
   14a68:	00040593          	mv	a1,s0
   14a6c:	00048513          	mv	a0,s1
   14a70:	0b8000ef          	jal	14b28 <__sflush_r>
   14a74:	05043783          	ld	a5,80(s0)
   14a78:	00050913          	mv	s2,a0
   14a7c:	00078a63          	beqz	a5,14a90 <_fclose_r+0x7c>
   14a80:	03043583          	ld	a1,48(s0)
   14a84:	00048513          	mv	a0,s1
   14a88:	000780e7          	jalr	a5
   14a8c:	06054463          	bltz	a0,14af4 <_fclose_r+0xe0>
   14a90:	01045783          	lhu	a5,16(s0)
   14a94:	0807f793          	andi	a5,a5,128
   14a98:	06079663          	bnez	a5,14b04 <_fclose_r+0xf0>
   14a9c:	05843583          	ld	a1,88(s0)
   14aa0:	00058c63          	beqz	a1,14ab8 <_fclose_r+0xa4>
   14aa4:	07440793          	addi	a5,s0,116
   14aa8:	00f58663          	beq	a1,a5,14ab4 <_fclose_r+0xa0>
   14aac:	00048513          	mv	a0,s1
   14ab0:	c58fc0ef          	jal	10f08 <_free_r>
   14ab4:	04043c23          	sd	zero,88(s0)
   14ab8:	07843583          	ld	a1,120(s0)
   14abc:	00058863          	beqz	a1,14acc <_fclose_r+0xb8>
   14ac0:	00048513          	mv	a0,s1
   14ac4:	c44fc0ef          	jal	10f08 <_free_r>
   14ac8:	06043c23          	sd	zero,120(s0)
   14acc:	af1fb0ef          	jal	105bc <__sfp_lock_acquire>
   14ad0:	00041823          	sh	zero,16(s0)
   14ad4:	aedfb0ef          	jal	105c0 <__sfp_lock_release>
   14ad8:	01813083          	ld	ra,24(sp)
   14adc:	01013403          	ld	s0,16(sp)
   14ae0:	00813483          	ld	s1,8(sp)
   14ae4:	00090513          	mv	a0,s2
   14ae8:	00013903          	ld	s2,0(sp)
   14aec:	02010113          	addi	sp,sp,32
   14af0:	00008067          	ret
   14af4:	01045783          	lhu	a5,16(s0)
   14af8:	fff00913          	li	s2,-1
   14afc:	0807f793          	andi	a5,a5,128
   14b00:	f8078ee3          	beqz	a5,14a9c <_fclose_r+0x88>
   14b04:	01843583          	ld	a1,24(s0)
   14b08:	00048513          	mv	a0,s1
   14b0c:	bfcfc0ef          	jal	10f08 <_free_r>
   14b10:	f8dff06f          	j	14a9c <_fclose_r+0x88>
   14b14:	a85fb0ef          	jal	10598 <__sinit>
   14b18:	f29ff06f          	j	14a40 <_fclose_r+0x2c>

0000000000014b1c <fclose>:
   14b1c:	00050593          	mv	a1,a0
   14b20:	2201b503          	ld	a0,544(gp) # 20698 <_impure_ptr>
   14b24:	ef1ff06f          	j	14a14 <_fclose_r>

0000000000014b28 <__sflush_r>:
   14b28:	01059703          	lh	a4,16(a1)
   14b2c:	fd010113          	addi	sp,sp,-48
   14b30:	02813023          	sd	s0,32(sp)
   14b34:	01313423          	sd	s3,8(sp)
   14b38:	02113423          	sd	ra,40(sp)
   14b3c:	00877793          	andi	a5,a4,8
   14b40:	00058413          	mv	s0,a1
   14b44:	00050993          	mv	s3,a0
   14b48:	12079263          	bnez	a5,14c6c <__sflush_r+0x144>
   14b4c:	000017b7          	lui	a5,0x1
   14b50:	80078793          	addi	a5,a5,-2048 # 800 <exit-0xf920>
   14b54:	0085a683          	lw	a3,8(a1)
   14b58:	00f767b3          	or	a5,a4,a5
   14b5c:	00f59823          	sh	a5,16(a1)
   14b60:	18d05c63          	blez	a3,14cf8 <__sflush_r+0x1d0>
   14b64:	04843803          	ld	a6,72(s0)
   14b68:	0e080663          	beqz	a6,14c54 <__sflush_r+0x12c>
   14b6c:	00913c23          	sd	s1,24(sp)
   14b70:	03371693          	slli	a3,a4,0x33
   14b74:	0009a483          	lw	s1,0(s3)
   14b78:	0009a023          	sw	zero,0(s3)
   14b7c:	1806ca63          	bltz	a3,14d10 <__sflush_r+0x1e8>
   14b80:	03043583          	ld	a1,48(s0)
   14b84:	00000613          	li	a2,0
   14b88:	00100693          	li	a3,1
   14b8c:	00098513          	mv	a0,s3
   14b90:	000800e7          	jalr	a6
   14b94:	fff00793          	li	a5,-1
   14b98:	00050613          	mv	a2,a0
   14b9c:	1af50c63          	beq	a0,a5,14d54 <__sflush_r+0x22c>
   14ba0:	01041783          	lh	a5,16(s0)
   14ba4:	04843803          	ld	a6,72(s0)
   14ba8:	0047f793          	andi	a5,a5,4
   14bac:	00078e63          	beqz	a5,14bc8 <__sflush_r+0xa0>
   14bb0:	00842703          	lw	a4,8(s0)
   14bb4:	05843783          	ld	a5,88(s0)
   14bb8:	40e60633          	sub	a2,a2,a4
   14bbc:	00078663          	beqz	a5,14bc8 <__sflush_r+0xa0>
   14bc0:	07042783          	lw	a5,112(s0)
   14bc4:	40f60633          	sub	a2,a2,a5
   14bc8:	03043583          	ld	a1,48(s0)
   14bcc:	00000693          	li	a3,0
   14bd0:	00098513          	mv	a0,s3
   14bd4:	000800e7          	jalr	a6
   14bd8:	fff00713          	li	a4,-1
   14bdc:	01041783          	lh	a5,16(s0)
   14be0:	12e51c63          	bne	a0,a4,14d18 <__sflush_r+0x1f0>
   14be4:	0009a683          	lw	a3,0(s3)
   14be8:	01d00713          	li	a4,29
   14bec:	18d76263          	bltu	a4,a3,14d70 <__sflush_r+0x248>
   14bf0:	20400737          	lui	a4,0x20400
   14bf4:	00170713          	addi	a4,a4,1 # 20400001 <__BSS_END__+0x203df389>
   14bf8:	00d75733          	srl	a4,a4,a3
   14bfc:	00177713          	andi	a4,a4,1
   14c00:	16070863          	beqz	a4,14d70 <__sflush_r+0x248>
   14c04:	01843683          	ld	a3,24(s0)
   14c08:	fffff737          	lui	a4,0xfffff
   14c0c:	7ff70713          	addi	a4,a4,2047 # fffffffffffff7ff <__BSS_END__+0xfffffffffffdeb87>
   14c10:	00e7f733          	and	a4,a5,a4
   14c14:	00e41823          	sh	a4,16(s0)
   14c18:	00042423          	sw	zero,8(s0)
   14c1c:	00d43023          	sd	a3,0(s0)
   14c20:	03379713          	slli	a4,a5,0x33
   14c24:	00075663          	bgez	a4,14c30 <__sflush_r+0x108>
   14c28:	0009a783          	lw	a5,0(s3)
   14c2c:	10078863          	beqz	a5,14d3c <__sflush_r+0x214>
   14c30:	05843583          	ld	a1,88(s0)
   14c34:	0099a023          	sw	s1,0(s3)
   14c38:	10058a63          	beqz	a1,14d4c <__sflush_r+0x224>
   14c3c:	07440793          	addi	a5,s0,116
   14c40:	00f58663          	beq	a1,a5,14c4c <__sflush_r+0x124>
   14c44:	00098513          	mv	a0,s3
   14c48:	ac0fc0ef          	jal	10f08 <_free_r>
   14c4c:	01813483          	ld	s1,24(sp)
   14c50:	04043c23          	sd	zero,88(s0)
   14c54:	02813083          	ld	ra,40(sp)
   14c58:	02013403          	ld	s0,32(sp)
   14c5c:	00813983          	ld	s3,8(sp)
   14c60:	00000513          	li	a0,0
   14c64:	03010113          	addi	sp,sp,48
   14c68:	00008067          	ret
   14c6c:	01213823          	sd	s2,16(sp)
   14c70:	0185b903          	ld	s2,24(a1)
   14c74:	08090a63          	beqz	s2,14d08 <__sflush_r+0x1e0>
   14c78:	00913c23          	sd	s1,24(sp)
   14c7c:	0005b483          	ld	s1,0(a1)
   14c80:	00377713          	andi	a4,a4,3
   14c84:	0125b023          	sd	s2,0(a1)
   14c88:	412484bb          	subw	s1,s1,s2
   14c8c:	00000793          	li	a5,0
   14c90:	00071463          	bnez	a4,14c98 <__sflush_r+0x170>
   14c94:	0205a783          	lw	a5,32(a1)
   14c98:	00f42623          	sw	a5,12(s0)
   14c9c:	00904863          	bgtz	s1,14cac <__sflush_r+0x184>
   14ca0:	0640006f          	j	14d04 <__sflush_r+0x1dc>
   14ca4:	00a90933          	add	s2,s2,a0
   14ca8:	04905e63          	blez	s1,14d04 <__sflush_r+0x1dc>
   14cac:	04043783          	ld	a5,64(s0)
   14cb0:	03043583          	ld	a1,48(s0)
   14cb4:	00048693          	mv	a3,s1
   14cb8:	00090613          	mv	a2,s2
   14cbc:	00098513          	mv	a0,s3
   14cc0:	000780e7          	jalr	a5
   14cc4:	40a484bb          	subw	s1,s1,a0
   14cc8:	fca04ee3          	bgtz	a0,14ca4 <__sflush_r+0x17c>
   14ccc:	01045783          	lhu	a5,16(s0)
   14cd0:	01013903          	ld	s2,16(sp)
   14cd4:	0407e793          	ori	a5,a5,64
   14cd8:	02813083          	ld	ra,40(sp)
   14cdc:	00f41823          	sh	a5,16(s0)
   14ce0:	02013403          	ld	s0,32(sp)
   14ce4:	01813483          	ld	s1,24(sp)
   14ce8:	00813983          	ld	s3,8(sp)
   14cec:	fff00513          	li	a0,-1
   14cf0:	03010113          	addi	sp,sp,48
   14cf4:	00008067          	ret
   14cf8:	0705a683          	lw	a3,112(a1)
   14cfc:	e6d044e3          	bgtz	a3,14b64 <__sflush_r+0x3c>
   14d00:	f55ff06f          	j	14c54 <__sflush_r+0x12c>
   14d04:	01813483          	ld	s1,24(sp)
   14d08:	01013903          	ld	s2,16(sp)
   14d0c:	f49ff06f          	j	14c54 <__sflush_r+0x12c>
   14d10:	09043603          	ld	a2,144(s0)
   14d14:	e95ff06f          	j	14ba8 <__sflush_r+0x80>
   14d18:	01843683          	ld	a3,24(s0)
   14d1c:	fffff737          	lui	a4,0xfffff
   14d20:	7ff70713          	addi	a4,a4,2047 # fffffffffffff7ff <__BSS_END__+0xfffffffffffdeb87>
   14d24:	00e7f733          	and	a4,a5,a4
   14d28:	00e41823          	sh	a4,16(s0)
   14d2c:	00042423          	sw	zero,8(s0)
   14d30:	00d43023          	sd	a3,0(s0)
   14d34:	03379713          	slli	a4,a5,0x33
   14d38:	ee075ce3          	bgez	a4,14c30 <__sflush_r+0x108>
   14d3c:	05843583          	ld	a1,88(s0)
   14d40:	08a43823          	sd	a0,144(s0)
   14d44:	0099a023          	sw	s1,0(s3)
   14d48:	ee059ae3          	bnez	a1,14c3c <__sflush_r+0x114>
   14d4c:	01813483          	ld	s1,24(sp)
   14d50:	f05ff06f          	j	14c54 <__sflush_r+0x12c>
   14d54:	0009a783          	lw	a5,0(s3)
   14d58:	e40784e3          	beqz	a5,14ba0 <__sflush_r+0x78>
   14d5c:	fe378713          	addi	a4,a5,-29
   14d60:	00070c63          	beqz	a4,14d78 <__sflush_r+0x250>
   14d64:	fea78793          	addi	a5,a5,-22
   14d68:	00078863          	beqz	a5,14d78 <__sflush_r+0x250>
   14d6c:	01045783          	lhu	a5,16(s0)
   14d70:	0407e793          	ori	a5,a5,64
   14d74:	f65ff06f          	j	14cd8 <__sflush_r+0x1b0>
   14d78:	0099a023          	sw	s1,0(s3)
   14d7c:	01813483          	ld	s1,24(sp)
   14d80:	ed5ff06f          	j	14c54 <__sflush_r+0x12c>

0000000000014d84 <_fflush_r>:
   14d84:	00050793          	mv	a5,a0
   14d88:	00050663          	beqz	a0,14d94 <_fflush_r+0x10>
   14d8c:	04853703          	ld	a4,72(a0)
   14d90:	00070e63          	beqz	a4,14dac <_fflush_r+0x28>
   14d94:	01059703          	lh	a4,16(a1)
   14d98:	00071663          	bnez	a4,14da4 <_fflush_r+0x20>
   14d9c:	00000513          	li	a0,0
   14da0:	00008067          	ret
   14da4:	00078513          	mv	a0,a5
   14da8:	d81ff06f          	j	14b28 <__sflush_r>
   14dac:	fe010113          	addi	sp,sp,-32
   14db0:	00b13423          	sd	a1,8(sp)
   14db4:	00113c23          	sd	ra,24(sp)
   14db8:	00a13023          	sd	a0,0(sp)
   14dbc:	fdcfb0ef          	jal	10598 <__sinit>
   14dc0:	00813583          	ld	a1,8(sp)
   14dc4:	00013783          	ld	a5,0(sp)
   14dc8:	01059703          	lh	a4,16(a1)
   14dcc:	00070a63          	beqz	a4,14de0 <_fflush_r+0x5c>
   14dd0:	01813083          	ld	ra,24(sp)
   14dd4:	00078513          	mv	a0,a5
   14dd8:	02010113          	addi	sp,sp,32
   14ddc:	d4dff06f          	j	14b28 <__sflush_r>
   14de0:	01813083          	ld	ra,24(sp)
   14de4:	00000513          	li	a0,0
   14de8:	02010113          	addi	sp,sp,32
   14dec:	00008067          	ret

0000000000014df0 <fflush>:
   14df0:	06050063          	beqz	a0,14e50 <fflush+0x60>
   14df4:	00050593          	mv	a1,a0
   14df8:	2201b503          	ld	a0,544(gp) # 20698 <_impure_ptr>
   14dfc:	00050663          	beqz	a0,14e08 <fflush+0x18>
   14e00:	04853783          	ld	a5,72(a0)
   14e04:	00078c63          	beqz	a5,14e1c <fflush+0x2c>
   14e08:	01059783          	lh	a5,16(a1)
   14e0c:	00079663          	bnez	a5,14e18 <fflush+0x28>
   14e10:	00000513          	li	a0,0
   14e14:	00008067          	ret
   14e18:	d11ff06f          	j	14b28 <__sflush_r>
   14e1c:	fe010113          	addi	sp,sp,-32
   14e20:	00b13423          	sd	a1,8(sp)
   14e24:	00a13023          	sd	a0,0(sp)
   14e28:	00113c23          	sd	ra,24(sp)
   14e2c:	f6cfb0ef          	jal	10598 <__sinit>
   14e30:	00813583          	ld	a1,8(sp)
   14e34:	00013503          	ld	a0,0(sp)
   14e38:	01059783          	lh	a5,16(a1)
   14e3c:	02079863          	bnez	a5,14e6c <fflush+0x7c>
   14e40:	01813083          	ld	ra,24(sp)
   14e44:	00000513          	li	a0,0
   14e48:	02010113          	addi	sp,sp,32
   14e4c:	00008067          	ret
   14e50:	00020637          	lui	a2,0x20
   14e54:	000155b7          	lui	a1,0x15
   14e58:	00020537          	lui	a0,0x20
   14e5c:	b0060613          	addi	a2,a2,-1280 # 1fb00 <__sglue>
   14e60:	d8458593          	addi	a1,a1,-636 # 14d84 <_fflush_r>
   14e64:	b1850513          	addi	a0,a0,-1256 # 1fb18 <_impure_data>
   14e68:	f8cfb06f          	j	105f4 <_fwalk_sglue>
   14e6c:	01813083          	ld	ra,24(sp)
   14e70:	02010113          	addi	sp,sp,32
   14e74:	cb5ff06f          	j	14b28 <__sflush_r>

0000000000014e78 <__sfvwrite_r>:
   14e78:	01063783          	ld	a5,16(a2)
   14e7c:	22078e63          	beqz	a5,150b8 <__sfvwrite_r+0x240>
   14e80:	01059683          	lh	a3,16(a1)
   14e84:	fa010113          	addi	sp,sp,-96
   14e88:	04813823          	sd	s0,80(sp)
   14e8c:	03413823          	sd	s4,48(sp)
   14e90:	03513423          	sd	s5,40(sp)
   14e94:	04113c23          	sd	ra,88(sp)
   14e98:	0086f793          	andi	a5,a3,8
   14e9c:	00058413          	mv	s0,a1
   14ea0:	00050a93          	mv	s5,a0
   14ea4:	00060a13          	mv	s4,a2
   14ea8:	0a078663          	beqz	a5,14f54 <__sfvwrite_r+0xdc>
   14eac:	0185b783          	ld	a5,24(a1)
   14eb0:	0a078263          	beqz	a5,14f54 <__sfvwrite_r+0xdc>
   14eb4:	04913423          	sd	s1,72(sp)
   14eb8:	05213023          	sd	s2,64(sp)
   14ebc:	03313c23          	sd	s3,56(sp)
   14ec0:	03613023          	sd	s6,32(sp)
   14ec4:	0026f793          	andi	a5,a3,2
   14ec8:	000a3483          	ld	s1,0(s4)
   14ecc:	0a078c63          	beqz	a5,14f84 <__sfvwrite_r+0x10c>
   14ed0:	80000b37          	lui	s6,0x80000
   14ed4:	c00b4b13          	xori	s6,s6,-1024
   14ed8:	00000993          	li	s3,0
   14edc:	00000913          	li	s2,0
   14ee0:	00098613          	mv	a2,s3
   14ee4:	000a8513          	mv	a0,s5
   14ee8:	1c090063          	beqz	s2,150a8 <__sfvwrite_r+0x230>
   14eec:	00090693          	mv	a3,s2
   14ef0:	012b7663          	bgeu	s6,s2,14efc <__sfvwrite_r+0x84>
   14ef4:	800006b7          	lui	a3,0x80000
   14ef8:	c006c693          	xori	a3,a3,-1024
   14efc:	04043783          	ld	a5,64(s0)
   14f00:	03043583          	ld	a1,48(s0)
   14f04:	0006869b          	sext.w	a3,a3
   14f08:	000780e7          	jalr	a5
   14f0c:	42a05463          	blez	a0,15334 <__sfvwrite_r+0x4bc>
   14f10:	010a3783          	ld	a5,16(s4)
   14f14:	00a989b3          	add	s3,s3,a0
   14f18:	40a90933          	sub	s2,s2,a0
   14f1c:	40a787b3          	sub	a5,a5,a0
   14f20:	00fa3823          	sd	a5,16(s4)
   14f24:	fa079ee3          	bnez	a5,14ee0 <__sfvwrite_r+0x68>
   14f28:	04813483          	ld	s1,72(sp)
   14f2c:	04013903          	ld	s2,64(sp)
   14f30:	03813983          	ld	s3,56(sp)
   14f34:	02013b03          	ld	s6,32(sp)
   14f38:	00000513          	li	a0,0
   14f3c:	05813083          	ld	ra,88(sp)
   14f40:	05013403          	ld	s0,80(sp)
   14f44:	03013a03          	ld	s4,48(sp)
   14f48:	02813a83          	ld	s5,40(sp)
   14f4c:	06010113          	addi	sp,sp,96
   14f50:	00008067          	ret
   14f54:	00040593          	mv	a1,s0
   14f58:	000a8513          	mv	a0,s5
   14f5c:	3fc000ef          	jal	15358 <__swsetup_r>
   14f60:	28051c63          	bnez	a0,151f8 <__sfvwrite_r+0x380>
   14f64:	01041683          	lh	a3,16(s0)
   14f68:	04913423          	sd	s1,72(sp)
   14f6c:	05213023          	sd	s2,64(sp)
   14f70:	03313c23          	sd	s3,56(sp)
   14f74:	03613023          	sd	s6,32(sp)
   14f78:	0026f793          	andi	a5,a3,2
   14f7c:	000a3483          	ld	s1,0(s4)
   14f80:	f40798e3          	bnez	a5,14ed0 <__sfvwrite_r+0x58>
   14f84:	01713c23          	sd	s7,24(sp)
   14f88:	01813823          	sd	s8,16(sp)
   14f8c:	01913423          	sd	s9,8(sp)
   14f90:	0016f793          	andi	a5,a3,1
   14f94:	12079663          	bnez	a5,150c0 <__sfvwrite_r+0x248>
   14f98:	00043783          	ld	a5,0(s0)
   14f9c:	80000737          	lui	a4,0x80000
   14fa0:	fff74c13          	not	s8,a4
   14fa4:	00000b13          	li	s6,0
   14fa8:	00000993          	li	s3,0
   14fac:	0e098663          	beqz	s3,15098 <__sfvwrite_r+0x220>
   14fb0:	2006f713          	andi	a4,a3,512
   14fb4:	00c42903          	lw	s2,12(s0)
   14fb8:	00078513          	mv	a0,a5
   14fbc:	24070263          	beqz	a4,15200 <__sfvwrite_r+0x388>
   14fc0:	0929ec63          	bltu	s3,s2,15058 <__sfvwrite_r+0x1e0>
   14fc4:	4806f713          	andi	a4,a3,1152
   14fc8:	00090b93          	mv	s7,s2
   14fcc:	08070a63          	beqz	a4,15060 <__sfvwrite_r+0x1e8>
   14fd0:	02042603          	lw	a2,32(s0)
   14fd4:	01843583          	ld	a1,24(s0)
   14fd8:	0016171b          	slliw	a4,a2,0x1
   14fdc:	00c7073b          	addw	a4,a4,a2
   14fe0:	40b787b3          	sub	a5,a5,a1
   14fe4:	01f7591b          	srliw	s2,a4,0x1f
   14fe8:	00078b9b          	sext.w	s7,a5
   14fec:	00e9093b          	addw	s2,s2,a4
   14ff0:	001b8713          	addi	a4,s7,1
   14ff4:	4019591b          	sraiw	s2,s2,0x1
   14ff8:	01370733          	add	a4,a4,s3
   14ffc:	00e97663          	bgeu	s2,a4,15008 <__sfvwrite_r+0x190>
   15000:	0017879b          	addiw	a5,a5,1
   15004:	0137893b          	addw	s2,a5,s3
   15008:	4006f693          	andi	a3,a3,1024
   1500c:	2c068863          	beqz	a3,152dc <__sfvwrite_r+0x464>
   15010:	00090593          	mv	a1,s2
   15014:	000a8513          	mv	a0,s5
   15018:	9f4fc0ef          	jal	1120c <_malloc_r>
   1501c:	00050c93          	mv	s9,a0
   15020:	30050e63          	beqz	a0,1533c <__sfvwrite_r+0x4c4>
   15024:	01843583          	ld	a1,24(s0)
   15028:	000b8613          	mv	a2,s7
   1502c:	005000ef          	jal	15830 <memcpy>
   15030:	01045703          	lhu	a4,16(s0)
   15034:	b7f77713          	andi	a4,a4,-1153
   15038:	08076713          	ori	a4,a4,128
   1503c:	00e41823          	sh	a4,16(s0)
   15040:	017c8533          	add	a0,s9,s7
   15044:	41790bbb          	subw	s7,s2,s7
   15048:	01943c23          	sd	s9,24(s0)
   1504c:	00a43023          	sd	a0,0(s0)
   15050:	01742623          	sw	s7,12(s0)
   15054:	03242023          	sw	s2,32(s0)
   15058:	00098b93          	mv	s7,s3
   1505c:	00098913          	mv	s2,s3
   15060:	000b0593          	mv	a1,s6
   15064:	00090613          	mv	a2,s2
   15068:	6a0000ef          	jal	15708 <memmove>
   1506c:	00c42683          	lw	a3,12(s0)
   15070:	00043783          	ld	a5,0(s0)
   15074:	010a3703          	ld	a4,16(s4)
   15078:	417686bb          	subw	a3,a3,s7
   1507c:	012787b3          	add	a5,a5,s2
   15080:	00d42623          	sw	a3,12(s0)
   15084:	00f43023          	sd	a5,0(s0)
   15088:	41370733          	sub	a4,a4,s3
   1508c:	00ea3823          	sd	a4,16(s4)
   15090:	28070a63          	beqz	a4,15324 <__sfvwrite_r+0x4ac>
   15094:	01041683          	lh	a3,16(s0)
   15098:	0004bb03          	ld	s6,0(s1)
   1509c:	0084b983          	ld	s3,8(s1)
   150a0:	01048493          	addi	s1,s1,16
   150a4:	f09ff06f          	j	14fac <__sfvwrite_r+0x134>
   150a8:	0004b983          	ld	s3,0(s1)
   150ac:	0084b903          	ld	s2,8(s1)
   150b0:	01048493          	addi	s1,s1,16
   150b4:	e2dff06f          	j	14ee0 <__sfvwrite_r+0x68>
   150b8:	00000513          	li	a0,0
   150bc:	00008067          	ret
   150c0:	00000b93          	li	s7,0
   150c4:	00000c13          	li	s8,0
   150c8:	00000513          	li	a0,0
   150cc:	00000c93          	li	s9,0
   150d0:	080b8063          	beqz	s7,15150 <__sfvwrite_r+0x2d8>
   150d4:	08050863          	beqz	a0,15164 <__sfvwrite_r+0x2ec>
   150d8:	000c0b13          	mv	s6,s8
   150dc:	018bf463          	bgeu	s7,s8,150e4 <__sfvwrite_r+0x26c>
   150e0:	000b8b13          	mv	s6,s7
   150e4:	02042683          	lw	a3,32(s0)
   150e8:	00c42783          	lw	a5,12(s0)
   150ec:	00043503          	ld	a0,0(s0)
   150f0:	01843703          	ld	a4,24(s0)
   150f4:	00d789bb          	addw	s3,a5,a3
   150f8:	000b0913          	mv	s2,s6
   150fc:	00a77463          	bgeu	a4,a0,15104 <__sfvwrite_r+0x28c>
   15100:	0969c263          	blt	s3,s6,15184 <__sfvwrite_r+0x30c>
   15104:	1adb4663          	blt	s6,a3,152b0 <__sfvwrite_r+0x438>
   15108:	04043783          	ld	a5,64(s0)
   1510c:	03043583          	ld	a1,48(s0)
   15110:	000c8613          	mv	a2,s9
   15114:	000a8513          	mv	a0,s5
   15118:	000780e7          	jalr	a5
   1511c:	00050913          	mv	s2,a0
   15120:	0aa05863          	blez	a0,151d0 <__sfvwrite_r+0x358>
   15124:	0005079b          	sext.w	a5,a0
   15128:	40fc0c3b          	subw	s8,s8,a5
   1512c:	00100513          	li	a0,1
   15130:	080c0863          	beqz	s8,151c0 <__sfvwrite_r+0x348>
   15134:	010a3783          	ld	a5,16(s4)
   15138:	412787b3          	sub	a5,a5,s2
   1513c:	00fa3823          	sd	a5,16(s4)
   15140:	1e078263          	beqz	a5,15324 <__sfvwrite_r+0x4ac>
   15144:	412b8bb3          	sub	s7,s7,s2
   15148:	012c8cb3          	add	s9,s9,s2
   1514c:	f80b94e3          	bnez	s7,150d4 <__sfvwrite_r+0x25c>
   15150:	0084bb83          	ld	s7,8(s1)
   15154:	00048793          	mv	a5,s1
   15158:	01048493          	addi	s1,s1,16
   1515c:	fe0b8ae3          	beqz	s7,15150 <__sfvwrite_r+0x2d8>
   15160:	0007bc83          	ld	s9,0(a5)
   15164:	000b8613          	mv	a2,s7
   15168:	00a00593          	li	a1,10
   1516c:	000c8513          	mv	a0,s9
   15170:	34c000ef          	jal	154bc <memchr>
   15174:	1a050463          	beqz	a0,1531c <__sfvwrite_r+0x4a4>
   15178:	00150513          	addi	a0,a0,1
   1517c:	41950c3b          	subw	s8,a0,s9
   15180:	f59ff06f          	j	150d8 <__sfvwrite_r+0x260>
   15184:	000c8593          	mv	a1,s9
   15188:	00098613          	mv	a2,s3
   1518c:	57c000ef          	jal	15708 <memmove>
   15190:	00043783          	ld	a5,0(s0)
   15194:	00040593          	mv	a1,s0
   15198:	000a8513          	mv	a0,s5
   1519c:	013787b3          	add	a5,a5,s3
   151a0:	00f43023          	sd	a5,0(s0)
   151a4:	be1ff0ef          	jal	14d84 <_fflush_r>
   151a8:	02051463          	bnez	a0,151d0 <__sfvwrite_r+0x358>
   151ac:	00098793          	mv	a5,s3
   151b0:	40fc0c3b          	subw	s8,s8,a5
   151b4:	00098913          	mv	s2,s3
   151b8:	00100513          	li	a0,1
   151bc:	f60c1ce3          	bnez	s8,15134 <__sfvwrite_r+0x2bc>
   151c0:	00040593          	mv	a1,s0
   151c4:	000a8513          	mv	a0,s5
   151c8:	bbdff0ef          	jal	14d84 <_fflush_r>
   151cc:	f60504e3          	beqz	a0,15134 <__sfvwrite_r+0x2bc>
   151d0:	01041783          	lh	a5,16(s0)
   151d4:	01813b83          	ld	s7,24(sp)
   151d8:	01013c03          	ld	s8,16(sp)
   151dc:	00813c83          	ld	s9,8(sp)
   151e0:	04813483          	ld	s1,72(sp)
   151e4:	04013903          	ld	s2,64(sp)
   151e8:	03813983          	ld	s3,56(sp)
   151ec:	02013b03          	ld	s6,32(sp)
   151f0:	0407e793          	ori	a5,a5,64
   151f4:	00f41823          	sh	a5,16(s0)
   151f8:	fff00513          	li	a0,-1
   151fc:	d41ff06f          	j	14f3c <__sfvwrite_r+0xc4>
   15200:	01843703          	ld	a4,24(s0)
   15204:	06f76263          	bltu	a4,a5,15268 <__sfvwrite_r+0x3f0>
   15208:	02042583          	lw	a1,32(s0)
   1520c:	04b9ee63          	bltu	s3,a1,15268 <__sfvwrite_r+0x3f0>
   15210:	00098913          	mv	s2,s3
   15214:	013c7463          	bgeu	s8,s3,1521c <__sfvwrite_r+0x3a4>
   15218:	000c0913          	mv	s2,s8
   1521c:	0009051b          	sext.w	a0,s2
   15220:	7f1080ef          	jal	1e210 <__moddi3>
   15224:	04043783          	ld	a5,64(s0)
   15228:	03043583          	ld	a1,48(s0)
   1522c:	40a906bb          	subw	a3,s2,a0
   15230:	000b0613          	mv	a2,s6
   15234:	000a8513          	mv	a0,s5
   15238:	000780e7          	jalr	a5
   1523c:	f8a05ae3          	blez	a0,151d0 <__sfvwrite_r+0x358>
   15240:	00050913          	mv	s2,a0
   15244:	010a3783          	ld	a5,16(s4)
   15248:	412989b3          	sub	s3,s3,s2
   1524c:	412787b3          	sub	a5,a5,s2
   15250:	00fa3823          	sd	a5,16(s4)
   15254:	0c078863          	beqz	a5,15324 <__sfvwrite_r+0x4ac>
   15258:	01041683          	lh	a3,16(s0)
   1525c:	00043783          	ld	a5,0(s0)
   15260:	012b0b33          	add	s6,s6,s2
   15264:	d49ff06f          	j	14fac <__sfvwrite_r+0x134>
   15268:	0129f463          	bgeu	s3,s2,15270 <__sfvwrite_r+0x3f8>
   1526c:	00098913          	mv	s2,s3
   15270:	00078513          	mv	a0,a5
   15274:	00090613          	mv	a2,s2
   15278:	000b0593          	mv	a1,s6
   1527c:	48c000ef          	jal	15708 <memmove>
   15280:	00043783          	ld	a5,0(s0)
   15284:	00c42703          	lw	a4,12(s0)
   15288:	012787b3          	add	a5,a5,s2
   1528c:	4127073b          	subw	a4,a4,s2
   15290:	00f43023          	sd	a5,0(s0)
   15294:	00e42623          	sw	a4,12(s0)
   15298:	fa0716e3          	bnez	a4,15244 <__sfvwrite_r+0x3cc>
   1529c:	00040593          	mv	a1,s0
   152a0:	000a8513          	mv	a0,s5
   152a4:	ae1ff0ef          	jal	14d84 <_fflush_r>
   152a8:	f8050ee3          	beqz	a0,15244 <__sfvwrite_r+0x3cc>
   152ac:	f25ff06f          	j	151d0 <__sfvwrite_r+0x358>
   152b0:	000b0613          	mv	a2,s6
   152b4:	000c8593          	mv	a1,s9
   152b8:	450000ef          	jal	15708 <memmove>
   152bc:	00c42683          	lw	a3,12(s0)
   152c0:	00043703          	ld	a4,0(s0)
   152c4:	000b079b          	sext.w	a5,s6
   152c8:	416686bb          	subw	a3,a3,s6
   152cc:	01670733          	add	a4,a4,s6
   152d0:	00d42623          	sw	a3,12(s0)
   152d4:	00e43023          	sd	a4,0(s0)
   152d8:	e51ff06f          	j	15128 <__sfvwrite_r+0x2b0>
   152dc:	00090613          	mv	a2,s2
   152e0:	000a8513          	mv	a0,s5
   152e4:	789030ef          	jal	1926c <_realloc_r>
   152e8:	00050c93          	mv	s9,a0
   152ec:	d4051ae3          	bnez	a0,15040 <__sfvwrite_r+0x1c8>
   152f0:	01843583          	ld	a1,24(s0)
   152f4:	000a8513          	mv	a0,s5
   152f8:	c11fb0ef          	jal	10f08 <_free_r>
   152fc:	01045783          	lhu	a5,16(s0)
   15300:	00c00713          	li	a4,12
   15304:	01813b83          	ld	s7,24(sp)
   15308:	01013c03          	ld	s8,16(sp)
   1530c:	00813c83          	ld	s9,8(sp)
   15310:	00eaa023          	sw	a4,0(s5)
   15314:	f7f7f793          	andi	a5,a5,-129
   15318:	ec9ff06f          	j	151e0 <__sfvwrite_r+0x368>
   1531c:	001b8c1b          	addiw	s8,s7,1
   15320:	db9ff06f          	j	150d8 <__sfvwrite_r+0x260>
   15324:	01813b83          	ld	s7,24(sp)
   15328:	01013c03          	ld	s8,16(sp)
   1532c:	00813c83          	ld	s9,8(sp)
   15330:	bf9ff06f          	j	14f28 <__sfvwrite_r+0xb0>
   15334:	01041783          	lh	a5,16(s0)
   15338:	ea9ff06f          	j	151e0 <__sfvwrite_r+0x368>
   1533c:	00c00793          	li	a5,12
   15340:	00faa023          	sw	a5,0(s5)
   15344:	01813b83          	ld	s7,24(sp)
   15348:	01041783          	lh	a5,16(s0)
   1534c:	01013c03          	ld	s8,16(sp)
   15350:	00813c83          	ld	s9,8(sp)
   15354:	e8dff06f          	j	151e0 <__sfvwrite_r+0x368>

0000000000015358 <__swsetup_r>:
   15358:	2201b703          	ld	a4,544(gp) # 20698 <_impure_ptr>
   1535c:	fe010113          	addi	sp,sp,-32
   15360:	00113c23          	sd	ra,24(sp)
   15364:	00050613          	mv	a2,a0
   15368:	00058793          	mv	a5,a1
   1536c:	00070663          	beqz	a4,15378 <__swsetup_r+0x20>
   15370:	04873683          	ld	a3,72(a4) # ffffffff80000048 <__BSS_END__+0xffffffff7ffdf3d0>
   15374:	10068a63          	beqz	a3,15488 <__swsetup_r+0x130>
   15378:	01079703          	lh	a4,16(a5)
   1537c:	00877693          	andi	a3,a4,8
   15380:	02068e63          	beqz	a3,153bc <__swsetup_r+0x64>
   15384:	0187b683          	ld	a3,24(a5)
   15388:	04068a63          	beqz	a3,153dc <__swsetup_r+0x84>
   1538c:	01079703          	lh	a4,16(a5)
   15390:	00177613          	andi	a2,a4,1
   15394:	06060e63          	beqz	a2,15410 <__swsetup_r+0xb8>
   15398:	0207a603          	lw	a2,32(a5)
   1539c:	0007a623          	sw	zero,12(a5)
   153a0:	00000513          	li	a0,0
   153a4:	40c0063b          	negw	a2,a2
   153a8:	02c7a423          	sw	a2,40(a5)
   153ac:	08068063          	beqz	a3,1542c <__swsetup_r+0xd4>
   153b0:	01813083          	ld	ra,24(sp)
   153b4:	02010113          	addi	sp,sp,32
   153b8:	00008067          	ret
   153bc:	01077693          	andi	a3,a4,16
   153c0:	0e068263          	beqz	a3,154a4 <__swsetup_r+0x14c>
   153c4:	00477693          	andi	a3,a4,4
   153c8:	06069e63          	bnez	a3,15444 <__swsetup_r+0xec>
   153cc:	0187b683          	ld	a3,24(a5)
   153d0:	00876713          	ori	a4,a4,8
   153d4:	00e79823          	sh	a4,16(a5)
   153d8:	fa069ae3          	bnez	a3,1538c <__swsetup_r+0x34>
   153dc:	0107b703          	ld	a4,16(a5)
   153e0:	20000593          	li	a1,512
   153e4:	28077713          	andi	a4,a4,640
   153e8:	fab702e3          	beq	a4,a1,1538c <__swsetup_r+0x34>
   153ec:	00060513          	mv	a0,a2
   153f0:	00078593          	mv	a1,a5
   153f4:	00f13023          	sd	a5,0(sp)
   153f8:	4a8040ef          	jal	198a0 <__smakebuf_r>
   153fc:	00013783          	ld	a5,0(sp)
   15400:	01079703          	lh	a4,16(a5)
   15404:	0187b683          	ld	a3,24(a5)
   15408:	00177613          	andi	a2,a4,1
   1540c:	f80616e3          	bnez	a2,15398 <__swsetup_r+0x40>
   15410:	00277613          	andi	a2,a4,2
   15414:	00000593          	li	a1,0
   15418:	00061463          	bnez	a2,15420 <__swsetup_r+0xc8>
   1541c:	0207a583          	lw	a1,32(a5)
   15420:	00b7a623          	sw	a1,12(a5)
   15424:	00000513          	li	a0,0
   15428:	f80694e3          	bnez	a3,153b0 <__swsetup_r+0x58>
   1542c:	08077693          	andi	a3,a4,128
   15430:	f80680e3          	beqz	a3,153b0 <__swsetup_r+0x58>
   15434:	04076713          	ori	a4,a4,64
   15438:	00e79823          	sh	a4,16(a5)
   1543c:	fff00513          	li	a0,-1
   15440:	f71ff06f          	j	153b0 <__swsetup_r+0x58>
   15444:	0587b583          	ld	a1,88(a5)
   15448:	02058663          	beqz	a1,15474 <__swsetup_r+0x11c>
   1544c:	07478693          	addi	a3,a5,116
   15450:	02d58063          	beq	a1,a3,15470 <__swsetup_r+0x118>
   15454:	00060513          	mv	a0,a2
   15458:	00f13423          	sd	a5,8(sp)
   1545c:	00c13023          	sd	a2,0(sp)
   15460:	aa9fb0ef          	jal	10f08 <_free_r>
   15464:	00813783          	ld	a5,8(sp)
   15468:	00013603          	ld	a2,0(sp)
   1546c:	01079703          	lh	a4,16(a5)
   15470:	0407bc23          	sd	zero,88(a5)
   15474:	0187b683          	ld	a3,24(a5)
   15478:	fdb77713          	andi	a4,a4,-37
   1547c:	0007a423          	sw	zero,8(a5)
   15480:	00d7b023          	sd	a3,0(a5)
   15484:	f4dff06f          	j	153d0 <__swsetup_r+0x78>
   15488:	00a13023          	sd	a0,0(sp)
   1548c:	00070513          	mv	a0,a4
   15490:	00b13423          	sd	a1,8(sp)
   15494:	904fb0ef          	jal	10598 <__sinit>
   15498:	00813783          	ld	a5,8(sp)
   1549c:	00013603          	ld	a2,0(sp)
   154a0:	ed9ff06f          	j	15378 <__swsetup_r+0x20>
   154a4:	00900693          	li	a3,9
   154a8:	04076713          	ori	a4,a4,64
   154ac:	00d62023          	sw	a3,0(a2)
   154b0:	00e79823          	sh	a4,16(a5)
   154b4:	fff00513          	li	a0,-1
   154b8:	ef9ff06f          	j	153b0 <__swsetup_r+0x58>

00000000000154bc <memchr>:
   154bc:	00757793          	andi	a5,a0,7
   154c0:	0ff5f313          	zext.b	t1,a1
   154c4:	02078063          	beqz	a5,154e4 <memchr+0x28>
   154c8:	0a060663          	beqz	a2,15574 <memchr+0xb8>
   154cc:	00054783          	lbu	a5,0(a0)
   154d0:	fff60613          	addi	a2,a2,-1
   154d4:	08678e63          	beq	a5,t1,15570 <memchr+0xb4>
   154d8:	00150513          	addi	a0,a0,1
   154dc:	00757793          	andi	a5,a0,7
   154e0:	fe0794e3          	bnez	a5,154c8 <memchr+0xc>
   154e4:	00700813          	li	a6,7
   154e8:	06c87663          	bgeu	a6,a2,15554 <memchr+0x98>
   154ec:	0ff5f593          	zext.b	a1,a1
   154f0:	0085979b          	slliw	a5,a1,0x8
   154f4:	00b787b3          	add	a5,a5,a1
   154f8:	01079693          	slli	a3,a5,0x10
   154fc:	7f7f8737          	lui	a4,0x7f7f8
   15500:	00f686b3          	add	a3,a3,a5
   15504:	f7f70713          	addi	a4,a4,-129 # 7f7f7f7f <__BSS_END__+0x7f7d7307>
   15508:	feff07b7          	lui	a5,0xfeff0
   1550c:	eff78793          	addi	a5,a5,-257 # fffffffffefefeff <__BSS_END__+0xfffffffffefcf287>
   15510:	02071593          	slli	a1,a4,0x20
   15514:	02069e13          	slli	t3,a3,0x20
   15518:	00e585b3          	add	a1,a1,a4
   1551c:	02079893          	slli	a7,a5,0x20
   15520:	01c686b3          	add	a3,a3,t3
   15524:	fff5c593          	not	a1,a1
   15528:	00f888b3          	add	a7,a7,a5
   1552c:	00053783          	ld	a5,0(a0)
   15530:	00f6c7b3          	xor	a5,a3,a5
   15534:	01178733          	add	a4,a5,a7
   15538:	fff7c793          	not	a5,a5
   1553c:	00f777b3          	and	a5,a4,a5
   15540:	00b7f7b3          	and	a5,a5,a1
   15544:	00079a63          	bnez	a5,15558 <memchr+0x9c>
   15548:	ff860613          	addi	a2,a2,-8
   1554c:	00850513          	addi	a0,a0,8
   15550:	fcc86ee3          	bltu	a6,a2,1552c <memchr+0x70>
   15554:	02060063          	beqz	a2,15574 <memchr+0xb8>
   15558:	00c50633          	add	a2,a0,a2
   1555c:	00c0006f          	j	15568 <memchr+0xac>
   15560:	00150513          	addi	a0,a0,1
   15564:	00c50863          	beq	a0,a2,15574 <memchr+0xb8>
   15568:	00054783          	lbu	a5,0(a0)
   1556c:	fe679ae3          	bne	a5,t1,15560 <memchr+0xa4>
   15570:	00008067          	ret
   15574:	00000513          	li	a0,0
   15578:	00008067          	ret

000000000001557c <strncpy>:
   1557c:	00a5e7b3          	or	a5,a1,a0
   15580:	0077f793          	andi	a5,a5,7
   15584:	00079663          	bnez	a5,15590 <strncpy+0x14>
   15588:	00863793          	sltiu	a5,a2,8
   1558c:	04078663          	beqz	a5,155d8 <strncpy+0x5c>
   15590:	00050713          	mv	a4,a0
   15594:	01c0006f          	j	155b0 <strncpy+0x34>
   15598:	fff5c683          	lbu	a3,-1(a1)
   1559c:	fff60813          	addi	a6,a2,-1
   155a0:	fed78fa3          	sb	a3,-1(a5)
   155a4:	00068e63          	beqz	a3,155c0 <strncpy+0x44>
   155a8:	00078713          	mv	a4,a5
   155ac:	00080613          	mv	a2,a6
   155b0:	00158593          	addi	a1,a1,1
   155b4:	00170793          	addi	a5,a4,1
   155b8:	fe0610e3          	bnez	a2,15598 <strncpy+0x1c>
   155bc:	00008067          	ret
   155c0:	00c70733          	add	a4,a4,a2
   155c4:	06080863          	beqz	a6,15634 <strncpy+0xb8>
   155c8:	00178793          	addi	a5,a5,1
   155cc:	fe078fa3          	sb	zero,-1(a5)
   155d0:	fee79ce3          	bne	a5,a4,155c8 <strncpy+0x4c>
   155d4:	00008067          	ret
   155d8:	7f7f8737          	lui	a4,0x7f7f8
   155dc:	f7f70713          	addi	a4,a4,-129 # 7f7f7f7f <__BSS_END__+0x7f7d7307>
   155e0:	feff07b7          	lui	a5,0xfeff0
   155e4:	02071893          	slli	a7,a4,0x20
   155e8:	eff78793          	addi	a5,a5,-257 # fffffffffefefeff <__BSS_END__+0xfffffffffefcf287>
   155ec:	00e888b3          	add	a7,a7,a4
   155f0:	02079313          	slli	t1,a5,0x20
   155f4:	00f30333          	add	t1,t1,a5
   155f8:	fff8c893          	not	a7,a7
   155fc:	00050713          	mv	a4,a0
   15600:	00700e13          	li	t3,7
   15604:	0005b683          	ld	a3,0(a1)
   15608:	006687b3          	add	a5,a3,t1
   1560c:	fff6c813          	not	a6,a3
   15610:	0107f7b3          	and	a5,a5,a6
   15614:	0117f7b3          	and	a5,a5,a7
   15618:	f8079ce3          	bnez	a5,155b0 <strncpy+0x34>
   1561c:	ff860613          	addi	a2,a2,-8
   15620:	00d73023          	sd	a3,0(a4)
   15624:	00870713          	addi	a4,a4,8
   15628:	00858593          	addi	a1,a1,8
   1562c:	fcce6ce3          	bltu	t3,a2,15604 <strncpy+0x88>
   15630:	f81ff06f          	j	155b0 <strncpy+0x34>
   15634:	00008067          	ret

0000000000015638 <__localeconv_l>:
   15638:	10050513          	addi	a0,a0,256
   1563c:	00008067          	ret

0000000000015640 <_localeconv_r>:
   15640:	10818513          	addi	a0,gp,264 # 20580 <__global_locale+0x100>
   15644:	00008067          	ret

0000000000015648 <localeconv>:
   15648:	10818513          	addi	a0,gp,264 # 20580 <__global_locale+0x100>
   1564c:	00008067          	ret

0000000000015650 <_sbrk_r>:
   15650:	fe010113          	addi	sp,sp,-32
   15654:	00813823          	sd	s0,16(sp)
   15658:	00913423          	sd	s1,8(sp)
   1565c:	00050493          	mv	s1,a0
   15660:	00058513          	mv	a0,a1
   15664:	00113c23          	sd	ra,24(sp)
   15668:	2401a023          	sw	zero,576(gp) # 206b8 <errno>
   1566c:	3c8060ef          	jal	1ba34 <_sbrk>
   15670:	fff00793          	li	a5,-1
   15674:	00f50c63          	beq	a0,a5,1568c <_sbrk_r+0x3c>
   15678:	01813083          	ld	ra,24(sp)
   1567c:	01013403          	ld	s0,16(sp)
   15680:	00813483          	ld	s1,8(sp)
   15684:	02010113          	addi	sp,sp,32
   15688:	00008067          	ret
   1568c:	2401a783          	lw	a5,576(gp) # 206b8 <errno>
   15690:	fe0784e3          	beqz	a5,15678 <_sbrk_r+0x28>
   15694:	01813083          	ld	ra,24(sp)
   15698:	01013403          	ld	s0,16(sp)
   1569c:	00f4a023          	sw	a5,0(s1)
   156a0:	00813483          	ld	s1,8(sp)
   156a4:	02010113          	addi	sp,sp,32
   156a8:	00008067          	ret

00000000000156ac <__libc_fini_array>:
   156ac:	fe010113          	addi	sp,sp,-32
   156b0:	00813823          	sd	s0,16(sp)
   156b4:	000207b7          	lui	a5,0x20
   156b8:	00020437          	lui	s0,0x20
   156bc:	b0078793          	addi	a5,a5,-1280 # 1fb00 <__sglue>
   156c0:	af840413          	addi	s0,s0,-1288 # 1faf8 <__do_global_dtors_aux_fini_array_entry>
   156c4:	408787b3          	sub	a5,a5,s0
   156c8:	00913423          	sd	s1,8(sp)
   156cc:	00113c23          	sd	ra,24(sp)
   156d0:	4037d493          	srai	s1,a5,0x3
   156d4:	02048063          	beqz	s1,156f4 <__libc_fini_array+0x48>
   156d8:	ff840413          	addi	s0,s0,-8
   156dc:	00f40433          	add	s0,s0,a5
   156e0:	00043783          	ld	a5,0(s0)
   156e4:	fff48493          	addi	s1,s1,-1
   156e8:	ff840413          	addi	s0,s0,-8
   156ec:	000780e7          	jalr	a5
   156f0:	fe0498e3          	bnez	s1,156e0 <__libc_fini_array+0x34>
   156f4:	01813083          	ld	ra,24(sp)
   156f8:	01013403          	ld	s0,16(sp)
   156fc:	00813483          	ld	s1,8(sp)
   15700:	02010113          	addi	sp,sp,32
   15704:	00008067          	ret

0000000000015708 <memmove>:
   15708:	02a5f663          	bgeu	a1,a0,15734 <memmove+0x2c>
   1570c:	00c587b3          	add	a5,a1,a2
   15710:	02f57263          	bgeu	a0,a5,15734 <memmove+0x2c>
   15714:	04060863          	beqz	a2,15764 <memmove+0x5c>
   15718:	00c50633          	add	a2,a0,a2
   1571c:	fff7c703          	lbu	a4,-1(a5)
   15720:	fff60613          	addi	a2,a2,-1
   15724:	fff78793          	addi	a5,a5,-1
   15728:	00e60023          	sb	a4,0(a2)
   1572c:	fec518e3          	bne	a0,a2,1571c <memmove+0x14>
   15730:	00008067          	ret
   15734:	01f00793          	li	a5,31
   15738:	02c7e863          	bltu	a5,a2,15768 <memmove+0x60>
   1573c:	00050793          	mv	a5,a0
   15740:	fff60693          	addi	a3,a2,-1
   15744:	0e060063          	beqz	a2,15824 <memmove+0x11c>
   15748:	00168693          	addi	a3,a3,1 # ffffffff80000001 <__BSS_END__+0xffffffff7ffdf389>
   1574c:	00d786b3          	add	a3,a5,a3
   15750:	0005c703          	lbu	a4,0(a1)
   15754:	00178793          	addi	a5,a5,1
   15758:	00158593          	addi	a1,a1,1
   1575c:	fee78fa3          	sb	a4,-1(a5)
   15760:	fed798e3          	bne	a5,a3,15750 <memmove+0x48>
   15764:	00008067          	ret
   15768:	00b567b3          	or	a5,a0,a1
   1576c:	0077f793          	andi	a5,a5,7
   15770:	00058893          	mv	a7,a1
   15774:	0a079263          	bnez	a5,15818 <memmove+0x110>
   15778:	00565793          	srli	a5,a2,0x5
   1577c:	00579813          	slli	a6,a5,0x5
   15780:	01050833          	add	a6,a0,a6
   15784:	fff78793          	addi	a5,a5,-1
   15788:	00050713          	mv	a4,a0
   1578c:	0005b683          	ld	a3,0(a1)
   15790:	02058593          	addi	a1,a1,32
   15794:	02070713          	addi	a4,a4,32
   15798:	fed73023          	sd	a3,-32(a4)
   1579c:	fe85b683          	ld	a3,-24(a1)
   157a0:	fed73423          	sd	a3,-24(a4)
   157a4:	ff05b683          	ld	a3,-16(a1)
   157a8:	fed73823          	sd	a3,-16(a4)
   157ac:	ff85b683          	ld	a3,-8(a1)
   157b0:	fed73c23          	sd	a3,-8(a4)
   157b4:	fd071ce3          	bne	a4,a6,1578c <memmove+0x84>
   157b8:	00579793          	slli	a5,a5,0x5
   157bc:	01178733          	add	a4,a5,a7
   157c0:	02070593          	addi	a1,a4,32
   157c4:	00f507b3          	add	a5,a0,a5
   157c8:	01867813          	andi	a6,a2,24
   157cc:	02078793          	addi	a5,a5,32
   157d0:	00058e13          	mv	t3,a1
   157d4:	01f67693          	andi	a3,a2,31
   157d8:	04080863          	beqz	a6,15828 <memmove+0x120>
   157dc:	ff868693          	addi	a3,a3,-8
   157e0:	ff86f693          	andi	a3,a3,-8
   157e4:	00d70733          	add	a4,a4,a3
   157e8:	02870713          	addi	a4,a4,40
   157ec:	41150833          	sub	a6,a0,a7
   157f0:	0005b303          	ld	t1,0(a1)
   157f4:	010588b3          	add	a7,a1,a6
   157f8:	00858593          	addi	a1,a1,8
   157fc:	0068b023          	sd	t1,0(a7)
   15800:	fee598e3          	bne	a1,a4,157f0 <memmove+0xe8>
   15804:	00868713          	addi	a4,a3,8
   15808:	01c705b3          	add	a1,a4,t3
   1580c:	00f707b3          	add	a5,a4,a5
   15810:	00767613          	andi	a2,a2,7
   15814:	f2dff06f          	j	15740 <memmove+0x38>
   15818:	fff60693          	addi	a3,a2,-1
   1581c:	00050793          	mv	a5,a0
   15820:	f29ff06f          	j	15748 <memmove+0x40>
   15824:	00008067          	ret
   15828:	00068613          	mv	a2,a3
   1582c:	f15ff06f          	j	15740 <memmove+0x38>

0000000000015830 <memcpy>:
   15830:	00a5c7b3          	xor	a5,a1,a0
   15834:	0077f793          	andi	a5,a5,7
   15838:	00c508b3          	add	a7,a0,a2
   1583c:	06079663          	bnez	a5,158a8 <memcpy+0x78>
   15840:	00863613          	sltiu	a2,a2,8
   15844:	06061263          	bnez	a2,158a8 <memcpy+0x78>
   15848:	00757793          	andi	a5,a0,7
   1584c:	00050713          	mv	a4,a0
   15850:	0c079a63          	bnez	a5,15924 <memcpy+0xf4>
   15854:	ff88f613          	andi	a2,a7,-8
   15858:	40e606b3          	sub	a3,a2,a4
   1585c:	04000793          	li	a5,64
   15860:	06d7c463          	blt	a5,a3,158c8 <memcpy+0x98>
   15864:	00058693          	mv	a3,a1
   15868:	00070793          	mv	a5,a4
   1586c:	02c77a63          	bgeu	a4,a2,158a0 <memcpy+0x70>
   15870:	0006b803          	ld	a6,0(a3)
   15874:	00878793          	addi	a5,a5,8
   15878:	00868693          	addi	a3,a3,8
   1587c:	ff07bc23          	sd	a6,-8(a5)
   15880:	fec7e8e3          	bltu	a5,a2,15870 <memcpy+0x40>
   15884:	fff60613          	addi	a2,a2,-1
   15888:	40e60633          	sub	a2,a2,a4
   1588c:	ff867613          	andi	a2,a2,-8
   15890:	00858593          	addi	a1,a1,8
   15894:	00870713          	addi	a4,a4,8
   15898:	00c585b3          	add	a1,a1,a2
   1589c:	00c70733          	add	a4,a4,a2
   158a0:	01176863          	bltu	a4,a7,158b0 <memcpy+0x80>
   158a4:	00008067          	ret
   158a8:	00050713          	mv	a4,a0
   158ac:	ff157ce3          	bgeu	a0,a7,158a4 <memcpy+0x74>
   158b0:	0005c783          	lbu	a5,0(a1)
   158b4:	00170713          	addi	a4,a4,1
   158b8:	00158593          	addi	a1,a1,1
   158bc:	fef70fa3          	sb	a5,-1(a4)
   158c0:	fee898e3          	bne	a7,a4,158b0 <memcpy+0x80>
   158c4:	00008067          	ret
   158c8:	0005b683          	ld	a3,0(a1)
   158cc:	0085b283          	ld	t0,8(a1)
   158d0:	0105bf83          	ld	t6,16(a1)
   158d4:	0185bf03          	ld	t5,24(a1)
   158d8:	0205be83          	ld	t4,32(a1)
   158dc:	0285be03          	ld	t3,40(a1)
   158e0:	0305b303          	ld	t1,48(a1)
   158e4:	0385b803          	ld	a6,56(a1)
   158e8:	00d73023          	sd	a3,0(a4)
   158ec:	0405b683          	ld	a3,64(a1)
   158f0:	04870713          	addi	a4,a4,72
   158f4:	fc573023          	sd	t0,-64(a4)
   158f8:	fed73c23          	sd	a3,-8(a4)
   158fc:	fdf73423          	sd	t6,-56(a4)
   15900:	40e606b3          	sub	a3,a2,a4
   15904:	fde73823          	sd	t5,-48(a4)
   15908:	fdd73c23          	sd	t4,-40(a4)
   1590c:	ffc73023          	sd	t3,-32(a4)
   15910:	fe673423          	sd	t1,-24(a4)
   15914:	ff073823          	sd	a6,-16(a4)
   15918:	04858593          	addi	a1,a1,72
   1591c:	fad7c6e3          	blt	a5,a3,158c8 <memcpy+0x98>
   15920:	f45ff06f          	j	15864 <memcpy+0x34>
   15924:	0005c683          	lbu	a3,0(a1)
   15928:	00170713          	addi	a4,a4,1
   1592c:	00777793          	andi	a5,a4,7
   15930:	fed70fa3          	sb	a3,-1(a4)
   15934:	00158593          	addi	a1,a1,1
   15938:	f0078ee3          	beqz	a5,15854 <memcpy+0x24>
   1593c:	0005c683          	lbu	a3,0(a1)
   15940:	00170713          	addi	a4,a4,1
   15944:	00777793          	andi	a5,a4,7
   15948:	fed70fa3          	sb	a3,-1(a4)
   1594c:	00158593          	addi	a1,a1,1
   15950:	fc079ae3          	bnez	a5,15924 <memcpy+0xf4>
   15954:	f01ff06f          	j	15854 <memcpy+0x24>

0000000000015958 <strlen>:
   15958:	00757793          	andi	a5,a0,7
   1595c:	00050713          	mv	a4,a0
   15960:	08079063          	bnez	a5,159e0 <strlen+0x88>
   15964:	7f7f87b7          	lui	a5,0x7f7f8
   15968:	f7f78793          	addi	a5,a5,-129 # 7f7f7f7f <__BSS_END__+0x7f7d7307>
   1596c:	02079693          	slli	a3,a5,0x20
   15970:	00f686b3          	add	a3,a3,a5
   15974:	fff00593          	li	a1,-1
   15978:	00073603          	ld	a2,0(a4)
   1597c:	00870713          	addi	a4,a4,8
   15980:	00d677b3          	and	a5,a2,a3
   15984:	00d787b3          	add	a5,a5,a3
   15988:	00c7e7b3          	or	a5,a5,a2
   1598c:	00d7e7b3          	or	a5,a5,a3
   15990:	feb784e3          	beq	a5,a1,15978 <strlen+0x20>
   15994:	ff874783          	lbu	a5,-8(a4)
   15998:	40a706b3          	sub	a3,a4,a0
   1599c:	06078463          	beqz	a5,15a04 <strlen+0xac>
   159a0:	ff974783          	lbu	a5,-7(a4)
   159a4:	04078c63          	beqz	a5,159fc <strlen+0xa4>
   159a8:	ffa74783          	lbu	a5,-6(a4)
   159ac:	06078463          	beqz	a5,15a14 <strlen+0xbc>
   159b0:	ffb74783          	lbu	a5,-5(a4)
   159b4:	04078c63          	beqz	a5,15a0c <strlen+0xb4>
   159b8:	ffc74783          	lbu	a5,-4(a4)
   159bc:	06078063          	beqz	a5,15a1c <strlen+0xc4>
   159c0:	ffd74783          	lbu	a5,-3(a4)
   159c4:	06078063          	beqz	a5,15a24 <strlen+0xcc>
   159c8:	ffe74783          	lbu	a5,-2(a4)
   159cc:	00f03533          	snez	a0,a5
   159d0:	00d50533          	add	a0,a0,a3
   159d4:	ffe50513          	addi	a0,a0,-2
   159d8:	00008067          	ret
   159dc:	f80684e3          	beqz	a3,15964 <strlen+0xc>
   159e0:	00074783          	lbu	a5,0(a4)
   159e4:	00170713          	addi	a4,a4,1
   159e8:	00777693          	andi	a3,a4,7
   159ec:	fe0798e3          	bnez	a5,159dc <strlen+0x84>
   159f0:	40a70733          	sub	a4,a4,a0
   159f4:	fff70513          	addi	a0,a4,-1
   159f8:	00008067          	ret
   159fc:	ff968513          	addi	a0,a3,-7
   15a00:	00008067          	ret
   15a04:	ff868513          	addi	a0,a3,-8
   15a08:	00008067          	ret
   15a0c:	ffb68513          	addi	a0,a3,-5
   15a10:	00008067          	ret
   15a14:	ffa68513          	addi	a0,a3,-6
   15a18:	00008067          	ret
   15a1c:	ffc68513          	addi	a0,a3,-4
   15a20:	00008067          	ret
   15a24:	ffd68513          	addi	a0,a3,-3
   15a28:	00008067          	ret

0000000000015a2c <frexpl>:
   15a2c:	fb010113          	addi	sp,sp,-80
   15a30:	02913c23          	sd	s1,56(sp)
   15a34:	000084b7          	lui	s1,0x8
   15a38:	04113423          	sd	ra,72(sp)
   15a3c:	0305d793          	srli	a5,a1,0x30
   15a40:	fff48493          	addi	s1,s1,-1 # 7fff <exit-0x8121>
   15a44:	00062023          	sw	zero,0(a2)
   15a48:	0097f7b3          	and	a5,a5,s1
   15a4c:	00058713          	mv	a4,a1
   15a50:	00050313          	mv	t1,a0
   15a54:	0c978063          	beq	a5,s1,15b14 <frexpl+0xe8>
   15a58:	04813023          	sd	s0,64(sp)
   15a5c:	00000693          	li	a3,0
   15a60:	00060413          	mv	s0,a2
   15a64:	00000613          	li	a2,0
   15a68:	00b13823          	sd	a1,16(sp)
   15a6c:	00a13423          	sd	a0,8(sp)
   15a70:	00f13c23          	sd	a5,24(sp)
   15a74:	02a13023          	sd	a0,32(sp)
   15a78:	02b13423          	sd	a1,40(sp)
   15a7c:	344070ef          	jal	1cdc0 <__eqtf2>
   15a80:	00813303          	ld	t1,8(sp)
   15a84:	01013703          	ld	a4,16(sp)
   15a88:	08050463          	beqz	a0,15b10 <frexpl+0xe4>
   15a8c:	01813783          	ld	a5,24(sp)
   15a90:	00000613          	li	a2,0
   15a94:	00030893          	mv	a7,t1
   15a98:	00070813          	mv	a6,a4
   15a9c:	02079663          	bnez	a5,15ac8 <frexpl+0x9c>
   15aa0:	040716b7          	lui	a3,0x4071
   15aa4:	00030513          	mv	a0,t1
   15aa8:	00070593          	mv	a1,a4
   15aac:	02469693          	slli	a3,a3,0x24
   15ab0:	584070ef          	jal	1d034 <__multf3>
   15ab4:	0305d793          	srli	a5,a1,0x30
   15ab8:	00058813          	mv	a6,a1
   15abc:	00050893          	mv	a7,a0
   15ac0:	0097f7b3          	and	a5,a5,s1
   15ac4:	f8e00613          	li	a2,-114
   15ac8:	ffffc737          	lui	a4,0xffffc
   15acc:	0027071b          	addiw	a4,a4,2 # ffffffffffffc002 <__BSS_END__+0xfffffffffffdb38a>
   15ad0:	00e787bb          	addw	a5,a5,a4
   15ad4:	f80016b7          	lui	a3,0xf8001
   15ad8:	00c787bb          	addw	a5,a5,a2
   15adc:	04813083          	ld	ra,72(sp)
   15ae0:	00f42023          	sw	a5,0(s0)
   15ae4:	02469693          	slli	a3,a3,0x24
   15ae8:	04013403          	ld	s0,64(sp)
   15aec:	fff68693          	addi	a3,a3,-1 # fffffffff8000fff <__BSS_END__+0xfffffffff7fe0387>
   15af0:	01fff737          	lui	a4,0x1fff
   15af4:	00d87833          	and	a6,a6,a3
   15af8:	02571713          	slli	a4,a4,0x25
   15afc:	03813483          	ld	s1,56(sp)
   15b00:	00088513          	mv	a0,a7
   15b04:	00e865b3          	or	a1,a6,a4
   15b08:	05010113          	addi	sp,sp,80
   15b0c:	00008067          	ret
   15b10:	04013403          	ld	s0,64(sp)
   15b14:	04813083          	ld	ra,72(sp)
   15b18:	03813483          	ld	s1,56(sp)
   15b1c:	00030513          	mv	a0,t1
   15b20:	00070593          	mv	a1,a4
   15b24:	05010113          	addi	sp,sp,80
   15b28:	00008067          	ret

0000000000015b2c <__register_exitproc>:
   15b2c:	2481b783          	ld	a5,584(gp) # 206c0 <__atexit>
   15b30:	04078e63          	beqz	a5,15b8c <__register_exitproc+0x60>
   15b34:	0087a703          	lw	a4,8(a5)
   15b38:	01f00813          	li	a6,31
   15b3c:	08e84463          	blt	a6,a4,15bc4 <__register_exitproc+0x98>
   15b40:	02050863          	beqz	a0,15b70 <__register_exitproc+0x44>
   15b44:	00371813          	slli	a6,a4,0x3
   15b48:	01078833          	add	a6,a5,a6
   15b4c:	10c83823          	sd	a2,272(a6)
   15b50:	3107a883          	lw	a7,784(a5)
   15b54:	00100613          	li	a2,1
   15b58:	00e6163b          	sllw	a2,a2,a4
   15b5c:	00c8e8b3          	or	a7,a7,a2
   15b60:	3117a823          	sw	a7,784(a5)
   15b64:	20d83823          	sd	a3,528(a6)
   15b68:	00200693          	li	a3,2
   15b6c:	02d50863          	beq	a0,a3,15b9c <__register_exitproc+0x70>
   15b70:	0017069b          	addiw	a3,a4,1 # 1fff001 <__BSS_END__+0x1fde389>
   15b74:	00371713          	slli	a4,a4,0x3
   15b78:	00d7a423          	sw	a3,8(a5)
   15b7c:	00e787b3          	add	a5,a5,a4
   15b80:	00b7b823          	sd	a1,16(a5)
   15b84:	00000513          	li	a0,0
   15b88:	00008067          	ret
   15b8c:	000217b7          	lui	a5,0x21
   15b90:	96078793          	addi	a5,a5,-1696 # 20960 <__atexit0>
   15b94:	24f1b423          	sd	a5,584(gp) # 206c0 <__atexit>
   15b98:	f9dff06f          	j	15b34 <__register_exitproc+0x8>
   15b9c:	3147a683          	lw	a3,788(a5)
   15ba0:	00000513          	li	a0,0
   15ba4:	00d66633          	or	a2,a2,a3
   15ba8:	0017069b          	addiw	a3,a4,1
   15bac:	00371713          	slli	a4,a4,0x3
   15bb0:	30c7aa23          	sw	a2,788(a5)
   15bb4:	00d7a423          	sw	a3,8(a5)
   15bb8:	00e787b3          	add	a5,a5,a4
   15bbc:	00b7b823          	sd	a1,16(a5)
   15bc0:	00008067          	ret
   15bc4:	fff00513          	li	a0,-1
   15bc8:	00008067          	ret

0000000000015bcc <_ldtoa_r>:
   15bcc:	0001e337          	lui	t1,0x1e
   15bd0:	5d030313          	addi	t1,t1,1488 # 1e5d0 <blanks.1+0x28>
   15bd4:	00033f03          	ld	t5,0(t1)
   15bd8:	00833e83          	ld	t4,8(t1)
   15bdc:	01032e03          	lw	t3,16(t1)
   15be0:	05053303          	ld	t1,80(a0)
   15be4:	f5010113          	addi	sp,sp,-176
   15be8:	08913c23          	sd	s1,152(sp)
   15bec:	09213823          	sd	s2,144(sp)
   15bf0:	09413023          	sd	s4,128(sp)
   15bf4:	07513c23          	sd	s5,120(sp)
   15bf8:	07613823          	sd	s6,112(sp)
   15bfc:	05913c23          	sd	s9,88(sp)
   15c00:	05a13823          	sd	s10,80(sp)
   15c04:	05b13423          	sd	s11,72(sp)
   15c08:	0a113423          	sd	ra,168(sp)
   15c0c:	0a813023          	sd	s0,160(sp)
   15c10:	09313423          	sd	s3,136(sp)
   15c14:	07713423          	sd	s7,104(sp)
   15c18:	07813023          	sd	s8,96(sp)
   15c1c:	03e13423          	sd	t5,40(sp)
   15c20:	03d13823          	sd	t4,48(sp)
   15c24:	03c12c23          	sw	t3,56(sp)
   15c28:	00050a13          	mv	s4,a0
   15c2c:	00058913          	mv	s2,a1
   15c30:	00060493          	mv	s1,a2
   15c34:	00068c93          	mv	s9,a3
   15c38:	00070d13          	mv	s10,a4
   15c3c:	00078a93          	mv	s5,a5
   15c40:	00080b13          	mv	s6,a6
   15c44:	00088d93          	mv	s11,a7
   15c48:	00030863          	beqz	t1,15c58 <_ldtoa_r+0x8c>
   15c4c:	00030593          	mv	a1,t1
   15c50:	699010ef          	jal	17ae8 <__freedtoa>
   15c54:	040a3823          	sd	zero,80(s4)
   15c58:	03412703          	lw	a4,52(sp)
   15c5c:	0004a793          	slti	a5,s1,0
   15c60:	fff00993          	li	s3,-1
   15c64:	4017569b          	sraiw	a3,a4,0x1
   15c68:	00d7f7b3          	and	a5,a5,a3
   15c6c:	00f74733          	xor	a4,a4,a5
   15c70:	02e12a23          	sw	a4,52(sp)
   15c74:	0004a713          	slti	a4,s1,0
   15c78:	00eb2023          	sw	a4,0(s6) # ffffffff80000000 <__BSS_END__+0xffffffff7ffdf388>
   15c7c:	0019d413          	srli	s0,s3,0x1
   15c80:	00149713          	slli	a4,s1,0x1
   15c84:	0084f433          	and	s0,s1,s0
   15c88:	03175b93          	srli	s7,a4,0x31
   15c8c:	ffffc7b7          	lui	a5,0xffffc
   15c90:	01049713          	slli	a4,s1,0x10
   15c94:	f917879b          	addiw	a5,a5,-111 # ffffffffffffbf91 <__BSS_END__+0xfffffffffffdb319>
   15c98:	03075b13          	srli	s6,a4,0x30
   15c9c:	00040693          	mv	a3,s0
   15ca0:	00040593          	mv	a1,s0
   15ca4:	00090613          	mv	a2,s2
   15ca8:	00090513          	mv	a0,s2
   15cac:	01213c23          	sd	s2,24(sp)
   15cb0:	02912023          	sw	s1,32(sp)
   15cb4:	00fb8c3b          	addw	s8,s7,a5
   15cb8:	03612223          	sw	s6,36(sp)
   15cbc:	234080ef          	jal	1def0 <__unordtf2>
   15cc0:	12051a63          	bnez	a0,15df4 <_ldtoa_r+0x228>
   15cc4:	07fff6b7          	lui	a3,0x7fff
   15cc8:	02469693          	slli	a3,a3,0x24
   15ccc:	013686b3          	add	a3,a3,s3
   15cd0:	00098613          	mv	a2,s3
   15cd4:	00090513          	mv	a0,s2
   15cd8:	00040593          	mv	a1,s0
   15cdc:	214080ef          	jal	1def0 <__unordtf2>
   15ce0:	0a051463          	bnez	a0,15d88 <_ldtoa_r+0x1bc>
   15ce4:	07fff6b7          	lui	a3,0x7fff
   15ce8:	02469693          	slli	a3,a3,0x24
   15cec:	00098613          	mv	a2,s3
   15cf0:	013686b3          	add	a3,a3,s3
   15cf4:	00090513          	mv	a0,s2
   15cf8:	00040593          	mv	a1,s0
   15cfc:	24c070ef          	jal	1cf48 <__letf2>
   15d00:	08a05463          	blez	a0,15d88 <_ldtoa_r+0x1bc>
   15d04:	00300793          	li	a5,3
   15d08:	00f12a23          	sw	a5,20(sp)
   15d0c:	000c8793          	mv	a5,s9
   15d10:	01410713          	addi	a4,sp,20
   15d14:	01b13023          	sd	s11,0(sp)
   15d18:	000d0813          	mv	a6,s10
   15d1c:	000c0613          	mv	a2,s8
   15d20:	000a0513          	mv	a0,s4
   15d24:	000a8893          	mv	a7,s5
   15d28:	01810693          	addi	a3,sp,24
   15d2c:	02810593          	addi	a1,sp,40
   15d30:	1a4000ef          	jal	15ed4 <__gdtoa>
   15d34:	000aa703          	lw	a4,0(s5)
   15d38:	ffff87b7          	lui	a5,0xffff8
   15d3c:	00f71863          	bne	a4,a5,15d4c <_ldtoa_r+0x180>
   15d40:	800007b7          	lui	a5,0x80000
   15d44:	fff78793          	addi	a5,a5,-1 # ffffffff7fffffff <__BSS_END__+0xffffffff7ffdf387>
   15d48:	00faa023          	sw	a5,0(s5)
   15d4c:	0a813083          	ld	ra,168(sp)
   15d50:	0a013403          	ld	s0,160(sp)
   15d54:	09813483          	ld	s1,152(sp)
   15d58:	09013903          	ld	s2,144(sp)
   15d5c:	08813983          	ld	s3,136(sp)
   15d60:	08013a03          	ld	s4,128(sp)
   15d64:	07813a83          	ld	s5,120(sp)
   15d68:	07013b03          	ld	s6,112(sp)
   15d6c:	06813b83          	ld	s7,104(sp)
   15d70:	06013c03          	ld	s8,96(sp)
   15d74:	05813c83          	ld	s9,88(sp)
   15d78:	05013d03          	ld	s10,80(sp)
   15d7c:	04813d83          	ld	s11,72(sp)
   15d80:	0b010113          	addi	sp,sp,176
   15d84:	00008067          	ret
   15d88:	0001e7b7          	lui	a5,0x1e
   15d8c:	5c87b683          	ld	a3,1480(a5) # 1e5c8 <blanks.1+0x20>
   15d90:	00040593          	mv	a1,s0
   15d94:	00000613          	li	a2,0
   15d98:	00090513          	mv	a0,s2
   15d9c:	0c0070ef          	jal	1ce5c <__getf2>
   15da0:	00054e63          	bltz	a0,15dbc <_ldtoa_r+0x1f0>
   15da4:	000107b7          	lui	a5,0x10
   15da8:	0167e7b3          	or	a5,a5,s6
   15dac:	00100713          	li	a4,1
   15db0:	02f12223          	sw	a5,36(sp)
   15db4:	00e12a23          	sw	a4,20(sp)
   15db8:	f55ff06f          	j	15d0c <_ldtoa_r+0x140>
   15dbc:	00090513          	mv	a0,s2
   15dc0:	00048593          	mv	a1,s1
   15dc4:	00000613          	li	a2,0
   15dc8:	00000693          	li	a3,0
   15dcc:	7f5060ef          	jal	1cdc0 <__eqtf2>
   15dd0:	00051663          	bnez	a0,15ddc <_ldtoa_r+0x210>
   15dd4:	00012a23          	sw	zero,20(sp)
   15dd8:	f35ff06f          	j	15d0c <_ldtoa_r+0x140>
   15ddc:	ffffc7b7          	lui	a5,0xffffc
   15de0:	f927879b          	addiw	a5,a5,-110 # ffffffffffffbf92 <__BSS_END__+0xfffffffffffdb31a>
   15de4:	00200713          	li	a4,2
   15de8:	00fb8c3b          	addw	s8,s7,a5
   15dec:	00e12a23          	sw	a4,20(sp)
   15df0:	f1dff06f          	j	15d0c <_ldtoa_r+0x140>
   15df4:	00400793          	li	a5,4
   15df8:	00f12a23          	sw	a5,20(sp)
   15dfc:	f11ff06f          	j	15d0c <_ldtoa_r+0x140>

0000000000015e00 <_ldcheck>:
   15e00:	fd010113          	addi	sp,sp,-48
   15e04:	00913c23          	sd	s1,24(sp)
   15e08:	00853483          	ld	s1,8(a0)
   15e0c:	01213823          	sd	s2,16(sp)
   15e10:	01313423          	sd	s3,8(sp)
   15e14:	00053903          	ld	s2,0(a0)
   15e18:	fff00993          	li	s3,-1
   15e1c:	0019d793          	srli	a5,s3,0x1
   15e20:	00f4f4b3          	and	s1,s1,a5
   15e24:	00048693          	mv	a3,s1
   15e28:	00048593          	mv	a1,s1
   15e2c:	00090613          	mv	a2,s2
   15e30:	00090513          	mv	a0,s2
   15e34:	02113423          	sd	ra,40(sp)
   15e38:	0b8080ef          	jal	1def0 <__unordtf2>
   15e3c:	06051e63          	bnez	a0,15eb8 <_ldcheck+0xb8>
   15e40:	07fff6b7          	lui	a3,0x7fff
   15e44:	02469693          	slli	a3,a3,0x24
   15e48:	013686b3          	add	a3,a3,s3
   15e4c:	00098613          	mv	a2,s3
   15e50:	00090513          	mv	a0,s2
   15e54:	00048593          	mv	a1,s1
   15e58:	02813023          	sd	s0,32(sp)
   15e5c:	00100413          	li	s0,1
   15e60:	090080ef          	jal	1def0 <__unordtf2>
   15e64:	02050663          	beqz	a0,15e90 <_ldcheck+0x90>
   15e68:	02813083          	ld	ra,40(sp)
   15e6c:	00144513          	xori	a0,s0,1
   15e70:	02013403          	ld	s0,32(sp)
   15e74:	0ff57513          	zext.b	a0,a0
   15e78:	01813483          	ld	s1,24(sp)
   15e7c:	01013903          	ld	s2,16(sp)
   15e80:	00813983          	ld	s3,8(sp)
   15e84:	0015151b          	slliw	a0,a0,0x1
   15e88:	03010113          	addi	sp,sp,48
   15e8c:	00008067          	ret
   15e90:	07fff7b7          	lui	a5,0x7fff
   15e94:	02479793          	slli	a5,a5,0x24
   15e98:	00098613          	mv	a2,s3
   15e9c:	013786b3          	add	a3,a5,s3
   15ea0:	00090513          	mv	a0,s2
   15ea4:	00048593          	mv	a1,s1
   15ea8:	0a0070ef          	jal	1cf48 <__letf2>
   15eac:	faa05ee3          	blez	a0,15e68 <_ldcheck+0x68>
   15eb0:	00000413          	li	s0,0
   15eb4:	fb5ff06f          	j	15e68 <_ldcheck+0x68>
   15eb8:	02813083          	ld	ra,40(sp)
   15ebc:	01813483          	ld	s1,24(sp)
   15ec0:	01013903          	ld	s2,16(sp)
   15ec4:	00813983          	ld	s3,8(sp)
   15ec8:	00100513          	li	a0,1
   15ecc:	03010113          	addi	sp,sp,48
   15ed0:	00008067          	ret

0000000000015ed4 <__gdtoa>:
   15ed4:	ec010113          	addi	sp,sp,-320
   15ed8:	13213023          	sd	s2,288(sp)
   15edc:	00072903          	lw	s2,0(a4)
   15ee0:	11613023          	sd	s6,256(sp)
   15ee4:	12113c23          	sd	ra,312(sp)
   15ee8:	fcf97313          	andi	t1,s2,-49
   15eec:	00672023          	sw	t1,0(a4)
   15ef0:	00300e13          	li	t3,3
   15ef4:	00f97313          	andi	t1,s2,15
   15ef8:	14013b03          	ld	s6,320(sp)
   15efc:	39c30e63          	beq	t1,t3,16298 <__gdtoa+0x3c4>
   15f00:	0f713c23          	sd	s7,248(sp)
   15f04:	0fa13023          	sd	s10,224(sp)
   15f08:	00080d13          	mv	s10,a6
   15f0c:	00c97813          	andi	a6,s2,12
   15f10:	00080b93          	mv	s7,a6
   15f14:	2a081463          	bnez	a6,161bc <__gdtoa+0x2e8>
   15f18:	0f813823          	sd	s8,240(sp)
   15f1c:	0db13c23          	sd	s11,216(sp)
   15f20:	01113823          	sd	a7,16(sp)
   15f24:	00c13c23          	sd	a2,24(sp)
   15f28:	02b13823          	sd	a1,48(sp)
   15f2c:	02e13423          	sd	a4,40(sp)
   15f30:	00050c13          	mv	s8,a0
   15f34:	00068d93          	mv	s11,a3
   15f38:	30030a63          	beqz	t1,1624c <__gdtoa+0x378>
   15f3c:	11313c23          	sd	s3,280(sp)
   15f40:	0005a983          	lw	s3,0(a1)
   15f44:	0f913423          	sd	s9,232(sp)
   15f48:	12813823          	sd	s0,304(sp)
   15f4c:	00078c93          	mv	s9,a5
   15f50:	02000793          	li	a5,32
   15f54:	00000593          	li	a1,0
   15f58:	0137d863          	bge	a5,s3,15f68 <__gdtoa+0x94>
   15f5c:	0017979b          	slliw	a5,a5,0x1
   15f60:	0015859b          	addiw	a1,a1,1
   15f64:	ff37cce3          	blt	a5,s3,15f5c <__gdtoa+0x88>
   15f68:	000c0513          	mv	a0,s8
   15f6c:	769010ef          	jal	17ed4 <_Balloc>
   15f70:	00050413          	mv	s0,a0
   15f74:	28050263          	beqz	a0,161f8 <__gdtoa+0x324>
   15f78:	fff9879b          	addiw	a5,s3,-1
   15f7c:	4057d79b          	sraiw	a5,a5,0x5
   15f80:	00279793          	slli	a5,a5,0x2
   15f84:	12913423          	sd	s1,296(sp)
   15f88:	000d8713          	mv	a4,s11
   15f8c:	00fd85b3          	add	a1,s11,a5
   15f90:	01850693          	addi	a3,a0,24
   15f94:	00072603          	lw	a2,0(a4)
   15f98:	00470713          	addi	a4,a4,4
   15f9c:	00468693          	addi	a3,a3,4 # 7fff004 <__BSS_END__+0x7fde38c>
   15fa0:	fec6ae23          	sw	a2,-4(a3)
   15fa4:	fee5f8e3          	bgeu	a1,a4,15f94 <__gdtoa+0xc0>
   15fa8:	00158593          	addi	a1,a1,1
   15fac:	001d8713          	addi	a4,s11,1
   15fb0:	00e5b5b3          	sltu	a1,a1,a4
   15fb4:	fff58593          	addi	a1,a1,-1
   15fb8:	00b7f7b3          	and	a5,a5,a1
   15fbc:	00478793          	addi	a5,a5,4 # 7fff004 <__BSS_END__+0x7fde38c>
   15fc0:	4027d493          	srai	s1,a5,0x2
   15fc4:	00f407b3          	add	a5,s0,a5
   15fc8:	00c0006f          	j	15fd4 <__gdtoa+0x100>
   15fcc:	ffc78793          	addi	a5,a5,-4
   15fd0:	2e048a63          	beqz	s1,162c4 <__gdtoa+0x3f0>
   15fd4:	0147a703          	lw	a4,20(a5)
   15fd8:	00048693          	mv	a3,s1
   15fdc:	fff4849b          	addiw	s1,s1,-1
   15fe0:	fe0706e3          	beqz	a4,15fcc <__gdtoa+0xf8>
   15fe4:	00249493          	slli	s1,s1,0x2
   15fe8:	009404b3          	add	s1,s0,s1
   15fec:	0184a503          	lw	a0,24(s1)
   15ff0:	00d42a23          	sw	a3,20(s0)
   15ff4:	00d13423          	sd	a3,8(sp)
   15ff8:	278020ef          	jal	18270 <__hi0bits>
   15ffc:	00813683          	ld	a3,8(sp)
   16000:	0056969b          	slliw	a3,a3,0x5
   16004:	40a684bb          	subw	s1,a3,a0
   16008:	00040513          	mv	a0,s0
   1600c:	65d010ef          	jal	17e68 <__trailz_D2A>
   16010:	01813783          	ld	a5,24(sp)
   16014:	0ca12623          	sw	a0,204(sp)
   16018:	04f13023          	sd	a5,64(sp)
   1601c:	62051263          	bnez	a0,16640 <__gdtoa+0x76c>
   16020:	01442783          	lw	a5,20(s0)
   16024:	20078663          	beqz	a5,16230 <__gdtoa+0x35c>
   16028:	0cc10593          	addi	a1,sp,204
   1602c:	00040513          	mv	a0,s0
   16030:	11413823          	sd	s4,272(sp)
   16034:	11513423          	sd	s5,264(sp)
   16038:	5c1020ef          	jal	18df8 <__b2d>
   1603c:	00c51793          	slli	a5,a0,0xc
   16040:	3ff00737          	lui	a4,0x3ff00
   16044:	02051613          	slli	a2,a0,0x20
   16048:	02c7d513          	srli	a0,a5,0x2c
   1604c:	00e567b3          	or	a5,a0,a4
   16050:	02065613          	srli	a2,a2,0x20
   16054:	04f13423          	sd	a5,72(sp)
   16058:	02079793          	slli	a5,a5,0x20
   1605c:	00f667b3          	or	a5,a2,a5
   16060:	02f13c23          	sd	a5,56(sp)
   16064:	04013783          	ld	a5,64(sp)
   16068:	1b01b583          	ld	a1,432(gp) # 20628 <__SDATA_BEGIN__>
   1606c:	03813503          	ld	a0,56(sp)
   16070:	009787bb          	addw	a5,a5,s1
   16074:	04f13c23          	sd	a5,88(sp)
   16078:	fff7879b          	addiw	a5,a5,-1
   1607c:	02f13023          	sd	a5,32(sp)
   16080:	005060ef          	jal	1c884 <__subdf3>
   16084:	1b81b583          	ld	a1,440(gp) # 20630 <__SDATA_BEGIN__+0x8>
   16088:	48c060ef          	jal	1c514 <__muldf3>
   1608c:	1c01b583          	ld	a1,448(gp) # 20638 <__SDATA_BEGIN__+0x10>
   16090:	2c9050ef          	jal	1bb58 <__adddf3>
   16094:	02013a03          	ld	s4,32(sp)
   16098:	00050a93          	mv	s5,a0
   1609c:	000a0513          	mv	a0,s4
   160a0:	4a1060ef          	jal	1cd40 <__floatsidf>
   160a4:	1c81b583          	ld	a1,456(gp) # 20640 <__SDATA_BEGIN__+0x18>
   160a8:	46c060ef          	jal	1c514 <__muldf3>
   160ac:	00050593          	mv	a1,a0
   160b0:	000a8513          	mv	a0,s5
   160b4:	2a5050ef          	jal	1bb58 <__adddf3>
   160b8:	00050a93          	mv	s5,a0
   160bc:	000a0793          	mv	a5,s4
   160c0:	000a5863          	bgez	s4,160d0 <__gdtoa+0x1fc>
   160c4:	05813783          	ld	a5,88(sp)
   160c8:	00100513          	li	a0,1
   160cc:	40f507bb          	subw	a5,a0,a5
   160d0:	bcb7851b          	addiw	a0,a5,-1077
   160d4:	02a05063          	blez	a0,160f4 <__gdtoa+0x220>
   160d8:	469060ef          	jal	1cd40 <__floatsidf>
   160dc:	1d01b583          	ld	a1,464(gp) # 20648 <__SDATA_BEGIN__+0x20>
   160e0:	434060ef          	jal	1c514 <__muldf3>
   160e4:	00050593          	mv	a1,a0
   160e8:	000a8513          	mv	a0,s5
   160ec:	26d050ef          	jal	1bb58 <__adddf3>
   160f0:	00050a93          	mv	s5,a0
   160f4:	000a8513          	mv	a0,s5
   160f8:	000a8a13          	mv	s4,s5
   160fc:	3e1060ef          	jal	1ccdc <__fixdfsi>
   16100:	0005071b          	sext.w	a4,a0
   16104:	00000593          	li	a1,0
   16108:	000a0513          	mv	a0,s4
   1610c:	00070a93          	mv	s5,a4
   16110:	00e13423          	sd	a4,8(sp)
   16114:	350060ef          	jal	1c464 <__ledf2>
   16118:	70054a63          	bltz	a0,1682c <__gdtoa+0x958>
   1611c:	02013783          	ld	a5,32(sp)
   16120:	04813683          	ld	a3,72(sp)
   16124:	03816703          	lwu	a4,56(sp)
   16128:	0147979b          	slliw	a5,a5,0x14
   1612c:	00d787bb          	addw	a5,a5,a3
   16130:	02013683          	ld	a3,32(sp)
   16134:	02079793          	slli	a5,a5,0x20
   16138:	00f767b3          	or	a5,a4,a5
   1613c:	40d4863b          	subw	a2,s1,a3
   16140:	00813683          	ld	a3,8(sp)
   16144:	02f13c23          	sd	a5,56(sp)
   16148:	fff6079b          	addiw	a5,a2,-1
   1614c:	04f13423          	sd	a5,72(sp)
   16150:	fff60a1b          	addiw	s4,a2,-1
   16154:	01600793          	li	a5,22
   16158:	000a0713          	mv	a4,s4
   1615c:	16d7e863          	bltu	a5,a3,162cc <__gdtoa+0x3f8>
   16160:	02c13023          	sd	a2,32(sp)
   16164:	00813603          	ld	a2,8(sp)
   16168:	0001e6b7          	lui	a3,0x1e
   1616c:	64868693          	addi	a3,a3,1608 # 1e648 <__mprec_tens>
   16170:	00361793          	slli	a5,a2,0x3
   16174:	00f687b3          	add	a5,a3,a5
   16178:	0007b503          	ld	a0,0(a5)
   1617c:	03813583          	ld	a1,56(sp)
   16180:	05413823          	sd	s4,80(sp)
   16184:	230060ef          	jal	1c3b4 <__gedf2>
   16188:	02013603          	ld	a2,32(sp)
   1618c:	000a0713          	mv	a4,s4
   16190:	50a04263          	bgtz	a0,16694 <__gdtoa+0x7c0>
   16194:	00c04463          	bgtz	a2,1619c <__gdtoa+0x2c8>
   16198:	7ad0006f          	j	17144 <__gdtoa+0x1270>
   1619c:	00813683          	ld	a3,8(sp)
   161a0:	06013823          	sd	zero,112(sp)
   161a4:	04013823          	sd	zero,80(sp)
   161a8:	014687bb          	addw	a5,a3,s4
   161ac:	04f13423          	sd	a5,72(sp)
   161b0:	06d13423          	sd	a3,104(sp)
   161b4:	06013023          	sd	zero,96(sp)
   161b8:	1480006f          	j	16300 <__gdtoa+0x42c>
   161bc:	00400793          	li	a5,4
   161c0:	04f31663          	bne	t1,a5,1620c <__gdtoa+0x338>
   161c4:	0f813b83          	ld	s7,248(sp)
   161c8:	0e013d03          	ld	s10,224(sp)
   161cc:	13813083          	ld	ra,312(sp)
   161d0:	12013903          	ld	s2,288(sp)
   161d4:	ffff87b7          	lui	a5,0xffff8
   161d8:	000b0613          	mv	a2,s6
   161dc:	10013b03          	ld	s6,256(sp)
   161e0:	0001e5b7          	lui	a1,0x1e
   161e4:	00f8a023          	sw	a5,0(a7)
   161e8:	000e0693          	mv	a3,t3
   161ec:	31858593          	addi	a1,a1,792 # 1e318 <__clzdi2+0xcc>
   161f0:	14010113          	addi	sp,sp,320
   161f4:	0410106f          	j	17a34 <__nrv_alloc_D2A>
   161f8:	13013403          	ld	s0,304(sp)
   161fc:	11813983          	ld	s3,280(sp)
   16200:	0f013c03          	ld	s8,240(sp)
   16204:	0e813c83          	ld	s9,232(sp)
   16208:	0d813d83          	ld	s11,216(sp)
   1620c:	00000793          	li	a5,0
   16210:	13813083          	ld	ra,312(sp)
   16214:	0f813b83          	ld	s7,248(sp)
   16218:	0e013d03          	ld	s10,224(sp)
   1621c:	12013903          	ld	s2,288(sp)
   16220:	10013b03          	ld	s6,256(sp)
   16224:	00078513          	mv	a0,a5
   16228:	14010113          	addi	sp,sp,320
   1622c:	00008067          	ret
   16230:	00040593          	mv	a1,s0
   16234:	000c0513          	mv	a0,s8
   16238:	549010ef          	jal	17f80 <_Bfree>
   1623c:	13013403          	ld	s0,304(sp)
   16240:	12813483          	ld	s1,296(sp)
   16244:	11813983          	ld	s3,280(sp)
   16248:	0e813c83          	ld	s9,232(sp)
   1624c:	01013783          	ld	a5,16(sp)
   16250:	00100693          	li	a3,1
   16254:	0001e5b7          	lui	a1,0x1e
   16258:	000b0613          	mv	a2,s6
   1625c:	000c0513          	mv	a0,s8
   16260:	00d7a023          	sw	a3,0(a5) # ffffffffffff8000 <__BSS_END__+0xfffffffffffd7388>
   16264:	30058593          	addi	a1,a1,768 # 1e300 <__clzdi2+0xb4>
   16268:	7cc010ef          	jal	17a34 <__nrv_alloc_D2A>
   1626c:	13813083          	ld	ra,312(sp)
   16270:	00050793          	mv	a5,a0
   16274:	0f013c03          	ld	s8,240(sp)
   16278:	0d813d83          	ld	s11,216(sp)
   1627c:	0f813b83          	ld	s7,248(sp)
   16280:	0e013d03          	ld	s10,224(sp)
   16284:	12013903          	ld	s2,288(sp)
   16288:	10013b03          	ld	s6,256(sp)
   1628c:	00078513          	mv	a0,a5
   16290:	14010113          	addi	sp,sp,320
   16294:	00008067          	ret
   16298:	13813083          	ld	ra,312(sp)
   1629c:	12013903          	ld	s2,288(sp)
   162a0:	ffff87b7          	lui	a5,0xffff8
   162a4:	000b0613          	mv	a2,s6
   162a8:	10013b03          	ld	s6,256(sp)
   162ac:	0001e5b7          	lui	a1,0x1e
   162b0:	00f8a023          	sw	a5,0(a7)
   162b4:	30858593          	addi	a1,a1,776 # 1e308 <__clzdi2+0xbc>
   162b8:	00800693          	li	a3,8
   162bc:	14010113          	addi	sp,sp,320
   162c0:	7740106f          	j	17a34 <__nrv_alloc_D2A>
   162c4:	00042a23          	sw	zero,20(s0)
   162c8:	d41ff06f          	j	16008 <__gdtoa+0x134>
   162cc:	00100793          	li	a5,1
   162d0:	06f13823          	sd	a5,112(sp)
   162d4:	04013823          	sd	zero,80(sp)
   162d8:	3a074463          	bltz	a4,16680 <__gdtoa+0x7ac>
   162dc:	00813783          	ld	a5,8(sp)
   162e0:	3807d263          	bgez	a5,16664 <__gdtoa+0x790>
   162e4:	05013783          	ld	a5,80(sp)
   162e8:	00813703          	ld	a4,8(sp)
   162ec:	06013423          	sd	zero,104(sp)
   162f0:	40e787bb          	subw	a5,a5,a4
   162f4:	04f13823          	sd	a5,80(sp)
   162f8:	40e007bb          	negw	a5,a4
   162fc:	06f13023          	sd	a5,96(sp)
   16300:	00900793          	li	a5,9
   16304:	4d97ee63          	bltu	a5,s9,167e0 <__gdtoa+0x90c>
   16308:	00500713          	li	a4,5
   1630c:	01975ee3          	bge	a4,s9,16b28 <__gdtoa+0xc54>
   16310:	ffcc8c9b          	addiw	s9,s9,-4
   16314:	00400793          	li	a5,4
   16318:	52fc8a63          	beq	s9,a5,1684c <__gdtoa+0x978>
   1631c:	52ec8ce3          	beq	s9,a4,17054 <__gdtoa+0x1180>
   16320:	00200793          	li	a5,2
   16324:	06013c23          	sd	zero,120(sp)
   16328:	00000a13          	li	s4,0
   1632c:	52fc8663          	beq	s9,a5,16858 <__gdtoa+0x984>
   16330:	00300c93          	li	s9,3
   16334:	00813703          	ld	a4,8(sp)
   16338:	00ed07bb          	addw	a5,s10,a4
   1633c:	04f13c23          	sd	a5,88(sp)
   16340:	0017879b          	addiw	a5,a5,1 # ffffffffffff8001 <__BSS_END__+0xfffffffffffd7389>
   16344:	02f13023          	sd	a5,32(sp)
   16348:	36f05063          	blez	a5,166a8 <__gdtoa+0x7d4>
   1634c:	00078593          	mv	a1,a5
   16350:	000c0513          	mv	a0,s8
   16354:	0cf12623          	sw	a5,204(sp)
   16358:	670010ef          	jal	179c8 <__rv_alloc_D2A>
   1635c:	00050793          	mv	a5,a0
   16360:	7a050263          	beqz	a0,16b04 <__gdtoa+0xc30>
   16364:	03013703          	ld	a4,48(sp)
   16368:	00c72703          	lw	a4,12(a4) # 3ff0000c <__BSS_END__+0x3fedf394>
   1636c:	fff7071b          	addiw	a4,a4,-1
   16370:	00070e63          	beqz	a4,1638c <__gdtoa+0x4b8>
   16374:	00075463          	bgez	a4,1637c <__gdtoa+0x4a8>
   16378:	00200713          	li	a4,2
   1637c:	10097913          	andi	s2,s2,256
   16380:	3c090263          	beqz	s2,16744 <__gdtoa+0x870>
   16384:	00300693          	li	a3,3
   16388:	40e6873b          	subw	a4,a3,a4
   1638c:	02013683          	ld	a3,32(sp)
   16390:	00f6b693          	sltiu	a3,a3,15
   16394:	3a068863          	beqz	a3,16744 <__gdtoa+0x870>
   16398:	3a0a0663          	beqz	s4,16744 <__gdtoa+0x870>
   1639c:	00813683          	ld	a3,8(sp)
   163a0:	00d766b3          	or	a3,a4,a3
   163a4:	3a069063          	bnez	a3,16744 <__gdtoa+0x870>
   163a8:	03813903          	ld	s2,56(sp)
   163ac:	07013703          	ld	a4,112(sp)
   163b0:	0c012623          	sw	zero,204(sp)
   163b4:	09213023          	sd	s2,128(sp)
   163b8:	00070e63          	beqz	a4,163d4 <__gdtoa+0x500>
   163bc:	1e01b583          	ld	a1,480(gp) # 20658 <__SDATA_BEGIN__+0x30>
   163c0:	00090513          	mv	a0,s2
   163c4:	08f13423          	sd	a5,136(sp)
   163c8:	09c060ef          	jal	1c464 <__ledf2>
   163cc:	08813783          	ld	a5,136(sp)
   163d0:	2e054063          	bltz	a0,166b0 <__gdtoa+0x7dc>
   163d4:	08013583          	ld	a1,128(sp)
   163d8:	08f13423          	sd	a5,136(sp)
   163dc:	00058513          	mv	a0,a1
   163e0:	778050ef          	jal	1bb58 <__adddf3>
   163e4:	1e81b583          	ld	a1,488(gp) # 20660 <__SDATA_BEGIN__+0x38>
   163e8:	770050ef          	jal	1bb58 <__adddf3>
   163ec:	fcc006b7          	lui	a3,0xfcc00
   163f0:	02055713          	srli	a4,a0,0x20
   163f4:	02051613          	slli	a2,a0,0x20
   163f8:	00d7073b          	addw	a4,a4,a3
   163fc:	02071713          	slli	a4,a4,0x20
   16400:	02065613          	srli	a2,a2,0x20
   16404:	00e66633          	or	a2,a2,a4
   16408:	02013703          	ld	a4,32(sp)
   1640c:	08813783          	ld	a5,136(sp)
   16410:	2c070e63          	beqz	a4,166ec <__gdtoa+0x818>
   16414:	08013703          	ld	a4,128(sp)
   16418:	08013c23          	sd	zero,152(sp)
   1641c:	08e13823          	sd	a4,144(sp)
   16420:	02013703          	ld	a4,32(sp)
   16424:	08e13423          	sd	a4,136(sp)
   16428:	08813703          	ld	a4,136(sp)
   1642c:	0001e6b7          	lui	a3,0x1e
   16430:	64868693          	addi	a3,a3,1608 # 1e648 <__mprec_tens>
   16434:	fff7071b          	addiw	a4,a4,-1
   16438:	00371713          	slli	a4,a4,0x3
   1643c:	00e68733          	add	a4,a3,a4
   16440:	00073583          	ld	a1,0(a4)
   16444:	07813703          	ld	a4,120(sp)
   16448:	0ad13423          	sd	a3,168(sp)
   1644c:	70070663          	beqz	a4,16b58 <__gdtoa+0xc84>
   16450:	09013a03          	ld	s4,144(sp)
   16454:	00178913          	addi	s2,a5,1
   16458:	08f13823          	sd	a5,144(sp)
   1645c:	000a0513          	mv	a0,s4
   16460:	0ac13023          	sd	a2,160(sp)
   16464:	08b13023          	sd	a1,128(sp)
   16468:	075060ef          	jal	1ccdc <__fixdfsi>
   1646c:	00050a9b          	sext.w	s5,a0
   16470:	08013583          	ld	a1,128(sp)
   16474:	2081b503          	ld	a0,520(gp) # 20680 <__SDATA_BEGIN__+0x58>
   16478:	09512023          	sw	s5,128(sp)
   1647c:	325050ef          	jal	1bfa0 <__divdf3>
   16480:	0a013583          	ld	a1,160(sp)
   16484:	400060ef          	jal	1c884 <__subdf3>
   16488:	00050613          	mv	a2,a0
   1648c:	000a8513          	mv	a0,s5
   16490:	00060a93          	mv	s5,a2
   16494:	0ad060ef          	jal	1cd40 <__floatsidf>
   16498:	00050593          	mv	a1,a0
   1649c:	000a0513          	mv	a0,s4
   164a0:	3e4060ef          	jal	1c884 <__subdf3>
   164a4:	00050a13          	mv	s4,a0
   164a8:	08012703          	lw	a4,128(sp)
   164ac:	09013783          	ld	a5,144(sp)
   164b0:	000a8513          	mv	a0,s5
   164b4:	000a0593          	mv	a1,s4
   164b8:	0307071b          	addiw	a4,a4,48
   164bc:	00e78023          	sb	a4,0(a5)
   164c0:	08f13023          	sd	a5,128(sp)
   164c4:	0b413823          	sd	s4,176(sp)
   164c8:	6ed050ef          	jal	1c3b4 <__gedf2>
   164cc:	08013783          	ld	a5,128(sp)
   164d0:	00a05463          	blez	a0,164d8 <__gdtoa+0x604>
   164d4:	0e40106f          	j	175b8 <__gdtoa+0x16e4>
   164d8:	1e01b703          	ld	a4,480(gp) # 20658 <__SDATA_BEGIN__+0x30>
   164dc:	0a813023          	sd	s0,160(sp)
   164e0:	08e13823          	sd	a4,144(sp)
   164e4:	1f01b703          	ld	a4,496(gp) # 20668 <__SDATA_BEGIN__+0x40>
   164e8:	0b313823          	sd	s3,176(sp)
   164ec:	0a913c23          	sd	s1,184(sp)
   164f0:	000a0993          	mv	s3,s4
   164f4:	000a8493          	mv	s1,s5
   164f8:	08e13023          	sd	a4,128(sp)
   164fc:	0a813a83          	ld	s5,168(sp)
   16500:	00090413          	mv	s0,s2
   16504:	00078a13          	mv	s4,a5
   16508:	0700006f          	j	16578 <__gdtoa+0x6a4>
   1650c:	0cc12783          	lw	a5,204(sp)
   16510:	08813703          	ld	a4,136(sp)
   16514:	0017879b          	addiw	a5,a5,1
   16518:	0cf12623          	sw	a5,204(sp)
   1651c:	00e7c463          	blt	a5,a4,16524 <__gdtoa+0x650>
   16520:	13c0106f          	j	1765c <__gdtoa+0x1788>
   16524:	7f1050ef          	jal	1c514 <__muldf3>
   16528:	08013583          	ld	a1,128(sp)
   1652c:	00050493          	mv	s1,a0
   16530:	00098513          	mv	a0,s3
   16534:	00140413          	addi	s0,s0,1
   16538:	7dd050ef          	jal	1c514 <__muldf3>
   1653c:	00050993          	mv	s3,a0
   16540:	79c060ef          	jal	1ccdc <__fixdfsi>
   16544:	00050913          	mv	s2,a0
   16548:	0005051b          	sext.w	a0,a0
   1654c:	7f4060ef          	jal	1cd40 <__floatsidf>
   16550:	00050593          	mv	a1,a0
   16554:	00098513          	mv	a0,s3
   16558:	0309091b          	addiw	s2,s2,48
   1655c:	328060ef          	jal	1c884 <__subdf3>
   16560:	00048593          	mv	a1,s1
   16564:	ff240fa3          	sb	s2,-1(s0)
   16568:	00050993          	mv	s3,a0
   1656c:	6f9050ef          	jal	1c464 <__ledf2>
   16570:	00055463          	bgez	a0,16578 <__gdtoa+0x6a4>
   16574:	0340106f          	j	175a8 <__gdtoa+0x16d4>
   16578:	00098593          	mv	a1,s3
   1657c:	09013503          	ld	a0,144(sp)
   16580:	304060ef          	jal	1c884 <__subdf3>
   16584:	00048593          	mv	a1,s1
   16588:	6dd050ef          	jal	1c464 <__ledf2>
   1658c:	00050793          	mv	a5,a0
   16590:	08013583          	ld	a1,128(sp)
   16594:	00048513          	mv	a0,s1
   16598:	f607dae3          	bgez	a5,1650c <__gdtoa+0x638>
   1659c:	00040913          	mv	s2,s0
   165a0:	fff94603          	lbu	a2,-1(s2)
   165a4:	0a013403          	ld	s0,160(sp)
   165a8:	000a0793          	mv	a5,s4
   165ac:	03900693          	li	a3,57
   165b0:	0140006f          	j	165c4 <__gdtoa+0x6f0>
   165b4:	00e79463          	bne	a5,a4,165bc <__gdtoa+0x6e8>
   165b8:	6c50006f          	j	1747c <__gdtoa+0x15a8>
   165bc:	fff74603          	lbu	a2,-1(a4)
   165c0:	00070913          	mv	s2,a4
   165c4:	fff90713          	addi	a4,s2,-1
   165c8:	fed606e3          	beq	a2,a3,165b4 <__gdtoa+0x6e0>
   165cc:	00160993          	addi	s3,a2,1
   165d0:	01370023          	sb	s3,0(a4)
   165d4:	09813703          	ld	a4,152(sp)
   165d8:	02000b93          	li	s7,32
   165dc:	00170c9b          	addiw	s9,a4,1
   165e0:	00040593          	mv	a1,s0
   165e4:	000c0513          	mv	a0,s8
   165e8:	00f13423          	sd	a5,8(sp)
   165ec:	195010ef          	jal	17f80 <_Bfree>
   165f0:	01013783          	ld	a5,16(sp)
   165f4:	00090023          	sb	zero,0(s2)
   165f8:	0197a023          	sw	s9,0(a5)
   165fc:	00813783          	ld	a5,8(sp)
   16600:	000b0463          	beqz	s6,16608 <__gdtoa+0x734>
   16604:	012b3023          	sd	s2,0(s6)
   16608:	02813703          	ld	a4,40(sp)
   1660c:	02813683          	ld	a3,40(sp)
   16610:	13013403          	ld	s0,304(sp)
   16614:	00072703          	lw	a4,0(a4)
   16618:	12813483          	ld	s1,296(sp)
   1661c:	11813983          	ld	s3,280(sp)
   16620:	00ebe733          	or	a4,s7,a4
   16624:	11013a03          	ld	s4,272(sp)
   16628:	10813a83          	ld	s5,264(sp)
   1662c:	0f013c03          	ld	s8,240(sp)
   16630:	0e813c83          	ld	s9,232(sp)
   16634:	0d813d83          	ld	s11,216(sp)
   16638:	00e6a023          	sw	a4,0(a3)
   1663c:	bd5ff06f          	j	16210 <__gdtoa+0x33c>
   16640:	00050593          	mv	a1,a0
   16644:	00040513          	mv	a0,s0
   16648:	734010ef          	jal	17d7c <__rshift_D2A>
   1664c:	0cc12783          	lw	a5,204(sp)
   16650:	01813703          	ld	a4,24(sp)
   16654:	40f484bb          	subw	s1,s1,a5
   16658:	00e787bb          	addw	a5,a5,a4
   1665c:	04f13023          	sd	a5,64(sp)
   16660:	9c1ff06f          	j	16020 <__gdtoa+0x14c>
   16664:	04813703          	ld	a4,72(sp)
   16668:	06013023          	sd	zero,96(sp)
   1666c:	00e787bb          	addw	a5,a5,a4
   16670:	04f13423          	sd	a5,72(sp)
   16674:	00813783          	ld	a5,8(sp)
   16678:	06f13423          	sd	a5,104(sp)
   1667c:	c85ff06f          	j	16300 <__gdtoa+0x42c>
   16680:	00100793          	li	a5,1
   16684:	40c787bb          	subw	a5,a5,a2
   16688:	04f13823          	sd	a5,80(sp)
   1668c:	04013423          	sd	zero,72(sp)
   16690:	c4dff06f          	j	162dc <__gdtoa+0x408>
   16694:	00813783          	ld	a5,8(sp)
   16698:	06013823          	sd	zero,112(sp)
   1669c:	fff7879b          	addiw	a5,a5,-1
   166a0:	00f13423          	sd	a5,8(sp)
   166a4:	c31ff06f          	j	162d4 <__gdtoa+0x400>
   166a8:	00100793          	li	a5,1
   166ac:	ca1ff06f          	j	1634c <__gdtoa+0x478>
   166b0:	02013703          	ld	a4,32(sp)
   166b4:	68071ae3          	bnez	a4,17548 <__gdtoa+0x1674>
   166b8:	00090593          	mv	a1,s2
   166bc:	00090513          	mv	a0,s2
   166c0:	498050ef          	jal	1bb58 <__adddf3>
   166c4:	1e81b583          	ld	a1,488(gp) # 20660 <__SDATA_BEGIN__+0x38>
   166c8:	490050ef          	jal	1bb58 <__adddf3>
   166cc:	fcc006b7          	lui	a3,0xfcc00
   166d0:	02055713          	srli	a4,a0,0x20
   166d4:	02051613          	slli	a2,a0,0x20
   166d8:	00d7073b          	addw	a4,a4,a3
   166dc:	08813783          	ld	a5,136(sp)
   166e0:	02065613          	srli	a2,a2,0x20
   166e4:	02071713          	slli	a4,a4,0x20
   166e8:	00e66633          	or	a2,a2,a4
   166ec:	2001b583          	ld	a1,512(gp) # 20678 <__SDATA_BEGIN__+0x50>
   166f0:	08013503          	ld	a0,128(sp)
   166f4:	08f13823          	sd	a5,144(sp)
   166f8:	08c13423          	sd	a2,136(sp)
   166fc:	188060ef          	jal	1c884 <__subdf3>
   16700:	08813603          	ld	a2,136(sp)
   16704:	00050913          	mv	s2,a0
   16708:	00060593          	mv	a1,a2
   1670c:	08c13023          	sd	a2,128(sp)
   16710:	4a5050ef          	jal	1c3b4 <__gedf2>
   16714:	09013783          	ld	a5,144(sp)
   16718:	52a04ce3          	bgtz	a0,17450 <__gdtoa+0x157c>
   1671c:	08013603          	ld	a2,128(sp)
   16720:	00090513          	mv	a0,s2
   16724:	fff00593          	li	a1,-1
   16728:	03f59593          	slli	a1,a1,0x3f
   1672c:	00b645b3          	xor	a1,a2,a1
   16730:	08f13423          	sd	a5,136(sp)
   16734:	531050ef          	jal	1c464 <__ledf2>
   16738:	08813783          	ld	a5,136(sp)
   1673c:	0a0546e3          	bltz	a0,16fe8 <__gdtoa+0x1114>
   16740:	00000713          	li	a4,0
   16744:	04013683          	ld	a3,64(sp)
   16748:	fff6c693          	not	a3,a3
   1674c:	01f6d69b          	srliw	a3,a3,0x1f
   16750:	12068463          	beqz	a3,16878 <__gdtoa+0x9a4>
   16754:	00813683          	ld	a3,8(sp)
   16758:	00f6a693          	slti	a3,a3,15
   1675c:	10068e63          	beqz	a3,16878 <__gdtoa+0x9a4>
   16760:	0001e6b7          	lui	a3,0x1e
   16764:	64868693          	addi	a3,a3,1608 # 1e648 <__mprec_tens>
   16768:	00813603          	ld	a2,8(sp)
   1676c:	00361613          	slli	a2,a2,0x3
   16770:	00c68633          	add	a2,a3,a2
   16774:	00063603          	ld	a2,0(a2)
   16778:	01fd569b          	srliw	a3,s10,0x1f
   1677c:	00060a13          	mv	s4,a2
   16780:	52068463          	beqz	a3,16ca8 <__gdtoa+0xdd4>
   16784:	02013683          	ld	a3,32(sp)
   16788:	52d04063          	bgtz	a3,16ca8 <__gdtoa+0xdd4>
   1678c:	04069ee3          	bnez	a3,16fe8 <__gdtoa+0x1114>
   16790:	2001b583          	ld	a1,512(gp) # 20678 <__SDATA_BEGIN__+0x50>
   16794:	00060513          	mv	a0,a2
   16798:	00f13c23          	sd	a5,24(sp)
   1679c:	579050ef          	jal	1c514 <__muldf3>
   167a0:	03813583          	ld	a1,56(sp)
   167a4:	411050ef          	jal	1c3b4 <__gedf2>
   167a8:	01813783          	ld	a5,24(sp)
   167ac:	02055ee3          	bgez	a0,16fe8 <__gdtoa+0x1114>
   167b0:	03100713          	li	a4,49
   167b4:	00e78023          	sb	a4,0(a5)
   167b8:	00000593          	li	a1,0
   167bc:	000c0513          	mv	a0,s8
   167c0:	00178913          	addi	s2,a5,1
   167c4:	00f13c23          	sd	a5,24(sp)
   167c8:	7b8010ef          	jal	17f80 <_Bfree>
   167cc:	00813783          	ld	a5,8(sp)
   167d0:	02000b93          	li	s7,32
   167d4:	00278c9b          	addiw	s9,a5,2
   167d8:	01813783          	ld	a5,24(sp)
   167dc:	e05ff06f          	j	165e0 <__gdtoa+0x70c>
   167e0:	05813783          	ld	a5,88(sp)
   167e4:	00000c93          	li	s9,0
   167e8:	3fd7879b          	addiw	a5,a5,1021
   167ec:	7f87ba13          	sltiu	s4,a5,2040
   167f0:	00098513          	mv	a0,s3
   167f4:	54c060ef          	jal	1cd40 <__floatsidf>
   167f8:	1d81b583          	ld	a1,472(gp) # 20650 <__SDATA_BEGIN__+0x28>
   167fc:	00000d13          	li	s10,0
   16800:	515050ef          	jal	1c514 <__muldf3>
   16804:	4d8060ef          	jal	1ccdc <__fixdfsi>
   16808:	fff00713          	li	a4,-1
   1680c:	fff00793          	li	a5,-1
   16810:	0035059b          	addiw	a1,a0,3
   16814:	02e13023          	sd	a4,32(sp)
   16818:	00100713          	li	a4,1
   1681c:	04f13c23          	sd	a5,88(sp)
   16820:	06e13c23          	sd	a4,120(sp)
   16824:	00058793          	mv	a5,a1
   16828:	b29ff06f          	j	16350 <__gdtoa+0x47c>
   1682c:	000a851b          	sext.w	a0,s5
   16830:	510060ef          	jal	1cd40 <__floatsidf>
   16834:	000a0593          	mv	a1,s4
   16838:	301050ef          	jal	1c338 <__eqdf2>
   1683c:	8e0500e3          	beqz	a0,1611c <__gdtoa+0x248>
   16840:	fffa879b          	addiw	a5,s5,-1
   16844:	00f13423          	sd	a5,8(sp)
   16848:	8d5ff06f          	j	1611c <__gdtoa+0x248>
   1684c:	00100793          	li	a5,1
   16850:	00000a13          	li	s4,0
   16854:	06f13c23          	sd	a5,120(sp)
   16858:	000d059b          	sext.w	a1,s10
   1685c:	01a04463          	bgtz	s10,16864 <__gdtoa+0x990>
   16860:	00100593          	li	a1,1
   16864:	00058793          	mv	a5,a1
   16868:	04b13c23          	sd	a1,88(sp)
   1686c:	02b13023          	sd	a1,32(sp)
   16870:	00058d13          	mv	s10,a1
   16874:	addff06f          	j	16350 <__gdtoa+0x47c>
   16878:	07813683          	ld	a3,120(sp)
   1687c:	3c068e63          	beqz	a3,16c58 <__gdtoa+0xd84>
   16880:	03013683          	ld	a3,48(sp)
   16884:	04013583          	ld	a1,64(sp)
   16888:	409989bb          	subw	s3,s3,s1
   1688c:	0046a603          	lw	a2,4(a3)
   16890:	0019869b          	addiw	a3,s3,1
   16894:	0cd12623          	sw	a3,204(sp)
   16898:	413589bb          	subw	s3,a1,s3
   1689c:	7cc9d663          	bge	s3,a2,17068 <__gdtoa+0x1194>
   168a0:	ffdc869b          	addiw	a3,s9,-3
   168a4:	ffd6f693          	andi	a3,a3,-3
   168a8:	7c068463          	beqz	a3,17070 <__gdtoa+0x119c>
   168ac:	40c586bb          	subw	a3,a1,a2
   168b0:	02013583          	ld	a1,32(sp)
   168b4:	00100613          	li	a2,1
   168b8:	0016869b          	addiw	a3,a3,1
   168bc:	01962633          	slt	a2,a2,s9
   168c0:	00b025b3          	sgtz	a1,a1
   168c4:	0cd12623          	sw	a3,204(sp)
   168c8:	00b67633          	and	a2,a2,a1
   168cc:	00060863          	beqz	a2,168dc <__gdtoa+0xa08>
   168d0:	02013603          	ld	a2,32(sp)
   168d4:	00d65463          	bge	a2,a3,168dc <__gdtoa+0xa08>
   168d8:	7a50006f          	j	1787c <__gdtoa+0x19a8>
   168dc:	04813603          	ld	a2,72(sp)
   168e0:	06013a03          	ld	s4,96(sp)
   168e4:	00c6863b          	addw	a2,a3,a2
   168e8:	04c13423          	sd	a2,72(sp)
   168ec:	05013603          	ld	a2,80(sp)
   168f0:	00c6893b          	addw	s2,a3,a2
   168f4:	00100593          	li	a1,1
   168f8:	000c0513          	mv	a0,s8
   168fc:	04f13023          	sd	a5,64(sp)
   16900:	02e13c23          	sd	a4,56(sp)
   16904:	311010ef          	jal	18414 <__i2b>
   16908:	00050993          	mv	s3,a0
   1690c:	1e050c63          	beqz	a0,16b04 <__gdtoa+0xc30>
   16910:	05013683          	ld	a3,80(sp)
   16914:	03813703          	ld	a4,56(sp)
   16918:	04013783          	ld	a5,64(sp)
   1691c:	04068063          	beqz	a3,1695c <__gdtoa+0xa88>
   16920:	04813683          	ld	a3,72(sp)
   16924:	02d05c63          	blez	a3,1695c <__gdtoa+0xa88>
   16928:	05013603          	ld	a2,80(sp)
   1692c:	04813583          	ld	a1,72(sp)
   16930:	00060693          	mv	a3,a2
   16934:	00c5d463          	bge	a1,a2,1693c <__gdtoa+0xa68>
   16938:	04812683          	lw	a3,72(sp)
   1693c:	05013603          	ld	a2,80(sp)
   16940:	0cd12623          	sw	a3,204(sp)
   16944:	40d9093b          	subw	s2,s2,a3
   16948:	40d6063b          	subw	a2,a2,a3
   1694c:	04c13823          	sd	a2,80(sp)
   16950:	04813603          	ld	a2,72(sp)
   16954:	40d606bb          	subw	a3,a2,a3
   16958:	04d13423          	sd	a3,72(sp)
   1695c:	06013683          	ld	a3,96(sp)
   16960:	02068863          	beqz	a3,16990 <__gdtoa+0xabc>
   16964:	200a14e3          	bnez	s4,1736c <__gdtoa+0x1498>
   16968:	06013603          	ld	a2,96(sp)
   1696c:	00040593          	mv	a1,s0
   16970:	000c0513          	mv	a0,s8
   16974:	04f13023          	sd	a5,64(sp)
   16978:	02e13c23          	sd	a4,56(sp)
   1697c:	64d010ef          	jal	187c8 <__pow5mult>
   16980:	03813703          	ld	a4,56(sp)
   16984:	04013783          	ld	a5,64(sp)
   16988:	00050413          	mv	s0,a0
   1698c:	16050c63          	beqz	a0,16b04 <__gdtoa+0xc30>
   16990:	00100593          	li	a1,1
   16994:	000c0513          	mv	a0,s8
   16998:	04f13023          	sd	a5,64(sp)
   1699c:	02e13c23          	sd	a4,56(sp)
   169a0:	275010ef          	jal	18414 <__i2b>
   169a4:	00050893          	mv	a7,a0
   169a8:	14050e63          	beqz	a0,16b04 <__gdtoa+0xc30>
   169ac:	06813683          	ld	a3,104(sp)
   169b0:	03813703          	ld	a4,56(sp)
   169b4:	04013783          	ld	a5,64(sp)
   169b8:	6e069a63          	bnez	a3,170ac <__gdtoa+0x11d8>
   169bc:	002ca693          	slti	a3,s9,2
   169c0:	00068663          	beqz	a3,169cc <__gdtoa+0xaf8>
   169c4:	fff48493          	addi	s1,s1,-1
   169c8:	0e048463          	beqz	s1,16ab0 <__gdtoa+0xbdc>
   169cc:	01f00513          	li	a0,31
   169d0:	04813683          	ld	a3,72(sp)
   169d4:	40d504bb          	subw	s1,a0,a3
   169d8:	ffc4849b          	addiw	s1,s1,-4
   169dc:	01f4f493          	andi	s1,s1,31
   169e0:	0c912623          	sw	s1,204(sp)
   169e4:	0124863b          	addw	a2,s1,s2
   169e8:	00048693          	mv	a3,s1
   169ec:	62c04a63          	bgtz	a2,17020 <__gdtoa+0x114c>
   169f0:	04813603          	ld	a2,72(sp)
   169f4:	00d6063b          	addw	a2,a2,a3
   169f8:	0ec04463          	bgtz	a2,16ae0 <__gdtoa+0xc0c>
   169fc:	07013683          	ld	a3,112(sp)
   16a00:	7a069463          	bnez	a3,171a8 <__gdtoa+0x12d4>
   16a04:	02013683          	ld	a3,32(sp)
   16a08:	3cd04863          	bgtz	a3,16dd8 <__gdtoa+0xf04>
   16a0c:	00200693          	li	a3,2
   16a10:	3d96d463          	bge	a3,s9,16dd8 <__gdtoa+0xf04>
   16a14:	00088593          	mv	a1,a7
   16a18:	00000693          	li	a3,0
   16a1c:	00500613          	li	a2,5
   16a20:	000c0513          	mv	a0,s8
   16a24:	00f13c23          	sd	a5,24(sp)
   16a28:	57c010ef          	jal	17fa4 <__multadd>
   16a2c:	00050593          	mv	a1,a0
   16a30:	0c050a63          	beqz	a0,16b04 <__gdtoa+0xc30>
   16a34:	02013703          	ld	a4,32(sp)
   16a38:	01813783          	ld	a5,24(sp)
   16a3c:	0c0714e3          	bnez	a4,17304 <__gdtoa+0x1430>
   16a40:	00a13c23          	sd	a0,24(sp)
   16a44:	00040513          	mv	a0,s0
   16a48:	02f13023          	sd	a5,32(sp)
   16a4c:	078020ef          	jal	18ac4 <__mcmp>
   16a50:	01813583          	ld	a1,24(sp)
   16a54:	02013783          	ld	a5,32(sp)
   16a58:	0aa056e3          	blez	a0,17304 <__gdtoa+0x1430>
   16a5c:	03100713          	li	a4,49
   16a60:	00e78023          	sb	a4,0(a5)
   16a64:	00813703          	ld	a4,8(sp)
   16a68:	00178913          	addi	s2,a5,1
   16a6c:	02000b93          	li	s7,32
   16a70:	0017071b          	addiw	a4,a4,1
   16a74:	00e13423          	sd	a4,8(sp)
   16a78:	000c0513          	mv	a0,s8
   16a7c:	00f13c23          	sd	a5,24(sp)
   16a80:	500010ef          	jal	17f80 <_Bfree>
   16a84:	01813783          	ld	a5,24(sp)
   16a88:	00099463          	bnez	s3,16a90 <__gdtoa+0xbbc>
   16a8c:	70d0006f          	j	17998 <__gdtoa+0x1ac4>
   16a90:	00098593          	mv	a1,s3
   16a94:	000c0513          	mv	a0,s8
   16a98:	00f13c23          	sd	a5,24(sp)
   16a9c:	4e4010ef          	jal	17f80 <_Bfree>
   16aa0:	00813783          	ld	a5,8(sp)
   16aa4:	00178c9b          	addiw	s9,a5,1
   16aa8:	01813783          	ld	a5,24(sp)
   16aac:	b35ff06f          	j	165e0 <__gdtoa+0x70c>
   16ab0:	03013683          	ld	a3,48(sp)
   16ab4:	01813603          	ld	a2,24(sp)
   16ab8:	0046a683          	lw	a3,4(a3)
   16abc:	0016869b          	addiw	a3,a3,1
   16ac0:	f0c6d6e3          	bge	a3,a2,169cc <__gdtoa+0xaf8>
   16ac4:	04813683          	ld	a3,72(sp)
   16ac8:	0019091b          	addiw	s2,s2,1
   16acc:	0016869b          	addiw	a3,a3,1
   16ad0:	04d13423          	sd	a3,72(sp)
   16ad4:	00100693          	li	a3,1
   16ad8:	06d13423          	sd	a3,104(sp)
   16adc:	ef1ff06f          	j	169cc <__gdtoa+0xaf8>
   16ae0:	00088593          	mv	a1,a7
   16ae4:	000c0513          	mv	a0,s8
   16ae8:	02f13823          	sd	a5,48(sp)
   16aec:	00e13c23          	sd	a4,24(sp)
   16af0:	645010ef          	jal	18934 <__lshift>
   16af4:	01813703          	ld	a4,24(sp)
   16af8:	03013783          	ld	a5,48(sp)
   16afc:	00050893          	mv	a7,a0
   16b00:	ee051ee3          	bnez	a0,169fc <__gdtoa+0xb28>
   16b04:	13013403          	ld	s0,304(sp)
   16b08:	12813483          	ld	s1,296(sp)
   16b0c:	11813983          	ld	s3,280(sp)
   16b10:	11013a03          	ld	s4,272(sp)
   16b14:	10813a83          	ld	s5,264(sp)
   16b18:	0f013c03          	ld	s8,240(sp)
   16b1c:	0e813c83          	ld	s9,232(sp)
   16b20:	0d813d83          	ld	s11,216(sp)
   16b24:	ee8ff06f          	j	1620c <__gdtoa+0x338>
   16b28:	05813783          	ld	a5,88(sp)
   16b2c:	00400693          	li	a3,4
   16b30:	3fd7879b          	addiw	a5,a5,1021
   16b34:	7f87ba13          	sltiu	s4,a5,2040
   16b38:	7edc8463          	beq	s9,a3,17320 <__gdtoa+0x144c>
   16b3c:	50ec8e63          	beq	s9,a4,17058 <__gdtoa+0x1184>
   16b40:	00200793          	li	a5,2
   16b44:	7cfc8a63          	beq	s9,a5,17318 <__gdtoa+0x1444>
   16b48:	00300793          	li	a5,3
   16b4c:	06013c23          	sd	zero,120(sp)
   16b50:	fefc8263          	beq	s9,a5,16334 <__gdtoa+0x460>
   16b54:	c9dff06f          	j	167f0 <__gdtoa+0x91c>
   16b58:	00060513          	mv	a0,a2
   16b5c:	02f13c23          	sd	a5,56(sp)
   16b60:	00100993          	li	s3,1
   16b64:	1b1050ef          	jal	1c514 <__muldf3>
   16b68:	03813783          	ld	a5,56(sp)
   16b6c:	02813c23          	sd	s0,56(sp)
   16b70:	0a913023          	sd	s1,160(sp)
   16b74:	00050a93          	mv	s5,a0
   16b78:	08813483          	ld	s1,136(sp)
   16b7c:	1f01ba03          	ld	s4,496(gp) # 20668 <__SDATA_BEGIN__+0x40>
   16b80:	09013403          	ld	s0,144(sp)
   16b84:	00078913          	mv	s2,a5
   16b88:	08f13423          	sd	a5,136(sp)
   16b8c:	00c0006f          	j	16b98 <__gdtoa+0xcc4>
   16b90:	185050ef          	jal	1c514 <__muldf3>
   16b94:	00050413          	mv	s0,a0
   16b98:	00040513          	mv	a0,s0
   16b9c:	0d312623          	sw	s3,204(sp)
   16ba0:	13c060ef          	jal	1ccdc <__fixdfsi>
   16ba4:	00050993          	mv	s3,a0
   16ba8:	0005051b          	sext.w	a0,a0
   16bac:	00050c63          	beqz	a0,16bc4 <__gdtoa+0xcf0>
   16bb0:	190060ef          	jal	1cd40 <__floatsidf>
   16bb4:	00050593          	mv	a1,a0
   16bb8:	00040513          	mv	a0,s0
   16bbc:	4c9050ef          	jal	1c884 <__subdf3>
   16bc0:	00050413          	mv	s0,a0
   16bc4:	0309899b          	addiw	s3,s3,48
   16bc8:	0ff9f613          	zext.b	a2,s3
   16bcc:	00c90023          	sb	a2,0(s2)
   16bd0:	0cc12783          	lw	a5,204(sp)
   16bd4:	00190913          	addi	s2,s2,1
   16bd8:	000a0593          	mv	a1,s4
   16bdc:	00040513          	mv	a0,s0
   16be0:	0017899b          	addiw	s3,a5,1
   16be4:	fa9796e3          	bne	a5,s1,16b90 <__gdtoa+0xcbc>
   16be8:	08813783          	ld	a5,136(sp)
   16bec:	0a813683          	ld	a3,168(sp)
   16bf0:	2081b583          	ld	a1,520(gp) # 20680 <__SDATA_BEGIN__+0x58>
   16bf4:	000a8513          	mv	a0,s5
   16bf8:	00040a13          	mv	s4,s0
   16bfc:	08813823          	sd	s0,144(sp)
   16c00:	08d13423          	sd	a3,136(sp)
   16c04:	0a013483          	ld	s1,160(sp)
   16c08:	03813403          	ld	s0,56(sp)
   16c0c:	0ac13023          	sd	a2,160(sp)
   16c10:	02f13c23          	sd	a5,56(sp)
   16c14:	745040ef          	jal	1bb58 <__adddf3>
   16c18:	000a0593          	mv	a1,s4
   16c1c:	049050ef          	jal	1c464 <__ledf2>
   16c20:	03813783          	ld	a5,56(sp)
   16c24:	0a013603          	ld	a2,160(sp)
   16c28:	980542e3          	bltz	a0,165ac <__gdtoa+0x6d8>
   16c2c:	000a8593          	mv	a1,s5
   16c30:	2081b503          	ld	a0,520(gp) # 20680 <__SDATA_BEGIN__+0x58>
   16c34:	451050ef          	jal	1c884 <__subdf3>
   16c38:	000a0593          	mv	a1,s4
   16c3c:	778050ef          	jal	1c3b4 <__gedf2>
   16c40:	03813783          	ld	a5,56(sp)
   16c44:	08813683          	ld	a3,136(sp)
   16c48:	2ea04ce3          	bgtz	a0,17740 <__gdtoa+0x186c>
   16c4c:	04013703          	ld	a4,64(sp)
   16c50:	340752e3          	bgez	a4,17794 <__gdtoa+0x18c0>
   16c54:	00000713          	li	a4,0
   16c58:	05013683          	ld	a3,80(sp)
   16c5c:	50068663          	beqz	a3,17168 <__gdtoa+0x1294>
   16c60:	04813683          	ld	a3,72(sp)
   16c64:	50068263          	beqz	a3,17168 <__gdtoa+0x1294>
   16c68:	05013603          	ld	a2,80(sp)
   16c6c:	04813583          	ld	a1,72(sp)
   16c70:	00060693          	mv	a3,a2
   16c74:	00c5d463          	bge	a1,a2,16c7c <__gdtoa+0xda8>
   16c78:	04812683          	lw	a3,72(sp)
   16c7c:	05013603          	ld	a2,80(sp)
   16c80:	0cd12623          	sw	a3,204(sp)
   16c84:	40d6093b          	subw	s2,a2,a3
   16c88:	04813603          	ld	a2,72(sp)
   16c8c:	40d606bb          	subw	a3,a2,a3
   16c90:	04d13423          	sd	a3,72(sp)
   16c94:	06013683          	ld	a3,96(sp)
   16c98:	4c069e63          	bnez	a3,17174 <__gdtoa+0x12a0>
   16c9c:	05213823          	sd	s2,80(sp)
   16ca0:	00000993          	li	s3,0
   16ca4:	cedff06f          	j	16990 <__gdtoa+0xabc>
   16ca8:	03813683          	ld	a3,56(sp)
   16cac:	08d13023          	sd	a3,128(sp)
   16cb0:	08013903          	ld	s2,128(sp)
   16cb4:	000a0593          	mv	a1,s4
   16cb8:	00100693          	li	a3,1
   16cbc:	00090513          	mv	a0,s2
   16cc0:	00f13c23          	sd	a5,24(sp)
   16cc4:	02e13823          	sd	a4,48(sp)
   16cc8:	0cd12623          	sw	a3,204(sp)
   16ccc:	2d4050ef          	jal	1bfa0 <__divdf3>
   16cd0:	00c060ef          	jal	1ccdc <__fixdfsi>
   16cd4:	0005099b          	sext.w	s3,a0
   16cd8:	00098513          	mv	a0,s3
   16cdc:	064060ef          	jal	1cd40 <__floatsidf>
   16ce0:	000a0593          	mv	a1,s4
   16ce4:	031050ef          	jal	1c514 <__muldf3>
   16ce8:	00050593          	mv	a1,a0
   16cec:	00090513          	mv	a0,s2
   16cf0:	395050ef          	jal	1c884 <__subdf3>
   16cf4:	01813783          	ld	a5,24(sp)
   16cf8:	0309869b          	addiw	a3,s3,48
   16cfc:	00000593          	li	a1,0
   16d00:	00d78023          	sb	a3,0(a5)
   16d04:	00178913          	addi	s2,a5,1
   16d08:	00813783          	ld	a5,8(sp)
   16d0c:	00050493          	mv	s1,a0
   16d10:	00178c9b          	addiw	s9,a5,1
   16d14:	624050ef          	jal	1c338 <__eqdf2>
   16d18:	01813783          	ld	a5,24(sp)
   16d1c:	8c0502e3          	beqz	a0,165e0 <__gdtoa+0x70c>
   16d20:	03013703          	ld	a4,48(sp)
   16d24:	00040d13          	mv	s10,s0
   16d28:	1f01ba83          	ld	s5,496(gp) # 20668 <__SDATA_BEGIN__+0x40>
   16d2c:	00e13c23          	sd	a4,24(sp)
   16d30:	00098413          	mv	s0,s3
   16d34:	00078d93          	mv	s11,a5
   16d38:	0580006f          	j	16d90 <__gdtoa+0xebc>
   16d3c:	0ce12623          	sw	a4,204(sp)
   16d40:	7d4050ef          	jal	1c514 <__muldf3>
   16d44:	000a0593          	mv	a1,s4
   16d48:	00050993          	mv	s3,a0
   16d4c:	00190913          	addi	s2,s2,1
   16d50:	250050ef          	jal	1bfa0 <__divdf3>
   16d54:	789050ef          	jal	1ccdc <__fixdfsi>
   16d58:	0005041b          	sext.w	s0,a0
   16d5c:	0305049b          	addiw	s1,a0,48
   16d60:	00040513          	mv	a0,s0
   16d64:	7dd050ef          	jal	1cd40 <__floatsidf>
   16d68:	000a0593          	mv	a1,s4
   16d6c:	7a8050ef          	jal	1c514 <__muldf3>
   16d70:	00050593          	mv	a1,a0
   16d74:	00098513          	mv	a0,s3
   16d78:	30d050ef          	jal	1c884 <__subdf3>
   16d7c:	00000593          	li	a1,0
   16d80:	fe990fa3          	sb	s1,-1(s2)
   16d84:	00050493          	mv	s1,a0
   16d88:	5b0050ef          	jal	1c338 <__eqdf2>
   16d8c:	56050663          	beqz	a0,172f8 <__gdtoa+0x1424>
   16d90:	0cc12783          	lw	a5,204(sp)
   16d94:	02013683          	ld	a3,32(sp)
   16d98:	000a8593          	mv	a1,s5
   16d9c:	00048513          	mv	a0,s1
   16da0:	0017871b          	addiw	a4,a5,1
   16da4:	f8d79ce3          	bne	a5,a3,16d3c <__gdtoa+0xe68>
   16da8:	01813703          	ld	a4,24(sp)
   16dac:	00040993          	mv	s3,s0
   16db0:	000d8793          	mv	a5,s11
   16db4:	000d0413          	mv	s0,s10
   16db8:	6c070c63          	beqz	a4,17490 <__gdtoa+0x15bc>
   16dbc:	00100693          	li	a3,1
   16dc0:	01000b93          	li	s7,16
   16dc4:	80d71ee3          	bne	a4,a3,165e0 <__gdtoa+0x70c>
   16dc8:	00813703          	ld	a4,8(sp)
   16dcc:	08e13c23          	sd	a4,152(sp)
   16dd0:	fff94603          	lbu	a2,-1(s2)
   16dd4:	fd8ff06f          	j	165ac <__gdtoa+0x6d8>
   16dd8:	07813683          	ld	a3,120(sp)
   16ddc:	46068063          	beqz	a3,1723c <__gdtoa+0x1368>
   16de0:	05013683          	ld	a3,80(sp)
   16de4:	00d4863b          	addw	a2,s1,a3
   16de8:	62c04c63          	bgtz	a2,17420 <__gdtoa+0x154c>
   16dec:	06813683          	ld	a3,104(sp)
   16df0:	00098a13          	mv	s4,s3
   16df4:	6e069a63          	bnez	a3,174e8 <__gdtoa+0x1614>
   16df8:	ffe70693          	addi	a3,a4,-2
   16dfc:	04d13823          	sd	a3,80(sp)
   16e00:	04e13023          	sd	a4,64(sp)
   16e04:	00100693          	li	a3,1
   16e08:	000a0913          	mv	s2,s4
   16e0c:	00078d13          	mv	s10,a5
   16e10:	03113823          	sd	a7,48(sp)
   16e14:	04f13c23          	sd	a5,88(sp)
   16e18:	03013a03          	ld	s4,48(sp)
   16e1c:	00040513          	mv	a0,s0
   16e20:	0cd12623          	sw	a3,204(sp)
   16e24:	000a0593          	mv	a1,s4
   16e28:	4d9000ef          	jal	17b00 <__quorem_D2A>
   16e2c:	02a13c23          	sd	a0,56(sp)
   16e30:	00098593          	mv	a1,s3
   16e34:	00050a93          	mv	s5,a0
   16e38:	00040513          	mv	a0,s0
   16e3c:	489010ef          	jal	18ac4 <__mcmp>
   16e40:	000a0593          	mv	a1,s4
   16e44:	00050493          	mv	s1,a0
   16e48:	00090613          	mv	a2,s2
   16e4c:	000c0513          	mv	a0,s8
   16e50:	4cd010ef          	jal	18b1c <__mdiff>
   16e54:	00050593          	mv	a1,a0
   16e58:	ca0506e3          	beqz	a0,16b04 <__gdtoa+0xc30>
   16e5c:	01052783          	lw	a5,16(a0)
   16e60:	030a871b          	addiw	a4,s5,48
   16e64:	00070a93          	mv	s5,a4
   16e68:	0c078063          	beqz	a5,16f28 <__gdtoa+0x1054>
   16e6c:	000c0513          	mv	a0,s8
   16e70:	00e13c23          	sd	a4,24(sp)
   16e74:	10c010ef          	jal	17f80 <_Bfree>
   16e78:	01813703          	ld	a4,24(sp)
   16e7c:	00100593          	li	a1,1
   16e80:	0004c0e3          	bltz	s1,17680 <__gdtoa+0x17ac>
   16e84:	0194e4b3          	or	s1,s1,s9
   16e88:	0004849b          	sext.w	s1,s1
   16e8c:	00049863          	bnez	s1,16e9c <__gdtoa+0xfc8>
   16e90:	000da783          	lw	a5,0(s11)
   16e94:	0017f793          	andi	a5,a5,1
   16e98:	7e078463          	beqz	a5,17680 <__gdtoa+0x17ac>
   16e9c:	001d0493          	addi	s1,s10,1
   16ea0:	00048693          	mv	a3,s1
   16ea4:	00b05663          	blez	a1,16eb0 <__gdtoa+0xfdc>
   16ea8:	05013783          	ld	a5,80(sp)
   16eac:	0e079ce3          	bnez	a5,177a4 <__gdtoa+0x18d0>
   16eb0:	ff548fa3          	sb	s5,-1(s1)
   16eb4:	0cc12783          	lw	a5,204(sp)
   16eb8:	02013603          	ld	a2,32(sp)
   16ebc:	12c780e3          	beq	a5,a2,177dc <__gdtoa+0x1908>
   16ec0:	00040593          	mv	a1,s0
   16ec4:	00000693          	li	a3,0
   16ec8:	00a00613          	li	a2,10
   16ecc:	000c0513          	mv	a0,s8
   16ed0:	0d4010ef          	jal	17fa4 <__multadd>
   16ed4:	00050413          	mv	s0,a0
   16ed8:	c20506e3          	beqz	a0,16b04 <__gdtoa+0xc30>
   16edc:	00098593          	mv	a1,s3
   16ee0:	00000693          	li	a3,0
   16ee4:	00a00613          	li	a2,10
   16ee8:	000c0513          	mv	a0,s8
   16eec:	13298063          	beq	s3,s2,1700c <__gdtoa+0x1138>
   16ef0:	0b4010ef          	jal	17fa4 <__multadd>
   16ef4:	00050993          	mv	s3,a0
   16ef8:	c00506e3          	beqz	a0,16b04 <__gdtoa+0xc30>
   16efc:	00090593          	mv	a1,s2
   16f00:	00000693          	li	a3,0
   16f04:	00a00613          	li	a2,10
   16f08:	000c0513          	mv	a0,s8
   16f0c:	098010ef          	jal	17fa4 <__multadd>
   16f10:	00050913          	mv	s2,a0
   16f14:	be0508e3          	beqz	a0,16b04 <__gdtoa+0xc30>
   16f18:	0cc12683          	lw	a3,204(sp)
   16f1c:	00048d13          	mv	s10,s1
   16f20:	0016869b          	addiw	a3,a3,1
   16f24:	ef5ff06f          	j	16e18 <__gdtoa+0xf44>
   16f28:	00a13c23          	sd	a0,24(sp)
   16f2c:	00040513          	mv	a0,s0
   16f30:	04e13423          	sd	a4,72(sp)
   16f34:	391010ef          	jal	18ac4 <__mcmp>
   16f38:	01813583          	ld	a1,24(sp)
   16f3c:	00050a13          	mv	s4,a0
   16f40:	000c0513          	mv	a0,s8
   16f44:	03c010ef          	jal	17f80 <_Bfree>
   16f48:	019a65b3          	or	a1,s4,s9
   16f4c:	0005859b          	sext.w	a1,a1
   16f50:	04813703          	ld	a4,72(sp)
   16f54:	4c059263          	bnez	a1,17418 <__gdtoa+0x1544>
   16f58:	000da783          	lw	a5,0(s11)
   16f5c:	04013683          	ld	a3,64(sp)
   16f60:	0017f793          	andi	a5,a5,1
   16f64:	00d7e7b3          	or	a5,a5,a3
   16f68:	f0079ce3          	bnez	a5,16e80 <__gdtoa+0xfac>
   16f6c:	00090a13          	mv	s4,s2
   16f70:	00070913          	mv	s2,a4
   16f74:	03900713          	li	a4,57
   16f78:	03013883          	ld	a7,48(sp)
   16f7c:	05813783          	ld	a5,88(sp)
   16f80:	000d0813          	mv	a6,s10
   16f84:	44e90863          	beq	s2,a4,173d4 <__gdtoa+0x1500>
   16f88:	1e9058e3          	blez	s1,17978 <__gdtoa+0x1aa4>
   16f8c:	03813703          	ld	a4,56(sp)
   16f90:	02000b93          	li	s7,32
   16f94:	0317091b          	addiw	s2,a4,49
   16f98:	00098693          	mv	a3,s3
   16f9c:	01280023          	sb	s2,0(a6)
   16fa0:	000a0993          	mv	s3,s4
   16fa4:	00180913          	addi	s2,a6,1
   16fa8:	00088593          	mv	a1,a7
   16fac:	000c0513          	mv	a0,s8
   16fb0:	02f13023          	sd	a5,32(sp)
   16fb4:	00d13c23          	sd	a3,24(sp)
   16fb8:	7c9000ef          	jal	17f80 <_Bfree>
   16fbc:	01813683          	ld	a3,24(sp)
   16fc0:	02013783          	ld	a5,32(sp)
   16fc4:	1c098ae3          	beqz	s3,17998 <__gdtoa+0x1ac4>
   16fc8:	ac0684e3          	beqz	a3,16a90 <__gdtoa+0xbbc>
   16fcc:	ad3682e3          	beq	a3,s3,16a90 <__gdtoa+0xbbc>
   16fd0:	00068593          	mv	a1,a3
   16fd4:	000c0513          	mv	a0,s8
   16fd8:	00f13c23          	sd	a5,24(sp)
   16fdc:	7a5000ef          	jal	17f80 <_Bfree>
   16fe0:	01813783          	ld	a5,24(sp)
   16fe4:	aadff06f          	j	16a90 <__gdtoa+0xbbc>
   16fe8:	00000593          	li	a1,0
   16fec:	000c0513          	mv	a0,s8
   16ff0:	00f13423          	sd	a5,8(sp)
   16ff4:	78d000ef          	jal	17f80 <_Bfree>
   16ff8:	00813783          	ld	a5,8(sp)
   16ffc:	41a00cbb          	negw	s9,s10
   17000:	01000b93          	li	s7,16
   17004:	00078913          	mv	s2,a5
   17008:	dd8ff06f          	j	165e0 <__gdtoa+0x70c>
   1700c:	799000ef          	jal	17fa4 <__multadd>
   17010:	00050993          	mv	s3,a0
   17014:	ae0508e3          	beqz	a0,16b04 <__gdtoa+0xc30>
   17018:	00050913          	mv	s2,a0
   1701c:	efdff06f          	j	16f18 <__gdtoa+0x1044>
   17020:	00040593          	mv	a1,s0
   17024:	000c0513          	mv	a0,s8
   17028:	02f13c23          	sd	a5,56(sp)
   1702c:	03113823          	sd	a7,48(sp)
   17030:	00e13c23          	sd	a4,24(sp)
   17034:	101010ef          	jal	18934 <__lshift>
   17038:	00050413          	mv	s0,a0
   1703c:	ac0504e3          	beqz	a0,16b04 <__gdtoa+0xc30>
   17040:	0cc12683          	lw	a3,204(sp)
   17044:	03813783          	ld	a5,56(sp)
   17048:	03013883          	ld	a7,48(sp)
   1704c:	01813703          	ld	a4,24(sp)
   17050:	9a1ff06f          	j	169f0 <__gdtoa+0xb1c>
   17054:	00000a13          	li	s4,0
   17058:	00100793          	li	a5,1
   1705c:	00500c93          	li	s9,5
   17060:	06f13c23          	sd	a5,120(sp)
   17064:	ad0ff06f          	j	16334 <__gdtoa+0x460>
   17068:	00100613          	li	a2,1
   1706c:	879658e3          	bge	a2,s9,168dc <__gdtoa+0xa08>
   17070:	02013683          	ld	a3,32(sp)
   17074:	06013583          	ld	a1,96(sp)
   17078:	fff6869b          	addiw	a3,a3,-1
   1707c:	00068613          	mv	a2,a3
   17080:	2ad5c663          	blt	a1,a3,1732c <__gdtoa+0x1458>
   17084:	40d58a3b          	subw	s4,a1,a3
   17088:	02013683          	ld	a3,32(sp)
   1708c:	0606dce3          	bgez	a3,17904 <__gdtoa+0x1a30>
   17090:	05013683          	ld	a3,80(sp)
   17094:	02013603          	ld	a2,32(sp)
   17098:	0c012623          	sw	zero,204(sp)
   1709c:	00068913          	mv	s2,a3
   170a0:	40c686bb          	subw	a3,a3,a2
   170a4:	04d13823          	sd	a3,80(sp)
   170a8:	84dff06f          	j	168f4 <__gdtoa+0xa20>
   170ac:	00050593          	mv	a1,a0
   170b0:	00068613          	mv	a2,a3
   170b4:	000c0513          	mv	a0,s8
   170b8:	710010ef          	jal	187c8 <__pow5mult>
   170bc:	00050893          	mv	a7,a0
   170c0:	a40502e3          	beqz	a0,16b04 <__gdtoa+0xc30>
   170c4:	002ca693          	slti	a3,s9,2
   170c8:	03813703          	ld	a4,56(sp)
   170cc:	04013783          	ld	a5,64(sp)
   170d0:	00068663          	beqz	a3,170dc <__gdtoa+0x1208>
   170d4:	fff48493          	addi	s1,s1,-1
   170d8:	02048e63          	beqz	s1,17114 <__gdtoa+0x1240>
   170dc:	06013423          	sd	zero,104(sp)
   170e0:	0148a683          	lw	a3,20(a7)
   170e4:	02f13c23          	sd	a5,56(sp)
   170e8:	02e13823          	sd	a4,48(sp)
   170ec:	fff6869b          	addiw	a3,a3,-1
   170f0:	00269693          	slli	a3,a3,0x2
   170f4:	00d886b3          	add	a3,a7,a3
   170f8:	0186a503          	lw	a0,24(a3)
   170fc:	01113c23          	sd	a7,24(sp)
   17100:	170010ef          	jal	18270 <__hi0bits>
   17104:	03813783          	ld	a5,56(sp)
   17108:	03013703          	ld	a4,48(sp)
   1710c:	01813883          	ld	a7,24(sp)
   17110:	8c1ff06f          	j	169d0 <__gdtoa+0xafc>
   17114:	03013683          	ld	a3,48(sp)
   17118:	01813603          	ld	a2,24(sp)
   1711c:	0046a683          	lw	a3,4(a3)
   17120:	0016869b          	addiw	a3,a3,1
   17124:	fac6dce3          	bge	a3,a2,170dc <__gdtoa+0x1208>
   17128:	04813683          	ld	a3,72(sp)
   1712c:	0019091b          	addiw	s2,s2,1
   17130:	0016869b          	addiw	a3,a3,1
   17134:	04d13423          	sd	a3,72(sp)
   17138:	00100693          	li	a3,1
   1713c:	06d13423          	sd	a3,104(sp)
   17140:	fa1ff06f          	j	170e0 <__gdtoa+0x120c>
   17144:	00100793          	li	a5,1
   17148:	40c787bb          	subw	a5,a5,a2
   1714c:	04f13823          	sd	a5,80(sp)
   17150:	00813783          	ld	a5,8(sp)
   17154:	06013823          	sd	zero,112(sp)
   17158:	06013023          	sd	zero,96(sp)
   1715c:	04f13423          	sd	a5,72(sp)
   17160:	06f13423          	sd	a5,104(sp)
   17164:	99cff06f          	j	16300 <__gdtoa+0x42c>
   17168:	06013683          	ld	a3,96(sp)
   1716c:	05013903          	ld	s2,80(sp)
   17170:	b20688e3          	beqz	a3,16ca0 <__gdtoa+0xdcc>
   17174:	06013603          	ld	a2,96(sp)
   17178:	00040593          	mv	a1,s0
   1717c:	000c0513          	mv	a0,s8
   17180:	04f13023          	sd	a5,64(sp)
   17184:	02e13c23          	sd	a4,56(sp)
   17188:	640010ef          	jal	187c8 <__pow5mult>
   1718c:	00050413          	mv	s0,a0
   17190:	96050ae3          	beqz	a0,16b04 <__gdtoa+0xc30>
   17194:	04013783          	ld	a5,64(sp)
   17198:	03813703          	ld	a4,56(sp)
   1719c:	05213823          	sd	s2,80(sp)
   171a0:	00000993          	li	s3,0
   171a4:	fecff06f          	j	16990 <__gdtoa+0xabc>
   171a8:	00088593          	mv	a1,a7
   171ac:	00040513          	mv	a0,s0
   171b0:	02f13c23          	sd	a5,56(sp)
   171b4:	02e13823          	sd	a4,48(sp)
   171b8:	01113c23          	sd	a7,24(sp)
   171bc:	109010ef          	jal	18ac4 <__mcmp>
   171c0:	01813883          	ld	a7,24(sp)
   171c4:	03013703          	ld	a4,48(sp)
   171c8:	03813783          	ld	a5,56(sp)
   171cc:	82055ce3          	bgez	a0,16a04 <__gdtoa+0xb30>
   171d0:	00040593          	mv	a1,s0
   171d4:	00000693          	li	a3,0
   171d8:	00a00613          	li	a2,10
   171dc:	000c0513          	mv	a0,s8
   171e0:	02f13823          	sd	a5,48(sp)
   171e4:	03113023          	sd	a7,32(sp)
   171e8:	00e13c23          	sd	a4,24(sp)
   171ec:	5b9000ef          	jal	17fa4 <__multadd>
   171f0:	00050413          	mv	s0,a0
   171f4:	900508e3          	beqz	a0,16b04 <__gdtoa+0xc30>
   171f8:	00813783          	ld	a5,8(sp)
   171fc:	07813683          	ld	a3,120(sp)
   17200:	01813703          	ld	a4,24(sp)
   17204:	fff7879b          	addiw	a5,a5,-1
   17208:	00f13423          	sd	a5,8(sp)
   1720c:	02013883          	ld	a7,32(sp)
   17210:	03013783          	ld	a5,48(sp)
   17214:	6a069663          	bnez	a3,178c0 <__gdtoa+0x19ec>
   17218:	05813683          	ld	a3,88(sp)
   1721c:	00d04c63          	bgtz	a3,17234 <__gdtoa+0x1360>
   17220:	00200693          	li	a3,2
   17224:	0196d863          	bge	a3,s9,17234 <__gdtoa+0x1360>
   17228:	05813703          	ld	a4,88(sp)
   1722c:	02e13023          	sd	a4,32(sp)
   17230:	fe4ff06f          	j	16a14 <__gdtoa+0xb40>
   17234:	05813683          	ld	a3,88(sp)
   17238:	02d13023          	sd	a3,32(sp)
   1723c:	00098b93          	mv	s7,s3
   17240:	00078493          	mv	s1,a5
   17244:	02013983          	ld	s3,32(sp)
   17248:	00100693          	li	a3,1
   1724c:	00070a93          	mv	s5,a4
   17250:	00088a13          	mv	s4,a7
   17254:	00078c93          	mv	s9,a5
   17258:	0200006f          	j	17278 <__gdtoa+0x13a4>
   1725c:	00040593          	mv	a1,s0
   17260:	000c0513          	mv	a0,s8
   17264:	541000ef          	jal	17fa4 <__multadd>
   17268:	00050413          	mv	s0,a0
   1726c:	88050ce3          	beqz	a0,16b04 <__gdtoa+0xc30>
   17270:	0cc12683          	lw	a3,204(sp)
   17274:	0016869b          	addiw	a3,a3,1
   17278:	000a0593          	mv	a1,s4
   1727c:	00040513          	mv	a0,s0
   17280:	0cd12623          	sw	a3,204(sp)
   17284:	07d000ef          	jal	17b00 <__quorem_D2A>
   17288:	00148493          	addi	s1,s1,1
   1728c:	0305091b          	addiw	s2,a0,48
   17290:	ff248fa3          	sb	s2,-1(s1)
   17294:	0cc12783          	lw	a5,204(sp)
   17298:	00000693          	li	a3,0
   1729c:	00a00613          	li	a2,10
   172a0:	fb37cee3          	blt	a5,s3,1725c <__gdtoa+0x1388>
   172a4:	000a8713          	mv	a4,s5
   172a8:	000b8993          	mv	s3,s7
   172ac:	000a0893          	mv	a7,s4
   172b0:	000c8793          	mv	a5,s9
   172b4:	00000693          	li	a3,0
   172b8:	32070463          	beqz	a4,175e0 <__gdtoa+0x170c>
   172bc:	00200613          	li	a2,2
   172c0:	36c70463          	beq	a4,a2,17628 <__gdtoa+0x1754>
   172c4:	01442603          	lw	a2,20(s0)
   172c8:	00100713          	li	a4,1
   172cc:	12c74063          	blt	a4,a2,173ec <__gdtoa+0x1518>
   172d0:	01842703          	lw	a4,24(s0)
   172d4:	10071c63          	bnez	a4,173ec <__gdtoa+0x1518>
   172d8:	00e03733          	snez	a4,a4
   172dc:	00471b9b          	slliw	s7,a4,0x4
   172e0:	03000613          	li	a2,48
   172e4:	00048913          	mv	s2,s1
   172e8:	fff4c703          	lbu	a4,-1(s1)
   172ec:	fff48493          	addi	s1,s1,-1
   172f0:	fec70ae3          	beq	a4,a2,172e4 <__gdtoa+0x1410>
   172f4:	cb5ff06f          	j	16fa8 <__gdtoa+0x10d4>
   172f8:	000d0413          	mv	s0,s10
   172fc:	000d8793          	mv	a5,s11
   17300:	ae0ff06f          	j	165e0 <__gdtoa+0x70c>
   17304:	fffd4713          	not	a4,s10
   17308:	00e13423          	sd	a4,8(sp)
   1730c:	00078913          	mv	s2,a5
   17310:	01000b93          	li	s7,16
   17314:	f64ff06f          	j	16a78 <__gdtoa+0xba4>
   17318:	06013c23          	sd	zero,120(sp)
   1731c:	d3cff06f          	j	16858 <__gdtoa+0x984>
   17320:	00100793          	li	a5,1
   17324:	06f13c23          	sd	a5,120(sp)
   17328:	d30ff06f          	j	16858 <__gdtoa+0x984>
   1732c:	06013683          	ld	a3,96(sp)
   17330:	06813583          	ld	a1,104(sp)
   17334:	06c13023          	sd	a2,96(sp)
   17338:	40d606bb          	subw	a3,a2,a3
   1733c:	00b686bb          	addw	a3,a3,a1
   17340:	06d13423          	sd	a3,104(sp)
   17344:	04813583          	ld	a1,72(sp)
   17348:	02013683          	ld	a3,32(sp)
   1734c:	02013603          	ld	a2,32(sp)
   17350:	00000a13          	li	s4,0
   17354:	0cd12623          	sw	a3,204(sp)
   17358:	00b686bb          	addw	a3,a3,a1
   1735c:	04d13423          	sd	a3,72(sp)
   17360:	05013683          	ld	a3,80(sp)
   17364:	00c6893b          	addw	s2,a3,a2
   17368:	d8cff06f          	j	168f4 <__gdtoa+0xa20>
   1736c:	00098593          	mv	a1,s3
   17370:	000a0613          	mv	a2,s4
   17374:	000c0513          	mv	a0,s8
   17378:	04f13023          	sd	a5,64(sp)
   1737c:	02e13c23          	sd	a4,56(sp)
   17380:	448010ef          	jal	187c8 <__pow5mult>
   17384:	00050993          	mv	s3,a0
   17388:	f6050e63          	beqz	a0,16b04 <__gdtoa+0xc30>
   1738c:	00050593          	mv	a1,a0
   17390:	00040613          	mv	a2,s0
   17394:	000c0513          	mv	a0,s8
   17398:	14c010ef          	jal	184e4 <__multiply>
   1739c:	f6050463          	beqz	a0,16b04 <__gdtoa+0xc30>
   173a0:	00040593          	mv	a1,s0
   173a4:	08a13023          	sd	a0,128(sp)
   173a8:	000c0513          	mv	a0,s8
   173ac:	3d5000ef          	jal	17f80 <_Bfree>
   173b0:	06013703          	ld	a4,96(sp)
   173b4:	08013403          	ld	s0,128(sp)
   173b8:	414707bb          	subw	a5,a4,s4
   173bc:	06f13023          	sd	a5,96(sp)
   173c0:	00078693          	mv	a3,a5
   173c4:	03813703          	ld	a4,56(sp)
   173c8:	04013783          	ld	a5,64(sp)
   173cc:	dc068263          	beqz	a3,16990 <__gdtoa+0xabc>
   173d0:	d98ff06f          	j	16968 <__gdtoa+0xa94>
   173d4:	00180613          	addi	a2,a6,1
   173d8:	03900713          	li	a4,57
   173dc:	00098693          	mv	a3,s3
   173e0:	00060493          	mv	s1,a2
   173e4:	000a0993          	mv	s3,s4
   173e8:	00e80023          	sb	a4,0(a6)
   173ec:	03900613          	li	a2,57
   173f0:	0080006f          	j	173f8 <__gdtoa+0x1524>
   173f4:	24978663          	beq	a5,s1,17640 <__gdtoa+0x176c>
   173f8:	fff4c703          	lbu	a4,-1(s1)
   173fc:	00048913          	mv	s2,s1
   17400:	fff48493          	addi	s1,s1,-1
   17404:	fec708e3          	beq	a4,a2,173f4 <__gdtoa+0x1520>
   17408:	0017071b          	addiw	a4,a4,1
   1740c:	00e48023          	sb	a4,0(s1)
   17410:	02000b93          	li	s7,32
   17414:	b95ff06f          	j	16fa8 <__gdtoa+0x10d4>
   17418:	000a0593          	mv	a1,s4
   1741c:	a65ff06f          	j	16e80 <__gdtoa+0xfac>
   17420:	00098593          	mv	a1,s3
   17424:	000c0513          	mv	a0,s8
   17428:	02f13c23          	sd	a5,56(sp)
   1742c:	03113823          	sd	a7,48(sp)
   17430:	00e13c23          	sd	a4,24(sp)
   17434:	500010ef          	jal	18934 <__lshift>
   17438:	01813703          	ld	a4,24(sp)
   1743c:	03013883          	ld	a7,48(sp)
   17440:	03813783          	ld	a5,56(sp)
   17444:	00050993          	mv	s3,a0
   17448:	9a0512e3          	bnez	a0,16dec <__gdtoa+0xf18>
   1744c:	eb8ff06f          	j	16b04 <__gdtoa+0xc30>
   17450:	03100713          	li	a4,49
   17454:	00e78023          	sb	a4,0(a5)
   17458:	00000593          	li	a1,0
   1745c:	000c0513          	mv	a0,s8
   17460:	00178913          	addi	s2,a5,1
   17464:	00f13423          	sd	a5,8(sp)
   17468:	319000ef          	jal	17f80 <_Bfree>
   1746c:	00813783          	ld	a5,8(sp)
   17470:	00200c93          	li	s9,2
   17474:	02000b93          	li	s7,32
   17478:	968ff06f          	j	165e0 <__gdtoa+0x70c>
   1747c:	09813683          	ld	a3,152(sp)
   17480:	03100993          	li	s3,49
   17484:	0016869b          	addiw	a3,a3,1
   17488:	08d13c23          	sd	a3,152(sp)
   1748c:	944ff06f          	j	165d0 <__gdtoa+0x6fc>
   17490:	00048593          	mv	a1,s1
   17494:	03b13023          	sd	s11,32(sp)
   17498:	6c0040ef          	jal	1bb58 <__adddf3>
   1749c:	fff94603          	lbu	a2,-1(s2)
   174a0:	000a0593          	mv	a1,s4
   174a4:	00050493          	mv	s1,a0
   174a8:	00c13c23          	sd	a2,24(sp)
   174ac:	709040ef          	jal	1c3b4 <__gedf2>
   174b0:	01813603          	ld	a2,24(sp)
   174b4:	02013783          	ld	a5,32(sp)
   174b8:	26a04e63          	bgtz	a0,17734 <__gdtoa+0x1860>
   174bc:	000a0593          	mv	a1,s4
   174c0:	00048513          	mv	a0,s1
   174c4:	675040ef          	jal	1c338 <__eqdf2>
   174c8:	02013783          	ld	a5,32(sp)
   174cc:	2a051a63          	bnez	a0,17780 <__gdtoa+0x18ac>
   174d0:	0019f713          	andi	a4,s3,1
   174d4:	2a070663          	beqz	a4,17780 <__gdtoa+0x18ac>
   174d8:	00813703          	ld	a4,8(sp)
   174dc:	01813603          	ld	a2,24(sp)
   174e0:	08e13c23          	sd	a4,152(sp)
   174e4:	8c8ff06f          	j	165ac <__gdtoa+0x6d8>
   174e8:	0089a583          	lw	a1,8(s3)
   174ec:	000c0513          	mv	a0,s8
   174f0:	02f13c23          	sd	a5,56(sp)
   174f4:	03113823          	sd	a7,48(sp)
   174f8:	00e13c23          	sd	a4,24(sp)
   174fc:	1d9000ef          	jal	17ed4 <_Balloc>
   17500:	00050493          	mv	s1,a0
   17504:	e0050063          	beqz	a0,16b04 <__gdtoa+0xc30>
   17508:	0149a603          	lw	a2,20(s3)
   1750c:	01098593          	addi	a1,s3,16
   17510:	01050513          	addi	a0,a0,16
   17514:	00261613          	slli	a2,a2,0x2
   17518:	00860613          	addi	a2,a2,8
   1751c:	b14fe0ef          	jal	15830 <memcpy>
   17520:	00048593          	mv	a1,s1
   17524:	000c0513          	mv	a0,s8
   17528:	00100613          	li	a2,1
   1752c:	408010ef          	jal	18934 <__lshift>
   17530:	01813703          	ld	a4,24(sp)
   17534:	03013883          	ld	a7,48(sp)
   17538:	03813783          	ld	a5,56(sp)
   1753c:	00050a13          	mv	s4,a0
   17540:	8a051ce3          	bnez	a0,16df8 <__gdtoa+0xf24>
   17544:	dc0ff06f          	j	16b04 <__gdtoa+0xc30>
   17548:	05813703          	ld	a4,88(sp)
   1754c:	9ee05a63          	blez	a4,16740 <__gdtoa+0x86c>
   17550:	1f01b583          	ld	a1,496(gp) # 20668 <__SDATA_BEGIN__+0x40>
   17554:	03813503          	ld	a0,56(sp)
   17558:	0af13023          	sd	a5,160(sp)
   1755c:	7b9040ef          	jal	1c514 <__muldf3>
   17560:	1f81b583          	ld	a1,504(gp) # 20670 <__SDATA_BEGIN__+0x48>
   17564:	08a13823          	sd	a0,144(sp)
   17568:	7ad040ef          	jal	1c514 <__muldf3>
   1756c:	1e81b583          	ld	a1,488(gp) # 20660 <__SDATA_BEGIN__+0x38>
   17570:	5e8040ef          	jal	1bb58 <__adddf3>
   17574:	05813783          	ld	a5,88(sp)
   17578:	fcc006b7          	lui	a3,0xfcc00
   1757c:	02055713          	srli	a4,a0,0x20
   17580:	02051613          	slli	a2,a0,0x20
   17584:	00d7073b          	addw	a4,a4,a3
   17588:	08f13423          	sd	a5,136(sp)
   1758c:	02065613          	srli	a2,a2,0x20
   17590:	fff00793          	li	a5,-1
   17594:	02071713          	slli	a4,a4,0x20
   17598:	08f13c23          	sd	a5,152(sp)
   1759c:	00e66633          	or	a2,a2,a4
   175a0:	0a013783          	ld	a5,160(sp)
   175a4:	e85fe06f          	j	16428 <__gdtoa+0x554>
   175a8:	00040913          	mv	s2,s0
   175ac:	0a013403          	ld	s0,160(sp)
   175b0:	0b313823          	sd	s3,176(sp)
   175b4:	000a0793          	mv	a5,s4
   175b8:	0b013503          	ld	a0,176(sp)
   175bc:	00000593          	li	a1,0
   175c0:	00f13423          	sd	a5,8(sp)
   175c4:	575040ef          	jal	1c338 <__eqdf2>
   175c8:	09813783          	ld	a5,152(sp)
   175cc:	00a03733          	snez	a4,a0
   175d0:	00471b9b          	slliw	s7,a4,0x4
   175d4:	00178c9b          	addiw	s9,a5,1
   175d8:	00813783          	ld	a5,8(sp)
   175dc:	804ff06f          	j	165e0 <__gdtoa+0x70c>
   175e0:	00040593          	mv	a1,s0
   175e4:	00100613          	li	a2,1
   175e8:	000c0513          	mv	a0,s8
   175ec:	02f13823          	sd	a5,48(sp)
   175f0:	01113c23          	sd	a7,24(sp)
   175f4:	02d13023          	sd	a3,32(sp)
   175f8:	33c010ef          	jal	18934 <__lshift>
   175fc:	00050413          	mv	s0,a0
   17600:	d0050263          	beqz	a0,16b04 <__gdtoa+0xc30>
   17604:	01813583          	ld	a1,24(sp)
   17608:	4bc010ef          	jal	18ac4 <__mcmp>
   1760c:	01813883          	ld	a7,24(sp)
   17610:	02013683          	ld	a3,32(sp)
   17614:	03013783          	ld	a5,48(sp)
   17618:	dca04ae3          	bgtz	a0,173ec <__gdtoa+0x1518>
   1761c:	00051663          	bnez	a0,17628 <__gdtoa+0x1754>
   17620:	00197913          	andi	s2,s2,1
   17624:	dc0914e3          	bnez	s2,173ec <__gdtoa+0x1518>
   17628:	01442603          	lw	a2,20(s0)
   1762c:	00100713          	li	a4,1
   17630:	01000b93          	li	s7,16
   17634:	cac746e3          	blt	a4,a2,172e0 <__gdtoa+0x140c>
   17638:	01842703          	lw	a4,24(s0)
   1763c:	c9dff06f          	j	172d8 <__gdtoa+0x1404>
   17640:	00813603          	ld	a2,8(sp)
   17644:	03100713          	li	a4,49
   17648:	00e78023          	sb	a4,0(a5)
   1764c:	0016061b          	addiw	a2,a2,1
   17650:	00c13423          	sd	a2,8(sp)
   17654:	02000b93          	li	s7,32
   17658:	951ff06f          	j	16fa8 <__gdtoa+0x10d4>
   1765c:	04013703          	ld	a4,64(sp)
   17660:	0a013403          	ld	s0,160(sp)
   17664:	0b013983          	ld	s3,176(sp)
   17668:	0b813483          	ld	s1,184(sp)
   1766c:	000a0793          	mv	a5,s4
   17670:	000a8693          	mv	a3,s5
   17674:	18075663          	bgez	a4,17800 <__gdtoa+0x192c>
   17678:	00000713          	li	a4,0
   1767c:	a04ff06f          	j	16880 <__gdtoa+0x9ac>
   17680:	00090a13          	mv	s4,s2
   17684:	00070913          	mv	s2,a4
   17688:	04013703          	ld	a4,64(sp)
   1768c:	03013883          	ld	a7,48(sp)
   17690:	05813783          	ld	a5,88(sp)
   17694:	000d0813          	mv	a6,s10
   17698:	16070863          	beqz	a4,17808 <__gdtoa+0x1934>
   1769c:	01442603          	lw	a2,20(s0)
   176a0:	00100693          	li	a3,1
   176a4:	28c6d063          	bge	a3,a2,17924 <__gdtoa+0x1a50>
   176a8:	00200693          	li	a3,2
   176ac:	2ad70863          	beq	a4,a3,1795c <__gdtoa+0x1a88>
   176b0:	00098b93          	mv	s7,s3
   176b4:	000a0493          	mv	s1,s4
   176b8:	00080993          	mv	s3,a6
   176bc:	00088a93          	mv	s5,a7
   176c0:	00078c93          	mv	s9,a5
   176c4:	0240006f          	j	176e8 <__gdtoa+0x1814>
   176c8:	0dd000ef          	jal	17fa4 <__multadd>
   176cc:	000a8593          	mv	a1,s5
   176d0:	00050413          	mv	s0,a0
   176d4:	00198993          	addi	s3,s3,1
   176d8:	c2050663          	beqz	a0,16b04 <__gdtoa+0xc30>
   176dc:	424000ef          	jal	17b00 <__quorem_D2A>
   176e0:	00090493          	mv	s1,s2
   176e4:	0305091b          	addiw	s2,a0,48
   176e8:	00048593          	mv	a1,s1
   176ec:	000a8513          	mv	a0,s5
   176f0:	3d4010ef          	jal	18ac4 <__mcmp>
   176f4:	00000693          	li	a3,0
   176f8:	00a00613          	li	a2,10
   176fc:	22a05c63          	blez	a0,17934 <__gdtoa+0x1a60>
   17700:	01298023          	sb	s2,0(s3)
   17704:	00048593          	mv	a1,s1
   17708:	000c0513          	mv	a0,s8
   1770c:	099000ef          	jal	17fa4 <__multadd>
   17710:	00050913          	mv	s2,a0
   17714:	00000693          	li	a3,0
   17718:	00a00613          	li	a2,10
   1771c:	00040593          	mv	a1,s0
   17720:	000c0513          	mv	a0,s8
   17724:	be090063          	beqz	s2,16b04 <__gdtoa+0xc30>
   17728:	fa9b90e3          	bne	s7,s1,176c8 <__gdtoa+0x17f4>
   1772c:	00090b93          	mv	s7,s2
   17730:	f99ff06f          	j	176c8 <__gdtoa+0x17f4>
   17734:	00813703          	ld	a4,8(sp)
   17738:	08e13c23          	sd	a4,152(sp)
   1773c:	e71fe06f          	j	165ac <__gdtoa+0x6d8>
   17740:	000a0513          	mv	a0,s4
   17744:	00000593          	li	a1,0
   17748:	00f13423          	sd	a5,8(sp)
   1774c:	3ed040ef          	jal	1c338 <__eqdf2>
   17750:	00813783          	ld	a5,8(sp)
   17754:	00a036b3          	snez	a3,a0
   17758:	00090713          	mv	a4,s2
   1775c:	00469b9b          	slliw	s7,a3,0x4
   17760:	03000613          	li	a2,48
   17764:	fff74683          	lbu	a3,-1(a4)
   17768:	00070913          	mv	s2,a4
   1776c:	fff70713          	addi	a4,a4,-1
   17770:	fec68ae3          	beq	a3,a2,17764 <__gdtoa+0x1890>
   17774:	09813703          	ld	a4,152(sp)
   17778:	00170c9b          	addiw	s9,a4,1
   1777c:	e65fe06f          	j	165e0 <__gdtoa+0x70c>
   17780:	00813683          	ld	a3,8(sp)
   17784:	00090713          	mv	a4,s2
   17788:	01000b93          	li	s7,16
   1778c:	08d13c23          	sd	a3,152(sp)
   17790:	fd1ff06f          	j	17760 <__gdtoa+0x188c>
   17794:	0006b703          	ld	a4,0(a3) # fffffffffcc00000 <__BSS_END__+0xfffffffffcbdf388>
   17798:	00070a13          	mv	s4,a4
   1779c:	00000713          	li	a4,0
   177a0:	d10ff06f          	j	16cb0 <__gdtoa+0xddc>
   177a4:	03900713          	li	a4,57
   177a8:	03013883          	ld	a7,48(sp)
   177ac:	05813783          	ld	a5,88(sp)
   177b0:	00090a13          	mv	s4,s2
   177b4:	000d0813          	mv	a6,s10
   177b8:	00048613          	mv	a2,s1
   177bc:	c0ea8ee3          	beq	s5,a4,173d8 <__gdtoa+0x1504>
   177c0:	001a871b          	addiw	a4,s5,1
   177c4:	00098693          	mv	a3,s3
   177c8:	00ed0023          	sb	a4,0(s10)
   177cc:	00048913          	mv	s2,s1
   177d0:	000a0993          	mv	s3,s4
   177d4:	02000b93          	li	s7,32
   177d8:	fd0ff06f          	j	16fa8 <__gdtoa+0x10d4>
   177dc:	00090613          	mv	a2,s2
   177e0:	00068493          	mv	s1,a3
   177e4:	00070913          	mv	s2,a4
   177e8:	00098693          	mv	a3,s3
   177ec:	04013703          	ld	a4,64(sp)
   177f0:	03013883          	ld	a7,48(sp)
   177f4:	05813783          	ld	a5,88(sp)
   177f8:	00060993          	mv	s3,a2
   177fc:	abdff06f          	j	172b8 <__gdtoa+0x13e4>
   17800:	00000713          	li	a4,0
   17804:	f65fe06f          	j	16768 <__gdtoa+0x894>
   17808:	04b05a63          	blez	a1,1785c <__gdtoa+0x1988>
   1780c:	00040593          	mv	a1,s0
   17810:	00100613          	li	a2,1
   17814:	000c0513          	mv	a0,s8
   17818:	02f13823          	sd	a5,48(sp)
   1781c:	01113c23          	sd	a7,24(sp)
   17820:	03013023          	sd	a6,32(sp)
   17824:	110010ef          	jal	18934 <__lshift>
   17828:	00050413          	mv	s0,a0
   1782c:	ac050c63          	beqz	a0,16b04 <__gdtoa+0xc30>
   17830:	01813583          	ld	a1,24(sp)
   17834:	290010ef          	jal	18ac4 <__mcmp>
   17838:	01813883          	ld	a7,24(sp)
   1783c:	02013803          	ld	a6,32(sp)
   17840:	03013783          	ld	a5,48(sp)
   17844:	12a05063          	blez	a0,17964 <__gdtoa+0x1a90>
   17848:	03900713          	li	a4,57
   1784c:	b8ea84e3          	beq	s5,a4,173d4 <__gdtoa+0x1500>
   17850:	03813703          	ld	a4,56(sp)
   17854:	0317091b          	addiw	s2,a4,49
   17858:	02000713          	li	a4,32
   1785c:	01442603          	lw	a2,20(s0)
   17860:	00100693          	li	a3,1
   17864:	01000b93          	li	s7,16
   17868:	f2c6c863          	blt	a3,a2,16f98 <__gdtoa+0x10c4>
   1786c:	01842683          	lw	a3,24(s0)
   17870:	f2069463          	bnez	a3,16f98 <__gdtoa+0x10c4>
   17874:	00070b93          	mv	s7,a4
   17878:	f20ff06f          	j	16f98 <__gdtoa+0x10c4>
   1787c:	02013683          	ld	a3,32(sp)
   17880:	06013583          	ld	a1,96(sp)
   17884:	fff6869b          	addiw	a3,a3,-1
   17888:	00068613          	mv	a2,a3
   1788c:	aad5c0e3          	blt	a1,a3,1732c <__gdtoa+0x1458>
   17890:	04813583          	ld	a1,72(sp)
   17894:	02013603          	ld	a2,32(sp)
   17898:	00b6063b          	addw	a2,a2,a1
   1789c:	04c13423          	sd	a2,72(sp)
   178a0:	06013603          	ld	a2,96(sp)
   178a4:	40d60a3b          	subw	s4,a2,a3
   178a8:	02013683          	ld	a3,32(sp)
   178ac:	02013603          	ld	a2,32(sp)
   178b0:	0cd12623          	sw	a3,204(sp)
   178b4:	05013683          	ld	a3,80(sp)
   178b8:	00c6893b          	addw	s2,a3,a2
   178bc:	838ff06f          	j	168f4 <__gdtoa+0xa20>
   178c0:	00098593          	mv	a1,s3
   178c4:	00000693          	li	a3,0
   178c8:	00a00613          	li	a2,10
   178cc:	000c0513          	mv	a0,s8
   178d0:	6d4000ef          	jal	17fa4 <__multadd>
   178d4:	00050993          	mv	s3,a0
   178d8:	a2050663          	beqz	a0,16b04 <__gdtoa+0xc30>
   178dc:	05813683          	ld	a3,88(sp)
   178e0:	01813703          	ld	a4,24(sp)
   178e4:	02013883          	ld	a7,32(sp)
   178e8:	03013783          	ld	a5,48(sp)
   178ec:	00d04663          	bgtz	a3,178f8 <__gdtoa+0x1a24>
   178f0:	00200693          	li	a3,2
   178f4:	9396cae3          	blt	a3,s9,17228 <__gdtoa+0x1354>
   178f8:	05813683          	ld	a3,88(sp)
   178fc:	02d13023          	sd	a3,32(sp)
   17900:	ce0ff06f          	j	16de0 <__gdtoa+0xf0c>
   17904:	04813603          	ld	a2,72(sp)
   17908:	0cd12623          	sw	a3,204(sp)
   1790c:	00c686bb          	addw	a3,a3,a2
   17910:	04d13423          	sd	a3,72(sp)
   17914:	02013603          	ld	a2,32(sp)
   17918:	05013683          	ld	a3,80(sp)
   1791c:	00c6893b          	addw	s2,a3,a2
   17920:	fd5fe06f          	j	168f4 <__gdtoa+0xa20>
   17924:	01842683          	lw	a3,24(s0)
   17928:	d80690e3          	bnez	a3,176a8 <__gdtoa+0x17d4>
   1792c:	eeb040e3          	bgtz	a1,1780c <__gdtoa+0x1938>
   17930:	e68ff06f          	j	16f98 <__gdtoa+0x10c4>
   17934:	03900713          	li	a4,57
   17938:	00098813          	mv	a6,s3
   1793c:	00048a13          	mv	s4,s1
   17940:	000b8993          	mv	s3,s7
   17944:	000a8893          	mv	a7,s5
   17948:	000c8793          	mv	a5,s9
   1794c:	a8e904e3          	beq	s2,a4,173d4 <__gdtoa+0x1500>
   17950:	0019091b          	addiw	s2,s2,1
   17954:	02000b93          	li	s7,32
   17958:	e40ff06f          	j	16f98 <__gdtoa+0x10c4>
   1795c:	01000b93          	li	s7,16
   17960:	e38ff06f          	j	16f98 <__gdtoa+0x10c4>
   17964:	00051663          	bnez	a0,17970 <__gdtoa+0x1a9c>
   17968:	001af713          	andi	a4,s5,1
   1796c:	ec071ee3          	bnez	a4,17848 <__gdtoa+0x1974>
   17970:	02000713          	li	a4,32
   17974:	ee9ff06f          	j	1785c <__gdtoa+0x1988>
   17978:	01442683          	lw	a3,20(s0)
   1797c:	00100713          	li	a4,1
   17980:	01000b93          	li	s7,16
   17984:	e0d74a63          	blt	a4,a3,16f98 <__gdtoa+0x10c4>
   17988:	01842703          	lw	a4,24(s0)
   1798c:	00e03733          	snez	a4,a4
   17990:	00471b9b          	slliw	s7,a4,0x4
   17994:	e04ff06f          	j	16f98 <__gdtoa+0x10c4>
   17998:	00813703          	ld	a4,8(sp)
   1799c:	00170c9b          	addiw	s9,a4,1
   179a0:	c41fe06f          	j	165e0 <__gdtoa+0x70c>

00000000000179a4 <__rv_alloc_D2A.part.0>:
   179a4:	0001e6b7          	lui	a3,0x1e
   179a8:	0001e537          	lui	a0,0x1e
   179ac:	ff010113          	addi	sp,sp,-16
   179b0:	32068693          	addi	a3,a3,800 # 1e320 <__clzdi2+0xd4>
   179b4:	33850513          	addi	a0,a0,824 # 1e338 <__clzdi2+0xec>
   179b8:	00000613          	li	a2,0
   179bc:	03900593          	li	a1,57
   179c0:	00113423          	sd	ra,8(sp)
   179c4:	444020ef          	jal	19e08 <__assert_func>

00000000000179c8 <__rv_alloc_D2A>:
   179c8:	ff010113          	addi	sp,sp,-16
   179cc:	00813023          	sd	s0,0(sp)
   179d0:	00113423          	sd	ra,8(sp)
   179d4:	01f00693          	li	a3,31
   179d8:	00050413          	mv	s0,a0
   179dc:	00100713          	li	a4,1
   179e0:	00400793          	li	a5,4
   179e4:	04b6f063          	bgeu	a3,a1,17a24 <__rv_alloc_D2A+0x5c>
   179e8:	0017979b          	slliw	a5,a5,0x1
   179ec:	01c78693          	addi	a3,a5,28
   179f0:	00070613          	mv	a2,a4
   179f4:	0017071b          	addiw	a4,a4,1
   179f8:	fed5f8e3          	bgeu	a1,a3,179e8 <__rv_alloc_D2A+0x20>
   179fc:	00060593          	mv	a1,a2
   17a00:	04c42c23          	sw	a2,88(s0)
   17a04:	00040513          	mv	a0,s0
   17a08:	4cc000ef          	jal	17ed4 <_Balloc>
   17a0c:	02050263          	beqz	a0,17a30 <__rv_alloc_D2A+0x68>
   17a10:	00813083          	ld	ra,8(sp)
   17a14:	04a43823          	sd	a0,80(s0)
   17a18:	00013403          	ld	s0,0(sp)
   17a1c:	01010113          	addi	sp,sp,16
   17a20:	00008067          	ret
   17a24:	04052c23          	sw	zero,88(a0)
   17a28:	00000593          	li	a1,0
   17a2c:	fd9ff06f          	j	17a04 <__rv_alloc_D2A+0x3c>
   17a30:	f75ff0ef          	jal	179a4 <__rv_alloc_D2A.part.0>

0000000000017a34 <__nrv_alloc_D2A>:
   17a34:	fd010113          	addi	sp,sp,-48
   17a38:	02813023          	sd	s0,32(sp)
   17a3c:	00913c23          	sd	s1,24(sp)
   17a40:	02113423          	sd	ra,40(sp)
   17a44:	01f00813          	li	a6,31
   17a48:	00050493          	mv	s1,a0
   17a4c:	00058413          	mv	s0,a1
   17a50:	00100713          	li	a4,1
   17a54:	00400793          	li	a5,4
   17a58:	06d87c63          	bgeu	a6,a3,17ad0 <__nrv_alloc_D2A+0x9c>
   17a5c:	0017979b          	slliw	a5,a5,0x1
   17a60:	01c78513          	addi	a0,a5,28
   17a64:	00070593          	mv	a1,a4
   17a68:	0017071b          	addiw	a4,a4,1
   17a6c:	fea6f8e3          	bgeu	a3,a0,17a5c <__nrv_alloc_D2A+0x28>
   17a70:	04b4ac23          	sw	a1,88(s1)
   17a74:	00048513          	mv	a0,s1
   17a78:	00c13423          	sd	a2,8(sp)
   17a7c:	458000ef          	jal	17ed4 <_Balloc>
   17a80:	00813603          	ld	a2,8(sp)
   17a84:	06050063          	beqz	a0,17ae4 <__nrv_alloc_D2A+0xb0>
   17a88:	04a4b823          	sd	a0,80(s1)
   17a8c:	00044783          	lbu	a5,0(s0)
   17a90:	00f50023          	sb	a5,0(a0)
   17a94:	04078463          	beqz	a5,17adc <__nrv_alloc_D2A+0xa8>
   17a98:	00140593          	addi	a1,s0,1
   17a9c:	00050793          	mv	a5,a0
   17aa0:	0005c703          	lbu	a4,0(a1)
   17aa4:	00158593          	addi	a1,a1,1
   17aa8:	00178793          	addi	a5,a5,1
   17aac:	00e78023          	sb	a4,0(a5)
   17ab0:	fe0718e3          	bnez	a4,17aa0 <__nrv_alloc_D2A+0x6c>
   17ab4:	00060463          	beqz	a2,17abc <__nrv_alloc_D2A+0x88>
   17ab8:	00f63023          	sd	a5,0(a2)
   17abc:	02813083          	ld	ra,40(sp)
   17ac0:	02013403          	ld	s0,32(sp)
   17ac4:	01813483          	ld	s1,24(sp)
   17ac8:	03010113          	addi	sp,sp,48
   17acc:	00008067          	ret
   17ad0:	04052c23          	sw	zero,88(a0)
   17ad4:	00000593          	li	a1,0
   17ad8:	f9dff06f          	j	17a74 <__nrv_alloc_D2A+0x40>
   17adc:	00050793          	mv	a5,a0
   17ae0:	fd5ff06f          	j	17ab4 <__nrv_alloc_D2A+0x80>
   17ae4:	ec1ff0ef          	jal	179a4 <__rv_alloc_D2A.part.0>

0000000000017ae8 <__freedtoa>:
   17ae8:	05852703          	lw	a4,88(a0)
   17aec:	00100793          	li	a5,1
   17af0:	00e797bb          	sllw	a5,a5,a4
   17af4:	00f5a623          	sw	a5,12(a1)
   17af8:	00e5a423          	sw	a4,8(a1)
   17afc:	4840006f          	j	17f80 <_Bfree>

0000000000017b00 <__quorem_D2A>:
   17b00:	f8010113          	addi	sp,sp,-128
   17b04:	06913423          	sd	s1,104(sp)
   17b08:	01452783          	lw	a5,20(a0)
   17b0c:	0145a483          	lw	s1,20(a1)
   17b10:	06113c23          	sd	ra,120(sp)
   17b14:	2297ca63          	blt	a5,s1,17d48 <__quorem_D2A+0x248>
   17b18:	fff4849b          	addiw	s1,s1,-1
   17b1c:	05613023          	sd	s6,64(sp)
   17b20:	03713c23          	sd	s7,56(sp)
   17b24:	00249b13          	slli	s6,s1,0x2
   17b28:	01858b93          	addi	s7,a1,24
   17b2c:	07213023          	sd	s2,96(sp)
   17b30:	05313c23          	sd	s3,88(sp)
   17b34:	016b8933          	add	s2,s7,s6
   17b38:	01850993          	addi	s3,a0,24
   17b3c:	05513423          	sd	s5,72(sp)
   17b40:	01698b33          	add	s6,s3,s6
   17b44:	00092a83          	lw	s5,0(s2)
   17b48:	03813823          	sd	s8,48(sp)
   17b4c:	000b2c03          	lw	s8,0(s6)
   17b50:	001a8a9b          	addiw	s5,s5,1
   17b54:	05413823          	sd	s4,80(sp)
   17b58:	00b13423          	sd	a1,8(sp)
   17b5c:	00050a13          	mv	s4,a0
   17b60:	020a9593          	slli	a1,s5,0x20
   17b64:	020c1513          	slli	a0,s8,0x20
   17b68:	0205d593          	srli	a1,a1,0x20
   17b6c:	02055513          	srli	a0,a0,0x20
   17b70:	06813823          	sd	s0,112(sp)
   17b74:	620060ef          	jal	1e194 <__hidden___udivdi3>
   17b78:	0005041b          	sext.w	s0,a0
   17b7c:	0f5c6463          	bltu	s8,s5,17c64 <__quorem_D2A+0x164>
   17b80:	03913423          	sd	s9,40(sp)
   17b84:	01b13c23          	sd	s11,24(sp)
   17b88:	03a13023          	sd	s10,32(sp)
   17b8c:	000b8c93          	mv	s9,s7
   17b90:	00098c13          	mv	s8,s3
   17b94:	00000a93          	li	s5,0
   17b98:	00000d93          	li	s11,0
   17b9c:	000cad03          	lw	s10,0(s9)
   17ba0:	00040593          	mv	a1,s0
   17ba4:	004c0c13          	addi	s8,s8,4
   17ba8:	030d1513          	slli	a0,s10,0x30
   17bac:	03055513          	srli	a0,a0,0x30
   17bb0:	578060ef          	jal	1e128 <__muldi3>
   17bb4:	01550abb          	addw	s5,a0,s5
   17bb8:	00040593          	mv	a1,s0
   17bbc:	010d551b          	srliw	a0,s10,0x10
   17bc0:	568060ef          	jal	1e128 <__muldi3>
   17bc4:	ffcc2783          	lw	a5,-4(s8)
   17bc8:	030a9693          	slli	a3,s5,0x30
   17bcc:	0306d693          	srli	a3,a3,0x30
   17bd0:	03079713          	slli	a4,a5,0x30
   17bd4:	03075713          	srli	a4,a4,0x30
   17bd8:	010ada9b          	srliw	s5,s5,0x10
   17bdc:	40d7073b          	subw	a4,a4,a3
   17be0:	41b7073b          	subw	a4,a4,s11
   17be4:	00aa853b          	addw	a0,s5,a0
   17be8:	02f71593          	slli	a1,a4,0x2f
   17bec:	03051613          	slli	a2,a0,0x30
   17bf0:	03065613          	srli	a2,a2,0x30
   17bf4:	03f5d693          	srli	a3,a1,0x3f
   17bf8:	00c686b3          	add	a3,a3,a2
   17bfc:	0107d79b          	srliw	a5,a5,0x10
   17c00:	40d787bb          	subw	a5,a5,a3
   17c04:	03071713          	slli	a4,a4,0x30
   17c08:	0107969b          	slliw	a3,a5,0x10
   17c0c:	03075713          	srli	a4,a4,0x30
   17c10:	00e6e733          	or	a4,a3,a4
   17c14:	004c8c93          	addi	s9,s9,4
   17c18:	0107d79b          	srliw	a5,a5,0x10
   17c1c:	feec2e23          	sw	a4,-4(s8)
   17c20:	01055a9b          	srliw	s5,a0,0x10
   17c24:	0017fd93          	andi	s11,a5,1
   17c28:	f7997ae3          	bgeu	s2,s9,17b9c <__quorem_D2A+0x9c>
   17c2c:	000b2783          	lw	a5,0(s6)
   17c30:	12079663          	bnez	a5,17d5c <__quorem_D2A+0x25c>
   17c34:	ffcb0b13          	addi	s6,s6,-4
   17c38:	0169e863          	bltu	s3,s6,17c48 <__quorem_D2A+0x148>
   17c3c:	0180006f          	j	17c54 <__quorem_D2A+0x154>
   17c40:	fff4849b          	addiw	s1,s1,-1
   17c44:	0169f863          	bgeu	s3,s6,17c54 <__quorem_D2A+0x154>
   17c48:	000b2783          	lw	a5,0(s6)
   17c4c:	ffcb0b13          	addi	s6,s6,-4
   17c50:	fe0788e3          	beqz	a5,17c40 <__quorem_D2A+0x140>
   17c54:	02813c83          	ld	s9,40(sp)
   17c58:	02013d03          	ld	s10,32(sp)
   17c5c:	01813d83          	ld	s11,24(sp)
   17c60:	009a2a23          	sw	s1,20(s4)
   17c64:	00813583          	ld	a1,8(sp)
   17c68:	000a0513          	mv	a0,s4
   17c6c:	659000ef          	jal	18ac4 <__mcmp>
   17c70:	0a054263          	bltz	a0,17d14 <__quorem_D2A+0x214>
   17c74:	0014041b          	addiw	s0,s0,1
   17c78:	00098613          	mv	a2,s3
   17c7c:	00000593          	li	a1,0
   17c80:	00062783          	lw	a5,0(a2)
   17c84:	000ba683          	lw	a3,0(s7)
   17c88:	00460613          	addi	a2,a2,4
   17c8c:	03079713          	slli	a4,a5,0x30
   17c90:	03069513          	slli	a0,a3,0x30
   17c94:	03055513          	srli	a0,a0,0x30
   17c98:	03075713          	srli	a4,a4,0x30
   17c9c:	40a7073b          	subw	a4,a4,a0
   17ca0:	40b7073b          	subw	a4,a4,a1
   17ca4:	02f71513          	slli	a0,a4,0x2f
   17ca8:	03f55593          	srli	a1,a0,0x3f
   17cac:	0106d69b          	srliw	a3,a3,0x10
   17cb0:	00d586b3          	add	a3,a1,a3
   17cb4:	0107d79b          	srliw	a5,a5,0x10
   17cb8:	40d787bb          	subw	a5,a5,a3
   17cbc:	03071713          	slli	a4,a4,0x30
   17cc0:	0107969b          	slliw	a3,a5,0x10
   17cc4:	03075713          	srli	a4,a4,0x30
   17cc8:	00e6e733          	or	a4,a3,a4
   17ccc:	004b8b93          	addi	s7,s7,4
   17cd0:	0107d79b          	srliw	a5,a5,0x10
   17cd4:	fee62e23          	sw	a4,-4(a2)
   17cd8:	0017f593          	andi	a1,a5,1
   17cdc:	fb7972e3          	bgeu	s2,s7,17c80 <__quorem_D2A+0x180>
   17ce0:	00249793          	slli	a5,s1,0x2
   17ce4:	00f987b3          	add	a5,s3,a5
   17ce8:	0007a703          	lw	a4,0(a5)
   17cec:	02071463          	bnez	a4,17d14 <__quorem_D2A+0x214>
   17cf0:	ffc78793          	addi	a5,a5,-4
   17cf4:	00f9e863          	bltu	s3,a5,17d04 <__quorem_D2A+0x204>
   17cf8:	0180006f          	j	17d10 <__quorem_D2A+0x210>
   17cfc:	fff4849b          	addiw	s1,s1,-1
   17d00:	00f9f863          	bgeu	s3,a5,17d10 <__quorem_D2A+0x210>
   17d04:	0007a703          	lw	a4,0(a5)
   17d08:	ffc78793          	addi	a5,a5,-4
   17d0c:	fe0708e3          	beqz	a4,17cfc <__quorem_D2A+0x1fc>
   17d10:	009a2a23          	sw	s1,20(s4)
   17d14:	07813083          	ld	ra,120(sp)
   17d18:	00040513          	mv	a0,s0
   17d1c:	07013403          	ld	s0,112(sp)
   17d20:	06013903          	ld	s2,96(sp)
   17d24:	05813983          	ld	s3,88(sp)
   17d28:	05013a03          	ld	s4,80(sp)
   17d2c:	04813a83          	ld	s5,72(sp)
   17d30:	04013b03          	ld	s6,64(sp)
   17d34:	03813b83          	ld	s7,56(sp)
   17d38:	03013c03          	ld	s8,48(sp)
   17d3c:	06813483          	ld	s1,104(sp)
   17d40:	08010113          	addi	sp,sp,128
   17d44:	00008067          	ret
   17d48:	07813083          	ld	ra,120(sp)
   17d4c:	06813483          	ld	s1,104(sp)
   17d50:	00000513          	li	a0,0
   17d54:	08010113          	addi	sp,sp,128
   17d58:	00008067          	ret
   17d5c:	00813583          	ld	a1,8(sp)
   17d60:	000a0513          	mv	a0,s4
   17d64:	02813c83          	ld	s9,40(sp)
   17d68:	02013d03          	ld	s10,32(sp)
   17d6c:	01813d83          	ld	s11,24(sp)
   17d70:	555000ef          	jal	18ac4 <__mcmp>
   17d74:	f00550e3          	bgez	a0,17c74 <__quorem_D2A+0x174>
   17d78:	f9dff06f          	j	17d14 <__quorem_D2A+0x214>

0000000000017d7c <__rshift_D2A>:
   17d7c:	01452683          	lw	a3,20(a0)
   17d80:	4055d31b          	sraiw	t1,a1,0x5
   17d84:	00d34863          	blt	t1,a3,17d94 <__rshift_D2A+0x18>
   17d88:	00052a23          	sw	zero,20(a0)
   17d8c:	00052c23          	sw	zero,24(a0)
   17d90:	00008067          	ret
   17d94:	01850e13          	addi	t3,a0,24
   17d98:	00269813          	slli	a6,a3,0x2
   17d9c:	00231793          	slli	a5,t1,0x2
   17da0:	01f5f593          	andi	a1,a1,31
   17da4:	010e0833          	add	a6,t3,a6
   17da8:	00fe07b3          	add	a5,t3,a5
   17dac:	06058463          	beqz	a1,17e14 <__rshift_D2A+0x98>
   17db0:	0007a603          	lw	a2,0(a5)
   17db4:	00478793          	addi	a5,a5,4
   17db8:	00b6563b          	srlw	a2,a2,a1
   17dbc:	0907fc63          	bgeu	a5,a6,17e54 <__rshift_D2A+0xd8>
   17dc0:	02000e93          	li	t4,32
   17dc4:	40be8ebb          	subw	t4,t4,a1
   17dc8:	000e0893          	mv	a7,t3
   17dcc:	0007a703          	lw	a4,0(a5)
   17dd0:	00488893          	addi	a7,a7,4
   17dd4:	00478793          	addi	a5,a5,4
   17dd8:	01d7173b          	sllw	a4,a4,t4
   17ddc:	00c76733          	or	a4,a4,a2
   17de0:	fee8ae23          	sw	a4,-4(a7)
   17de4:	ffc7a603          	lw	a2,-4(a5)
   17de8:	00b6563b          	srlw	a2,a2,a1
   17dec:	ff07e0e3          	bltu	a5,a6,17dcc <__rshift_D2A+0x50>
   17df0:	406687b3          	sub	a5,a3,t1
   17df4:	00279793          	slli	a5,a5,0x2
   17df8:	ff878793          	addi	a5,a5,-8
   17dfc:	004e0713          	addi	a4,t3,4
   17e00:	00e787b3          	add	a5,a5,a4
   17e04:	00c7a023          	sw	a2,0(a5)
   17e08:	02060a63          	beqz	a2,17e3c <__rshift_D2A+0xc0>
   17e0c:	00478793          	addi	a5,a5,4
   17e10:	02c0006f          	j	17e3c <__rshift_D2A+0xc0>
   17e14:	000e0713          	mv	a4,t3
   17e18:	f707f8e3          	bgeu	a5,a6,17d88 <__rshift_D2A+0xc>
   17e1c:	0007a603          	lw	a2,0(a5)
   17e20:	00478793          	addi	a5,a5,4
   17e24:	00470713          	addi	a4,a4,4
   17e28:	fec72e23          	sw	a2,-4(a4)
   17e2c:	ff07e8e3          	bltu	a5,a6,17e1c <__rshift_D2A+0xa0>
   17e30:	406687b3          	sub	a5,a3,t1
   17e34:	00279793          	slli	a5,a5,0x2
   17e38:	01c787b3          	add	a5,a5,t3
   17e3c:	41c787b3          	sub	a5,a5,t3
   17e40:	4027d793          	srai	a5,a5,0x2
   17e44:	0007879b          	sext.w	a5,a5
   17e48:	00f52a23          	sw	a5,20(a0)
   17e4c:	f40780e3          	beqz	a5,17d8c <__rshift_D2A+0x10>
   17e50:	00008067          	ret
   17e54:	00c52c23          	sw	a2,24(a0)
   17e58:	000e0793          	mv	a5,t3
   17e5c:	f20606e3          	beqz	a2,17d88 <__rshift_D2A+0xc>
   17e60:	00478793          	addi	a5,a5,4
   17e64:	fd9ff06f          	j	17e3c <__rshift_D2A+0xc0>

0000000000017e68 <__trailz_D2A>:
   17e68:	01452683          	lw	a3,20(a0)
   17e6c:	01850513          	addi	a0,a0,24
   17e70:	00000793          	li	a5,0
   17e74:	00269693          	slli	a3,a3,0x2
   17e78:	00d506b3          	add	a3,a0,a3
   17e7c:	00d56a63          	bltu	a0,a3,17e90 <__trailz_D2A+0x28>
   17e80:	04c0006f          	j	17ecc <__trailz_D2A+0x64>
   17e84:	00450513          	addi	a0,a0,4
   17e88:	0207879b          	addiw	a5,a5,32
   17e8c:	04d57063          	bgeu	a0,a3,17ecc <__trailz_D2A+0x64>
   17e90:	00052703          	lw	a4,0(a0)
   17e94:	fe0708e3          	beqz	a4,17e84 <__trailz_D2A+0x1c>
   17e98:	02d57a63          	bgeu	a0,a3,17ecc <__trailz_D2A+0x64>
   17e9c:	fd010113          	addi	sp,sp,-48
   17ea0:	01c10513          	addi	a0,sp,28
   17ea4:	02113423          	sd	ra,40(sp)
   17ea8:	00f13423          	sd	a5,8(sp)
   17eac:	00e12e23          	sw	a4,28(sp)
   17eb0:	448000ef          	jal	182f8 <__lo0bits>
   17eb4:	00813783          	ld	a5,8(sp)
   17eb8:	02813083          	ld	ra,40(sp)
   17ebc:	00f507bb          	addw	a5,a0,a5
   17ec0:	00078513          	mv	a0,a5
   17ec4:	03010113          	addi	sp,sp,48
   17ec8:	00008067          	ret
   17ecc:	00078513          	mv	a0,a5
   17ed0:	00008067          	ret

0000000000017ed4 <_Balloc>:
   17ed4:	06853783          	ld	a5,104(a0)
   17ed8:	fe010113          	addi	sp,sp,-32
   17edc:	00113c23          	sd	ra,24(sp)
   17ee0:	00050713          	mv	a4,a0
   17ee4:	00058693          	mv	a3,a1
   17ee8:	02078663          	beqz	a5,17f14 <_Balloc+0x40>
   17eec:	00369613          	slli	a2,a3,0x3
   17ef0:	00c787b3          	add	a5,a5,a2
   17ef4:	0007b503          	ld	a0,0(a5)
   17ef8:	04050663          	beqz	a0,17f44 <_Balloc+0x70>
   17efc:	00053703          	ld	a4,0(a0)
   17f00:	00e7b023          	sd	a4,0(a5)
   17f04:	00053823          	sd	zero,16(a0)
   17f08:	01813083          	ld	ra,24(sp)
   17f0c:	02010113          	addi	sp,sp,32
   17f10:	00008067          	ret
   17f14:	00b13423          	sd	a1,8(sp)
   17f18:	04100613          	li	a2,65
   17f1c:	00800593          	li	a1,8
   17f20:	00a13023          	sd	a0,0(sp)
   17f24:	749010ef          	jal	19e6c <_calloc_r>
   17f28:	00013703          	ld	a4,0(sp)
   17f2c:	00813683          	ld	a3,8(sp)
   17f30:	00050793          	mv	a5,a0
   17f34:	06a73423          	sd	a0,104(a4)
   17f38:	fa051ae3          	bnez	a0,17eec <_Balloc+0x18>
   17f3c:	00000513          	li	a0,0
   17f40:	fc9ff06f          	j	17f08 <_Balloc+0x34>
   17f44:	00100793          	li	a5,1
   17f48:	00d797bb          	sllw	a5,a5,a3
   17f4c:	00279613          	slli	a2,a5,0x2
   17f50:	00070513          	mv	a0,a4
   17f54:	01c60613          	addi	a2,a2,28
   17f58:	00100593          	li	a1,1
   17f5c:	00d13423          	sd	a3,8(sp)
   17f60:	00f13023          	sd	a5,0(sp)
   17f64:	709010ef          	jal	19e6c <_calloc_r>
   17f68:	fc050ae3          	beqz	a0,17f3c <_Balloc+0x68>
   17f6c:	00813683          	ld	a3,8(sp)
   17f70:	00013783          	ld	a5,0(sp)
   17f74:	00d52423          	sw	a3,8(a0)
   17f78:	00f52623          	sw	a5,12(a0)
   17f7c:	f89ff06f          	j	17f04 <_Balloc+0x30>

0000000000017f80 <_Bfree>:
   17f80:	02058063          	beqz	a1,17fa0 <_Bfree+0x20>
   17f84:	0085a703          	lw	a4,8(a1)
   17f88:	06853783          	ld	a5,104(a0)
   17f8c:	00371713          	slli	a4,a4,0x3
   17f90:	00e787b3          	add	a5,a5,a4
   17f94:	0007b703          	ld	a4,0(a5)
   17f98:	00e5b023          	sd	a4,0(a1)
   17f9c:	00b7b023          	sd	a1,0(a5)
   17fa0:	00008067          	ret

0000000000017fa4 <__multadd>:
   17fa4:	fb010113          	addi	sp,sp,-80
   17fa8:	03313423          	sd	s3,40(sp)
   17fac:	0145a983          	lw	s3,20(a1)
   17fb0:	04813023          	sd	s0,64(sp)
   17fb4:	02913c23          	sd	s1,56(sp)
   17fb8:	03213823          	sd	s2,48(sp)
   17fbc:	03413023          	sd	s4,32(sp)
   17fc0:	01513c23          	sd	s5,24(sp)
   17fc4:	01713423          	sd	s7,8(sp)
   17fc8:	04113423          	sd	ra,72(sp)
   17fcc:	01613823          	sd	s6,16(sp)
   17fd0:	00058a13          	mv	s4,a1
   17fd4:	00068413          	mv	s0,a3
   17fd8:	00050b93          	mv	s7,a0
   17fdc:	00060913          	mv	s2,a2
   17fe0:	01858493          	addi	s1,a1,24
   17fe4:	00000a93          	li	s5,0
   17fe8:	0004ab03          	lw	s6,0(s1)
   17fec:	00090593          	mv	a1,s2
   17ff0:	00448493          	addi	s1,s1,4
   17ff4:	030b1513          	slli	a0,s6,0x30
   17ff8:	03055513          	srli	a0,a0,0x30
   17ffc:	12c060ef          	jal	1e128 <__muldi3>
   18000:	0085043b          	addw	s0,a0,s0
   18004:	00090593          	mv	a1,s2
   18008:	010b551b          	srliw	a0,s6,0x10
   1800c:	11c060ef          	jal	1e128 <__muldi3>
   18010:	0104569b          	srliw	a3,s0,0x10
   18014:	00a6853b          	addw	a0,a3,a0
   18018:	03041413          	slli	s0,s0,0x30
   1801c:	03045413          	srli	s0,s0,0x30
   18020:	0105179b          	slliw	a5,a0,0x10
   18024:	008787bb          	addw	a5,a5,s0
   18028:	001a8a9b          	addiw	s5,s5,1
   1802c:	fef4ae23          	sw	a5,-4(s1)
   18030:	0105541b          	srliw	s0,a0,0x10
   18034:	fb3acae3          	blt	s5,s3,17fe8 <__multadd+0x44>
   18038:	02040063          	beqz	s0,18058 <__multadd+0xb4>
   1803c:	00ca2783          	lw	a5,12(s4)
   18040:	04f9d463          	bge	s3,a5,18088 <__multadd+0xe4>
   18044:	00299793          	slli	a5,s3,0x2
   18048:	00fa07b3          	add	a5,s4,a5
   1804c:	0087ac23          	sw	s0,24(a5)
   18050:	0019899b          	addiw	s3,s3,1
   18054:	013a2a23          	sw	s3,20(s4)
   18058:	04813083          	ld	ra,72(sp)
   1805c:	04013403          	ld	s0,64(sp)
   18060:	03813483          	ld	s1,56(sp)
   18064:	03013903          	ld	s2,48(sp)
   18068:	02813983          	ld	s3,40(sp)
   1806c:	01813a83          	ld	s5,24(sp)
   18070:	01013b03          	ld	s6,16(sp)
   18074:	00813b83          	ld	s7,8(sp)
   18078:	000a0513          	mv	a0,s4
   1807c:	02013a03          	ld	s4,32(sp)
   18080:	05010113          	addi	sp,sp,80
   18084:	00008067          	ret
   18088:	008a2583          	lw	a1,8(s4)
   1808c:	000b8513          	mv	a0,s7
   18090:	0015859b          	addiw	a1,a1,1
   18094:	e41ff0ef          	jal	17ed4 <_Balloc>
   18098:	00050493          	mv	s1,a0
   1809c:	04050a63          	beqz	a0,180f0 <__multadd+0x14c>
   180a0:	014a2603          	lw	a2,20(s4)
   180a4:	010a0593          	addi	a1,s4,16
   180a8:	01050513          	addi	a0,a0,16
   180ac:	00261613          	slli	a2,a2,0x2
   180b0:	00860613          	addi	a2,a2,8
   180b4:	f7cfd0ef          	jal	15830 <memcpy>
   180b8:	008a2703          	lw	a4,8(s4)
   180bc:	068bb783          	ld	a5,104(s7)
   180c0:	00371713          	slli	a4,a4,0x3
   180c4:	00e787b3          	add	a5,a5,a4
   180c8:	0007b703          	ld	a4,0(a5)
   180cc:	00ea3023          	sd	a4,0(s4)
   180d0:	0147b023          	sd	s4,0(a5)
   180d4:	00048a13          	mv	s4,s1
   180d8:	00299793          	slli	a5,s3,0x2
   180dc:	00fa07b3          	add	a5,s4,a5
   180e0:	0087ac23          	sw	s0,24(a5)
   180e4:	0019899b          	addiw	s3,s3,1
   180e8:	013a2a23          	sw	s3,20(s4)
   180ec:	f6dff06f          	j	18058 <__multadd+0xb4>
   180f0:	0001e6b7          	lui	a3,0x1e
   180f4:	0001e537          	lui	a0,0x1e
   180f8:	32068693          	addi	a3,a3,800 # 1e320 <__clzdi2+0xd4>
   180fc:	38850513          	addi	a0,a0,904 # 1e388 <__clzdi2+0x13c>
   18100:	00000613          	li	a2,0
   18104:	0ba00593          	li	a1,186
   18108:	501010ef          	jal	19e08 <__assert_func>

000000000001810c <__s2b>:
   1810c:	fc010113          	addi	sp,sp,-64
   18110:	02813823          	sd	s0,48(sp)
   18114:	03213023          	sd	s2,32(sp)
   18118:	01313c23          	sd	s3,24(sp)
   1811c:	01413823          	sd	s4,16(sp)
   18120:	01513423          	sd	s5,8(sp)
   18124:	02113c23          	sd	ra,56(sp)
   18128:	00900793          	li	a5,9
   1812c:	00068993          	mv	s3,a3
   18130:	00060a13          	mv	s4,a2
   18134:	00050913          	mv	s2,a0
   18138:	00058a93          	mv	s5,a1
   1813c:	00070413          	mv	s0,a4
   18140:	10d7d463          	bge	a5,a3,18248 <__s2b+0x13c>
   18144:	00078593          	mv	a1,a5
   18148:	0086851b          	addiw	a0,a3,8
   1814c:	040060ef          	jal	1e18c <__divdi3>
   18150:	0005051b          	sext.w	a0,a0
   18154:	00100793          	li	a5,1
   18158:	00000593          	li	a1,0
   1815c:	0017979b          	slliw	a5,a5,0x1
   18160:	0015859b          	addiw	a1,a1,1
   18164:	fea7cce3          	blt	a5,a0,1815c <__s2b+0x50>
   18168:	00090513          	mv	a0,s2
   1816c:	d69ff0ef          	jal	17ed4 <_Balloc>
   18170:	02913423          	sd	s1,40(sp)
   18174:	00050593          	mv	a1,a0
   18178:	0c050c63          	beqz	a0,18250 <__s2b+0x144>
   1817c:	00100793          	li	a5,1
   18180:	00f52a23          	sw	a5,20(a0)
   18184:	00852c23          	sw	s0,24(a0)
   18188:	00900793          	li	a5,9
   1818c:	0b47d863          	bge	a5,s4,1823c <__s2b+0x130>
   18190:	ff6a071b          	addiw	a4,s4,-10
   18194:	020a1793          	slli	a5,s4,0x20
   18198:	009a8413          	addi	s0,s5,9
   1819c:	01613023          	sd	s6,0(sp)
   181a0:	0207d793          	srli	a5,a5,0x20
   181a4:	02071b13          	slli	s6,a4,0x20
   181a8:	020b5b13          	srli	s6,s6,0x20
   181ac:	00fa8ab3          	add	s5,s5,a5
   181b0:	00040493          	mv	s1,s0
   181b4:	0004c683          	lbu	a3,0(s1)
   181b8:	00a00613          	li	a2,10
   181bc:	00090513          	mv	a0,s2
   181c0:	fd06869b          	addiw	a3,a3,-48
   181c4:	00148493          	addi	s1,s1,1
   181c8:	dddff0ef          	jal	17fa4 <__multadd>
   181cc:	00050593          	mv	a1,a0
   181d0:	fe9a92e3          	bne	s5,s1,181b4 <__s2b+0xa8>
   181d4:	01640433          	add	s0,s0,s6
   181d8:	00013b03          	ld	s6,0(sp)
   181dc:	00240413          	addi	s0,s0,2
   181e0:	033a5a63          	bge	s4,s3,18214 <__s2b+0x108>
   181e4:	414984bb          	subw	s1,s3,s4
   181e8:	02049493          	slli	s1,s1,0x20
   181ec:	0204d493          	srli	s1,s1,0x20
   181f0:	009404b3          	add	s1,s0,s1
   181f4:	00044683          	lbu	a3,0(s0)
   181f8:	00a00613          	li	a2,10
   181fc:	00090513          	mv	a0,s2
   18200:	fd06869b          	addiw	a3,a3,-48
   18204:	00140413          	addi	s0,s0,1
   18208:	d9dff0ef          	jal	17fa4 <__multadd>
   1820c:	00050593          	mv	a1,a0
   18210:	fe9412e3          	bne	s0,s1,181f4 <__s2b+0xe8>
   18214:	03813083          	ld	ra,56(sp)
   18218:	03013403          	ld	s0,48(sp)
   1821c:	02813483          	ld	s1,40(sp)
   18220:	02013903          	ld	s2,32(sp)
   18224:	01813983          	ld	s3,24(sp)
   18228:	01013a03          	ld	s4,16(sp)
   1822c:	00813a83          	ld	s5,8(sp)
   18230:	00058513          	mv	a0,a1
   18234:	04010113          	addi	sp,sp,64
   18238:	00008067          	ret
   1823c:	00aa8413          	addi	s0,s5,10
   18240:	00078a13          	mv	s4,a5
   18244:	f9dff06f          	j	181e0 <__s2b+0xd4>
   18248:	00000593          	li	a1,0
   1824c:	f1dff06f          	j	18168 <__s2b+0x5c>
   18250:	0001e6b7          	lui	a3,0x1e
   18254:	0001e537          	lui	a0,0x1e
   18258:	32068693          	addi	a3,a3,800 # 1e320 <__clzdi2+0xd4>
   1825c:	38850513          	addi	a0,a0,904 # 1e388 <__clzdi2+0x13c>
   18260:	00000613          	li	a2,0
   18264:	0d300593          	li	a1,211
   18268:	01613023          	sd	s6,0(sp)
   1826c:	39d010ef          	jal	19e08 <__assert_func>

0000000000018270 <__hi0bits>:
   18270:	00050793          	mv	a5,a0
   18274:	00010737          	lui	a4,0x10
   18278:	00000513          	li	a0,0
   1827c:	00e7f663          	bgeu	a5,a4,18288 <__hi0bits+0x18>
   18280:	0107979b          	slliw	a5,a5,0x10
   18284:	01000513          	li	a0,16
   18288:	01000737          	lui	a4,0x1000
   1828c:	00e7f663          	bgeu	a5,a4,18298 <__hi0bits+0x28>
   18290:	0085051b          	addiw	a0,a0,8
   18294:	0087979b          	slliw	a5,a5,0x8
   18298:	10000737          	lui	a4,0x10000
   1829c:	00e7ee63          	bltu	a5,a4,182b8 <__hi0bits+0x48>
   182a0:	40000737          	lui	a4,0x40000
   182a4:	02e7fe63          	bgeu	a5,a4,182e0 <__hi0bits+0x70>
   182a8:	02279713          	slli	a4,a5,0x22
   182ac:	04074263          	bltz	a4,182f0 <__hi0bits+0x80>
   182b0:	0035051b          	addiw	a0,a0,3
   182b4:	00008067          	ret
   182b8:	0047971b          	slliw	a4,a5,0x4
   182bc:	400006b7          	lui	a3,0x40000
   182c0:	0045051b          	addiw	a0,a0,4
   182c4:	02d77063          	bgeu	a4,a3,182e4 <__hi0bits+0x74>
   182c8:	0067979b          	slliw	a5,a5,0x6
   182cc:	0207c263          	bltz	a5,182f0 <__hi0bits+0x80>
   182d0:	00d7f7b3          	and	a5,a5,a3
   182d4:	fc079ee3          	bnez	a5,182b0 <__hi0bits+0x40>
   182d8:	02000513          	li	a0,32
   182dc:	00008067          	ret
   182e0:	00078713          	mv	a4,a5
   182e4:	fe074ce3          	bltz	a4,182dc <__hi0bits+0x6c>
   182e8:	0015051b          	addiw	a0,a0,1
   182ec:	00008067          	ret
   182f0:	0025051b          	addiw	a0,a0,2
   182f4:	00008067          	ret

00000000000182f8 <__lo0bits>:
   182f8:	00052783          	lw	a5,0(a0)
   182fc:	0077f713          	andi	a4,a5,7
   18300:	00078693          	mv	a3,a5
   18304:	02070663          	beqz	a4,18330 <__lo0bits+0x38>
   18308:	0017f693          	andi	a3,a5,1
   1830c:	00000713          	li	a4,0
   18310:	00069c63          	bnez	a3,18328 <__lo0bits+0x30>
   18314:	0027f713          	andi	a4,a5,2
   18318:	0a070e63          	beqz	a4,183d4 <__lo0bits+0xdc>
   1831c:	0017d79b          	srliw	a5,a5,0x1
   18320:	00f52023          	sw	a5,0(a0)
   18324:	00100713          	li	a4,1
   18328:	00070513          	mv	a0,a4
   1832c:	00008067          	ret
   18330:	03079713          	slli	a4,a5,0x30
   18334:	03075713          	srli	a4,a4,0x30
   18338:	04071463          	bnez	a4,18380 <__lo0bits+0x88>
   1833c:	0107d79b          	srliw	a5,a5,0x10
   18340:	0ff7f693          	zext.b	a3,a5
   18344:	01000713          	li	a4,16
   18348:	00069663          	bnez	a3,18354 <__lo0bits+0x5c>
   1834c:	01800713          	li	a4,24
   18350:	0087d79b          	srliw	a5,a5,0x8
   18354:	00f7f693          	andi	a3,a5,15
   18358:	06068263          	beqz	a3,183bc <__lo0bits+0xc4>
   1835c:	0037f693          	andi	a3,a5,3
   18360:	04068063          	beqz	a3,183a0 <__lo0bits+0xa8>
   18364:	0017f693          	andi	a3,a5,1
   18368:	00069663          	bnez	a3,18374 <__lo0bits+0x7c>
   1836c:	0017071b          	addiw	a4,a4,1 # 40000001 <__BSS_END__+0x3ffdf389>
   18370:	0017d79b          	srliw	a5,a5,0x1
   18374:	00f52023          	sw	a5,0(a0)
   18378:	00070513          	mv	a0,a4
   1837c:	00008067          	ret
   18380:	0ff7f713          	zext.b	a4,a5
   18384:	04070263          	beqz	a4,183c8 <__lo0bits+0xd0>
   18388:	00f6f693          	andi	a3,a3,15
   1838c:	06069663          	bnez	a3,183f8 <__lo0bits+0x100>
   18390:	00400713          	li	a4,4
   18394:	0047d79b          	srliw	a5,a5,0x4
   18398:	0037f693          	andi	a3,a5,3
   1839c:	fc0694e3          	bnez	a3,18364 <__lo0bits+0x6c>
   183a0:	0027d69b          	srliw	a3,a5,0x2
   183a4:	0016f613          	andi	a2,a3,1
   183a8:	04060063          	beqz	a2,183e8 <__lo0bits+0xf0>
   183ac:	00068793          	mv	a5,a3
   183b0:	0027071b          	addiw	a4,a4,2
   183b4:	00f52023          	sw	a5,0(a0)
   183b8:	fc1ff06f          	j	18378 <__lo0bits+0x80>
   183bc:	0047071b          	addiw	a4,a4,4
   183c0:	0047d79b          	srliw	a5,a5,0x4
   183c4:	fd5ff06f          	j	18398 <__lo0bits+0xa0>
   183c8:	00800713          	li	a4,8
   183cc:	0087d79b          	srliw	a5,a5,0x8
   183d0:	f85ff06f          	j	18354 <__lo0bits+0x5c>
   183d4:	0027d79b          	srliw	a5,a5,0x2
   183d8:	00200713          	li	a4,2
   183dc:	00f52023          	sw	a5,0(a0)
   183e0:	00070513          	mv	a0,a4
   183e4:	00008067          	ret
   183e8:	0037d79b          	srliw	a5,a5,0x3
   183ec:	00079e63          	bnez	a5,18408 <__lo0bits+0x110>
   183f0:	02000713          	li	a4,32
   183f4:	f35ff06f          	j	18328 <__lo0bits+0x30>
   183f8:	0037d79b          	srliw	a5,a5,0x3
   183fc:	00300713          	li	a4,3
   18400:	00f52023          	sw	a5,0(a0)
   18404:	f75ff06f          	j	18378 <__lo0bits+0x80>
   18408:	0037071b          	addiw	a4,a4,3
   1840c:	00f52023          	sw	a5,0(a0)
   18410:	f69ff06f          	j	18378 <__lo0bits+0x80>

0000000000018414 <__i2b>:
   18414:	06853783          	ld	a5,104(a0)
   18418:	fe010113          	addi	sp,sp,-32
   1841c:	00113c23          	sd	ra,24(sp)
   18420:	00050713          	mv	a4,a0
   18424:	00058693          	mv	a3,a1
   18428:	02078863          	beqz	a5,18458 <__i2b+0x44>
   1842c:	0087b503          	ld	a0,8(a5)
   18430:	06050663          	beqz	a0,1849c <__i2b+0x88>
   18434:	00053703          	ld	a4,0(a0)
   18438:	01813083          	ld	ra,24(sp)
   1843c:	00e7b423          	sd	a4,8(a5)
   18440:	00100793          	li	a5,1
   18444:	02079793          	slli	a5,a5,0x20
   18448:	00d52c23          	sw	a3,24(a0)
   1844c:	00f53823          	sd	a5,16(a0)
   18450:	02010113          	addi	sp,sp,32
   18454:	00008067          	ret
   18458:	00b13423          	sd	a1,8(sp)
   1845c:	04100613          	li	a2,65
   18460:	00800593          	li	a1,8
   18464:	00a13023          	sd	a0,0(sp)
   18468:	205010ef          	jal	19e6c <_calloc_r>
   1846c:	00013703          	ld	a4,0(sp)
   18470:	00813683          	ld	a3,8(sp)
   18474:	00050793          	mv	a5,a0
   18478:	06a73423          	sd	a0,104(a4)
   1847c:	fa0518e3          	bnez	a0,1842c <__i2b+0x18>
   18480:	0001e6b7          	lui	a3,0x1e
   18484:	0001e537          	lui	a0,0x1e
   18488:	32068693          	addi	a3,a3,800 # 1e320 <__clzdi2+0xd4>
   1848c:	38850513          	addi	a0,a0,904 # 1e388 <__clzdi2+0x13c>
   18490:	00000613          	li	a2,0
   18494:	14500593          	li	a1,325
   18498:	171010ef          	jal	19e08 <__assert_func>
   1849c:	00070513          	mv	a0,a4
   184a0:	02400613          	li	a2,36
   184a4:	00100593          	li	a1,1
   184a8:	00d13023          	sd	a3,0(sp)
   184ac:	1c1010ef          	jal	19e6c <_calloc_r>
   184b0:	fc0508e3          	beqz	a0,18480 <__i2b+0x6c>
   184b4:	00100793          	li	a5,1
   184b8:	02179793          	slli	a5,a5,0x21
   184bc:	00013683          	ld	a3,0(sp)
   184c0:	00178793          	addi	a5,a5,1
   184c4:	01813083          	ld	ra,24(sp)
   184c8:	00f53423          	sd	a5,8(a0)
   184cc:	00100793          	li	a5,1
   184d0:	02079793          	slli	a5,a5,0x20
   184d4:	00d52c23          	sw	a3,24(a0)
   184d8:	00f53823          	sd	a5,16(a0)
   184dc:	02010113          	addi	sp,sp,32
   184e0:	00008067          	ret

00000000000184e4 <__multiply>:
   184e4:	f6010113          	addi	sp,sp,-160
   184e8:	08913423          	sd	s1,136(sp)
   184ec:	07613023          	sd	s6,96(sp)
   184f0:	01462483          	lw	s1,20(a2)
   184f4:	0145ab03          	lw	s6,20(a1)
   184f8:	08813823          	sd	s0,144(sp)
   184fc:	09213023          	sd	s2,128(sp)
   18500:	08113c23          	sd	ra,152(sp)
   18504:	07513423          	sd	s5,104(sp)
   18508:	00058913          	mv	s2,a1
   1850c:	00060413          	mv	s0,a2
   18510:	009b4c63          	blt	s6,s1,18528 <__multiply+0x44>
   18514:	00048713          	mv	a4,s1
   18518:	00058413          	mv	s0,a1
   1851c:	000b0493          	mv	s1,s6
   18520:	00060913          	mv	s2,a2
   18524:	00070b13          	mv	s6,a4
   18528:	00c42783          	lw	a5,12(s0)
   1852c:	0164873b          	addw	a4,s1,s6
   18530:	02e13423          	sd	a4,40(sp)
   18534:	00842583          	lw	a1,8(s0)
   18538:	00070a93          	mv	s5,a4
   1853c:	00e7d463          	bge	a5,a4,18544 <__multiply+0x60>
   18540:	0015859b          	addiw	a1,a1,1
   18544:	991ff0ef          	jal	17ed4 <_Balloc>
   18548:	00a13c23          	sd	a0,24(sp)
   1854c:	07313c23          	sd	s3,120(sp)
   18550:	07413823          	sd	s4,112(sp)
   18554:	24050263          	beqz	a0,18798 <__multiply+0x2b4>
   18558:	01813783          	ld	a5,24(sp)
   1855c:	01878a13          	addi	s4,a5,24
   18560:	016487bb          	addw	a5,s1,s6
   18564:	00279993          	slli	s3,a5,0x2
   18568:	013a09b3          	add	s3,s4,s3
   1856c:	000a0793          	mv	a5,s4
   18570:	013a7863          	bgeu	s4,s3,18580 <__multiply+0x9c>
   18574:	0007a023          	sw	zero,0(a5)
   18578:	00478793          	addi	a5,a5,4
   1857c:	ff37ece3          	bltu	a5,s3,18574 <__multiply+0x90>
   18580:	01890913          	addi	s2,s2,24
   18584:	002b1b13          	slli	s6,s6,0x2
   18588:	01690b33          	add	s6,s2,s6
   1858c:	1b697c63          	bgeu	s2,s6,18744 <__multiply+0x260>
   18590:	01840793          	addi	a5,s0,24
   18594:	00249493          	slli	s1,s1,0x2
   18598:	009784b3          	add	s1,a5,s1
   1859c:	05713c23          	sd	s7,88(sp)
   185a0:	01940b93          	addi	s7,s0,25
   185a4:	0174bbb3          	sltu	s7,s1,s7
   185a8:	00f13423          	sd	a5,8(sp)
   185ac:	40848433          	sub	s0,s1,s0
   185b0:	001bc793          	xori	a5,s7,1
   185b4:	00f13823          	sd	a5,16(sp)
   185b8:	fe740793          	addi	a5,s0,-25
   185bc:	05813823          	sd	s8,80(sp)
   185c0:	05913423          	sd	s9,72(sp)
   185c4:	05a13023          	sd	s10,64(sp)
   185c8:	03b13c23          	sd	s11,56(sp)
   185cc:	02f13023          	sd	a5,32(sp)
   185d0:	0180006f          	j	185e8 <__multiply+0x104>
   185d4:	0104541b          	srliw	s0,s0,0x10
   185d8:	0a041e63          	bnez	s0,18694 <__multiply+0x1b0>
   185dc:	00490913          	addi	s2,s2,4
   185e0:	004a0a13          	addi	s4,s4,4
   185e4:	15697663          	bgeu	s2,s6,18730 <__multiply+0x24c>
   185e8:	00092403          	lw	s0,0(s2)
   185ec:	03041d93          	slli	s11,s0,0x30
   185f0:	030ddd93          	srli	s11,s11,0x30
   185f4:	fe0d80e3          	beqz	s11,185d4 <__multiply+0xf0>
   185f8:	00813c03          	ld	s8,8(sp)
   185fc:	000a0c93          	mv	s9,s4
   18600:	00000b93          	li	s7,0
   18604:	000c2d03          	lw	s10,0(s8)
   18608:	000ca403          	lw	s0,0(s9)
   1860c:	000d8593          	mv	a1,s11
   18610:	030d1513          	slli	a0,s10,0x30
   18614:	03055513          	srli	a0,a0,0x30
   18618:	311050ef          	jal	1e128 <__muldi3>
   1861c:	03041893          	slli	a7,s0,0x30
   18620:	0308d893          	srli	a7,a7,0x30
   18624:	011507bb          	addw	a5,a0,a7
   18628:	000d8593          	mv	a1,s11
   1862c:	010d551b          	srliw	a0,s10,0x10
   18630:	01778bbb          	addw	s7,a5,s7
   18634:	0104541b          	srliw	s0,s0,0x10
   18638:	2f1050ef          	jal	1e128 <__muldi3>
   1863c:	010bd71b          	srliw	a4,s7,0x10
   18640:	00a4043b          	addw	s0,s0,a0
   18644:	030b9793          	slli	a5,s7,0x30
   18648:	0087073b          	addw	a4,a4,s0
   1864c:	0307d793          	srli	a5,a5,0x30
   18650:	0107159b          	slliw	a1,a4,0x10
   18654:	004c8c93          	addi	s9,s9,4
   18658:	00f5e7b3          	or	a5,a1,a5
   1865c:	004c0c13          	addi	s8,s8,4
   18660:	fefcae23          	sw	a5,-4(s9)
   18664:	01075b9b          	srliw	s7,a4,0x10
   18668:	f89c6ee3          	bltu	s8,s1,18604 <__multiply+0x120>
   1866c:	01013703          	ld	a4,16(sp)
   18670:	00000793          	li	a5,0
   18674:	00070663          	beqz	a4,18680 <__multiply+0x19c>
   18678:	02013783          	ld	a5,32(sp)
   1867c:	ffc7f793          	andi	a5,a5,-4
   18680:	00fa07b3          	add	a5,s4,a5
   18684:	0177a223          	sw	s7,4(a5)
   18688:	00092403          	lw	s0,0(s2)
   1868c:	0104541b          	srliw	s0,s0,0x10
   18690:	f40406e3          	beqz	s0,185dc <__multiply+0xf8>
   18694:	000a2c83          	lw	s9,0(s4)
   18698:	00813b83          	ld	s7,8(sp)
   1869c:	000a0c13          	mv	s8,s4
   186a0:	000c8d93          	mv	s11,s9
   186a4:	00000d13          	li	s10,0
   186a8:	000bd503          	lhu	a0,0(s7)
   186ac:	00040593          	mv	a1,s0
   186b0:	004c0c13          	addi	s8,s8,4
   186b4:	275050ef          	jal	1e128 <__muldi3>
   186b8:	010dd71b          	srliw	a4,s11,0x10
   186bc:	01a5053b          	addw	a0,a0,s10
   186c0:	00a70d3b          	addw	s10,a4,a0
   186c4:	030c9793          	slli	a5,s9,0x30
   186c8:	010d159b          	slliw	a1,s10,0x10
   186cc:	0307d793          	srli	a5,a5,0x30
   186d0:	00f5e7b3          	or	a5,a1,a5
   186d4:	fefc2e23          	sw	a5,-4(s8)
   186d8:	002bd503          	lhu	a0,2(s7)
   186dc:	000c2d83          	lw	s11,0(s8)
   186e0:	00040593          	mv	a1,s0
   186e4:	245050ef          	jal	1e128 <__muldi3>
   186e8:	030d9793          	slli	a5,s11,0x30
   186ec:	0307d793          	srli	a5,a5,0x30
   186f0:	010d571b          	srliw	a4,s10,0x10
   186f4:	00f507bb          	addw	a5,a0,a5
   186f8:	004b8b93          	addi	s7,s7,4
   186fc:	00f70cbb          	addw	s9,a4,a5
   18700:	010cdd1b          	srliw	s10,s9,0x10
   18704:	fa9be2e3          	bltu	s7,s1,186a8 <__multiply+0x1c4>
   18708:	01013783          	ld	a5,16(sp)
   1870c:	00000713          	li	a4,0
   18710:	00078663          	beqz	a5,1871c <__multiply+0x238>
   18714:	02013783          	ld	a5,32(sp)
   18718:	ffc7f713          	andi	a4,a5,-4
   1871c:	00ea0733          	add	a4,s4,a4
   18720:	01972223          	sw	s9,4(a4)
   18724:	00490913          	addi	s2,s2,4
   18728:	004a0a13          	addi	s4,s4,4
   1872c:	eb696ee3          	bltu	s2,s6,185e8 <__multiply+0x104>
   18730:	05813b83          	ld	s7,88(sp)
   18734:	05013c03          	ld	s8,80(sp)
   18738:	04813c83          	ld	s9,72(sp)
   1873c:	04013d03          	ld	s10,64(sp)
   18740:	03813d83          	ld	s11,56(sp)
   18744:	02813783          	ld	a5,40(sp)
   18748:	00f04863          	bgtz	a5,18758 <__multiply+0x274>
   1874c:	0180006f          	j	18764 <__multiply+0x280>
   18750:	fffa8a9b          	addiw	s5,s5,-1
   18754:	000a8863          	beqz	s5,18764 <__multiply+0x280>
   18758:	ffc9a783          	lw	a5,-4(s3)
   1875c:	ffc98993          	addi	s3,s3,-4
   18760:	fe0788e3          	beqz	a5,18750 <__multiply+0x26c>
   18764:	01813783          	ld	a5,24(sp)
   18768:	09813083          	ld	ra,152(sp)
   1876c:	09013403          	ld	s0,144(sp)
   18770:	0157aa23          	sw	s5,20(a5)
   18774:	07813983          	ld	s3,120(sp)
   18778:	07013a03          	ld	s4,112(sp)
   1877c:	08813483          	ld	s1,136(sp)
   18780:	08013903          	ld	s2,128(sp)
   18784:	06813a83          	ld	s5,104(sp)
   18788:	06013b03          	ld	s6,96(sp)
   1878c:	00078513          	mv	a0,a5
   18790:	0a010113          	addi	sp,sp,160
   18794:	00008067          	ret
   18798:	0001e6b7          	lui	a3,0x1e
   1879c:	0001e537          	lui	a0,0x1e
   187a0:	32068693          	addi	a3,a3,800 # 1e320 <__clzdi2+0xd4>
   187a4:	38850513          	addi	a0,a0,904 # 1e388 <__clzdi2+0x13c>
   187a8:	00000613          	li	a2,0
   187ac:	16200593          	li	a1,354
   187b0:	05713c23          	sd	s7,88(sp)
   187b4:	05813823          	sd	s8,80(sp)
   187b8:	05913423          	sd	s9,72(sp)
   187bc:	05a13023          	sd	s10,64(sp)
   187c0:	03b13c23          	sd	s11,56(sp)
   187c4:	644010ef          	jal	19e08 <__assert_func>

00000000000187c8 <__pow5mult>:
   187c8:	fd010113          	addi	sp,sp,-48
   187cc:	02813023          	sd	s0,32(sp)
   187d0:	01213823          	sd	s2,16(sp)
   187d4:	01313423          	sd	s3,8(sp)
   187d8:	02113423          	sd	ra,40(sp)
   187dc:	00367793          	andi	a5,a2,3
   187e0:	00060413          	mv	s0,a2
   187e4:	00050993          	mv	s3,a0
   187e8:	00058913          	mv	s2,a1
   187ec:	0c079a63          	bnez	a5,188c0 <__pow5mult+0xf8>
   187f0:	4024541b          	sraiw	s0,s0,0x2
   187f4:	0a040863          	beqz	s0,188a4 <__pow5mult+0xdc>
   187f8:	00913c23          	sd	s1,24(sp)
   187fc:	0609b483          	ld	s1,96(s3)
   18800:	0e048463          	beqz	s1,188e8 <__pow5mult+0x120>
   18804:	00147793          	andi	a5,s0,1
   18808:	4014541b          	sraiw	s0,s0,0x1
   1880c:	00079e63          	bnez	a5,18828 <__pow5mult+0x60>
   18810:	0004b503          	ld	a0,0(s1)
   18814:	04050a63          	beqz	a0,18868 <__pow5mult+0xa0>
   18818:	00050493          	mv	s1,a0
   1881c:	00147793          	andi	a5,s0,1
   18820:	4014541b          	sraiw	s0,s0,0x1
   18824:	fe0786e3          	beqz	a5,18810 <__pow5mult+0x48>
   18828:	00048613          	mv	a2,s1
   1882c:	00090593          	mv	a1,s2
   18830:	00098513          	mv	a0,s3
   18834:	cb1ff0ef          	jal	184e4 <__multiply>
   18838:	02090063          	beqz	s2,18858 <__pow5mult+0x90>
   1883c:	00892703          	lw	a4,8(s2)
   18840:	0689b783          	ld	a5,104(s3)
   18844:	00371713          	slli	a4,a4,0x3
   18848:	00e787b3          	add	a5,a5,a4
   1884c:	0007b703          	ld	a4,0(a5)
   18850:	00e93023          	sd	a4,0(s2)
   18854:	0127b023          	sd	s2,0(a5)
   18858:	02040863          	beqz	s0,18888 <__pow5mult+0xc0>
   1885c:	00050913          	mv	s2,a0
   18860:	0004b503          	ld	a0,0(s1)
   18864:	fa051ae3          	bnez	a0,18818 <__pow5mult+0x50>
   18868:	00048613          	mv	a2,s1
   1886c:	00048593          	mv	a1,s1
   18870:	00098513          	mv	a0,s3
   18874:	c71ff0ef          	jal	184e4 <__multiply>
   18878:	00a4b023          	sd	a0,0(s1)
   1887c:	00053023          	sd	zero,0(a0)
   18880:	00050493          	mv	s1,a0
   18884:	f99ff06f          	j	1881c <__pow5mult+0x54>
   18888:	02813083          	ld	ra,40(sp)
   1888c:	02013403          	ld	s0,32(sp)
   18890:	01813483          	ld	s1,24(sp)
   18894:	01013903          	ld	s2,16(sp)
   18898:	00813983          	ld	s3,8(sp)
   1889c:	03010113          	addi	sp,sp,48
   188a0:	00008067          	ret
   188a4:	02813083          	ld	ra,40(sp)
   188a8:	02013403          	ld	s0,32(sp)
   188ac:	00813983          	ld	s3,8(sp)
   188b0:	00090513          	mv	a0,s2
   188b4:	01013903          	ld	s2,16(sp)
   188b8:	03010113          	addi	sp,sp,48
   188bc:	00008067          	ret
   188c0:	fff7879b          	addiw	a5,a5,-1
   188c4:	0001e737          	lui	a4,0x1e
   188c8:	5e870713          	addi	a4,a4,1512 # 1e5e8 <p05.0>
   188cc:	00279793          	slli	a5,a5,0x2
   188d0:	00f707b3          	add	a5,a4,a5
   188d4:	0007a603          	lw	a2,0(a5)
   188d8:	00000693          	li	a3,0
   188dc:	ec8ff0ef          	jal	17fa4 <__multadd>
   188e0:	00050913          	mv	s2,a0
   188e4:	f0dff06f          	j	187f0 <__pow5mult+0x28>
   188e8:	00100593          	li	a1,1
   188ec:	00098513          	mv	a0,s3
   188f0:	de4ff0ef          	jal	17ed4 <_Balloc>
   188f4:	00050493          	mv	s1,a0
   188f8:	02050063          	beqz	a0,18918 <__pow5mult+0x150>
   188fc:	27100713          	li	a4,625
   18900:	00100793          	li	a5,1
   18904:	00e52c23          	sw	a4,24(a0)
   18908:	00f52a23          	sw	a5,20(a0)
   1890c:	06a9b023          	sd	a0,96(s3)
   18910:	00053023          	sd	zero,0(a0)
   18914:	ef1ff06f          	j	18804 <__pow5mult+0x3c>
   18918:	0001e6b7          	lui	a3,0x1e
   1891c:	0001e537          	lui	a0,0x1e
   18920:	32068693          	addi	a3,a3,800 # 1e320 <__clzdi2+0xd4>
   18924:	38850513          	addi	a0,a0,904 # 1e388 <__clzdi2+0x13c>
   18928:	00000613          	li	a2,0
   1892c:	14500593          	li	a1,325
   18930:	4d8010ef          	jal	19e08 <__assert_func>

0000000000018934 <__lshift>:
   18934:	fc010113          	addi	sp,sp,-64
   18938:	02913423          	sd	s1,40(sp)
   1893c:	0145a483          	lw	s1,20(a1)
   18940:	00c5a783          	lw	a5,12(a1)
   18944:	01413823          	sd	s4,16(sp)
   18948:	40565a1b          	sraiw	s4,a2,0x5
   1894c:	014484bb          	addw	s1,s1,s4
   18950:	02813823          	sd	s0,48(sp)
   18954:	03213023          	sd	s2,32(sp)
   18958:	01313c23          	sd	s3,24(sp)
   1895c:	0014871b          	addiw	a4,s1,1
   18960:	02113c23          	sd	ra,56(sp)
   18964:	00058413          	mv	s0,a1
   18968:	00050913          	mv	s2,a0
   1896c:	0085a583          	lw	a1,8(a1)
   18970:	00070993          	mv	s3,a4
   18974:	00e7d863          	bge	a5,a4,18984 <__lshift+0x50>
   18978:	0017979b          	slliw	a5,a5,0x1
   1897c:	0015859b          	addiw	a1,a1,1
   18980:	fee7cce3          	blt	a5,a4,18978 <__lshift+0x44>
   18984:	00090513          	mv	a0,s2
   18988:	00c13423          	sd	a2,8(sp)
   1898c:	d48ff0ef          	jal	17ed4 <_Balloc>
   18990:	00813603          	ld	a2,8(sp)
   18994:	10050a63          	beqz	a0,18aa8 <__lshift+0x174>
   18998:	01850593          	addi	a1,a0,24
   1899c:	03405663          	blez	s4,189c8 <__lshift+0x94>
   189a0:	006a071b          	addiw	a4,s4,6
   189a4:	00271713          	slli	a4,a4,0x2
   189a8:	00e50733          	add	a4,a0,a4
   189ac:	00058793          	mv	a5,a1
   189b0:	00478793          	addi	a5,a5,4
   189b4:	fe07ae23          	sw	zero,-4(a5)
   189b8:	fef71ce3          	bne	a4,a5,189b0 <__lshift+0x7c>
   189bc:	020a1793          	slli	a5,s4,0x20
   189c0:	01e7da13          	srli	s4,a5,0x1e
   189c4:	014585b3          	add	a1,a1,s4
   189c8:	01442803          	lw	a6,20(s0)
   189cc:	01840793          	addi	a5,s0,24
   189d0:	01f67613          	andi	a2,a2,31
   189d4:	00281813          	slli	a6,a6,0x2
   189d8:	01078833          	add	a6,a5,a6
   189dc:	0a060063          	beqz	a2,18a7c <__lshift+0x148>
   189e0:	02000313          	li	t1,32
   189e4:	40c3033b          	subw	t1,t1,a2
   189e8:	00058893          	mv	a7,a1
   189ec:	00000693          	li	a3,0
   189f0:	0007a703          	lw	a4,0(a5)
   189f4:	00488893          	addi	a7,a7,4
   189f8:	00478793          	addi	a5,a5,4
   189fc:	00c7173b          	sllw	a4,a4,a2
   18a00:	00d76733          	or	a4,a4,a3
   18a04:	fee8ae23          	sw	a4,-4(a7)
   18a08:	ffc7a683          	lw	a3,-4(a5)
   18a0c:	0066d6bb          	srlw	a3,a3,t1
   18a10:	ff07e0e3          	bltu	a5,a6,189f0 <__lshift+0xbc>
   18a14:	01940793          	addi	a5,s0,25
   18a18:	00000713          	li	a4,0
   18a1c:	00f86863          	bltu	a6,a5,18a2c <__lshift+0xf8>
   18a20:	40880833          	sub	a6,a6,s0
   18a24:	fe780813          	addi	a6,a6,-25
   18a28:	ffc87713          	andi	a4,a6,-4
   18a2c:	00e585b3          	add	a1,a1,a4
   18a30:	00d5a223          	sw	a3,4(a1)
   18a34:	00069463          	bnez	a3,18a3c <__lshift+0x108>
   18a38:	00048993          	mv	s3,s1
   18a3c:	00842703          	lw	a4,8(s0)
   18a40:	06893783          	ld	a5,104(s2)
   18a44:	01352a23          	sw	s3,20(a0)
   18a48:	00371713          	slli	a4,a4,0x3
   18a4c:	00e787b3          	add	a5,a5,a4
   18a50:	0007b703          	ld	a4,0(a5)
   18a54:	03813083          	ld	ra,56(sp)
   18a58:	02813483          	ld	s1,40(sp)
   18a5c:	00e43023          	sd	a4,0(s0)
   18a60:	0087b023          	sd	s0,0(a5)
   18a64:	03013403          	ld	s0,48(sp)
   18a68:	02013903          	ld	s2,32(sp)
   18a6c:	01813983          	ld	s3,24(sp)
   18a70:	01013a03          	ld	s4,16(sp)
   18a74:	04010113          	addi	sp,sp,64
   18a78:	00008067          	ret
   18a7c:	0007a703          	lw	a4,0(a5)
   18a80:	00478793          	addi	a5,a5,4
   18a84:	00458593          	addi	a1,a1,4
   18a88:	fee5ae23          	sw	a4,-4(a1)
   18a8c:	fb07f6e3          	bgeu	a5,a6,18a38 <__lshift+0x104>
   18a90:	0007a703          	lw	a4,0(a5)
   18a94:	00478793          	addi	a5,a5,4
   18a98:	00458593          	addi	a1,a1,4
   18a9c:	fee5ae23          	sw	a4,-4(a1)
   18aa0:	fd07eee3          	bltu	a5,a6,18a7c <__lshift+0x148>
   18aa4:	f95ff06f          	j	18a38 <__lshift+0x104>
   18aa8:	0001e6b7          	lui	a3,0x1e
   18aac:	0001e537          	lui	a0,0x1e
   18ab0:	32068693          	addi	a3,a3,800 # 1e320 <__clzdi2+0xd4>
   18ab4:	38850513          	addi	a0,a0,904 # 1e388 <__clzdi2+0x13c>
   18ab8:	00000613          	li	a2,0
   18abc:	1de00593          	li	a1,478
   18ac0:	348010ef          	jal	19e08 <__assert_func>

0000000000018ac4 <__mcmp>:
   18ac4:	0145a783          	lw	a5,20(a1)
   18ac8:	00050613          	mv	a2,a0
   18acc:	01452503          	lw	a0,20(a0)
   18ad0:	40f5053b          	subw	a0,a0,a5
   18ad4:	04051263          	bnez	a0,18b18 <__mcmp+0x54>
   18ad8:	00279793          	slli	a5,a5,0x2
   18adc:	01860613          	addi	a2,a2,24
   18ae0:	01858593          	addi	a1,a1,24
   18ae4:	00f585b3          	add	a1,a1,a5
   18ae8:	00f607b3          	add	a5,a2,a5
   18aec:	0080006f          	j	18af4 <__mcmp+0x30>
   18af0:	02f67463          	bgeu	a2,a5,18b18 <__mcmp+0x54>
   18af4:	ffc7a683          	lw	a3,-4(a5)
   18af8:	ffc5a703          	lw	a4,-4(a1)
   18afc:	ffc78793          	addi	a5,a5,-4
   18b00:	ffc58593          	addi	a1,a1,-4
   18b04:	fee686e3          	beq	a3,a4,18af0 <__mcmp+0x2c>
   18b08:	00100513          	li	a0,1
   18b0c:	00e6f663          	bgeu	a3,a4,18b18 <__mcmp+0x54>
   18b10:	fff00513          	li	a0,-1
   18b14:	00008067          	ret
   18b18:	00008067          	ret

0000000000018b1c <__mdiff>:
   18b1c:	0145a883          	lw	a7,20(a1)
   18b20:	01462783          	lw	a5,20(a2)
   18b24:	fd010113          	addi	sp,sp,-48
   18b28:	02113423          	sd	ra,40(sp)
   18b2c:	40f888bb          	subw	a7,a7,a5
   18b30:	00058f13          	mv	t5,a1
   18b34:	18089863          	bnez	a7,18cc4 <__mdiff+0x1a8>
   18b38:	00279693          	slli	a3,a5,0x2
   18b3c:	01858813          	addi	a6,a1,24
   18b40:	01860713          	addi	a4,a2,24
   18b44:	00d807b3          	add	a5,a6,a3
   18b48:	00d70733          	add	a4,a4,a3
   18b4c:	0080006f          	j	18b54 <__mdiff+0x38>
   18b50:	1af87263          	bgeu	a6,a5,18cf4 <__mdiff+0x1d8>
   18b54:	ffc7a583          	lw	a1,-4(a5)
   18b58:	ffc72683          	lw	a3,-4(a4)
   18b5c:	ffc78793          	addi	a5,a5,-4
   18b60:	ffc70713          	addi	a4,a4,-4
   18b64:	fed586e3          	beq	a1,a3,18b50 <__mdiff+0x34>
   18b68:	1ad5f863          	bgeu	a1,a3,18d18 <__mdiff+0x1fc>
   18b6c:	00100893          	li	a7,1
   18b70:	00862583          	lw	a1,8(a2)
   18b74:	01e13c23          	sd	t5,24(sp)
   18b78:	01113823          	sd	a7,16(sp)
   18b7c:	00c13423          	sd	a2,8(sp)
   18b80:	b54ff0ef          	jal	17ed4 <_Balloc>
   18b84:	00813603          	ld	a2,8(sp)
   18b88:	01013883          	ld	a7,16(sp)
   18b8c:	01813f03          	ld	t5,24(sp)
   18b90:	1a050063          	beqz	a0,18d30 <__mdiff+0x214>
   18b94:	014f2f83          	lw	t6,20(t5)
   18b98:	01152823          	sw	a7,16(a0)
   18b9c:	01462883          	lw	a7,20(a2)
   18ba0:	01860293          	addi	t0,a2,24
   18ba4:	002f9f93          	slli	t6,t6,0x2
   18ba8:	00289813          	slli	a6,a7,0x2
   18bac:	018f0313          	addi	t1,t5,24
   18bb0:	01850393          	addi	t2,a0,24
   18bb4:	01028833          	add	a6,t0,a6
   18bb8:	01f30fb3          	add	t6,t1,t6
   18bbc:	00028e93          	mv	t4,t0
   18bc0:	00038e13          	mv	t3,t2
   18bc4:	00000793          	li	a5,0
   18bc8:	000ea683          	lw	a3,0(t4)
   18bcc:	00032603          	lw	a2,0(t1)
   18bd0:	004e0e13          	addi	t3,t3,4
   18bd4:	03069713          	slli	a4,a3,0x30
   18bd8:	03061593          	slli	a1,a2,0x30
   18bdc:	03075713          	srli	a4,a4,0x30
   18be0:	0305d593          	srli	a1,a1,0x30
   18be4:	40b7073b          	subw	a4,a4,a1
   18be8:	00f7073b          	addw	a4,a4,a5
   18bec:	0106d69b          	srliw	a3,a3,0x10
   18bf0:	0106561b          	srliw	a2,a2,0x10
   18bf4:	40c686bb          	subw	a3,a3,a2
   18bf8:	4107579b          	sraiw	a5,a4,0x10
   18bfc:	00d787bb          	addw	a5,a5,a3
   18c00:	03071713          	slli	a4,a4,0x30
   18c04:	0107969b          	slliw	a3,a5,0x10
   18c08:	03075713          	srli	a4,a4,0x30
   18c0c:	00e6e6b3          	or	a3,a3,a4
   18c10:	00430313          	addi	t1,t1,4
   18c14:	fede2e23          	sw	a3,-4(t3)
   18c18:	004e8e93          	addi	t4,t4,4
   18c1c:	4107d79b          	sraiw	a5,a5,0x10
   18c20:	fbf364e3          	bltu	t1,t6,18bc8 <__mdiff+0xac>
   18c24:	019f0613          	addi	a2,t5,25
   18c28:	00000713          	li	a4,0
   18c2c:	0acffc63          	bgeu	t6,a2,18ce4 <__mdiff+0x1c8>
   18c30:	00e28eb3          	add	t4,t0,a4
   18c34:	004e8e93          	addi	t4,t4,4
   18c38:	00770733          	add	a4,a4,t2
   18c3c:	40538e33          	sub	t3,t2,t0
   18c40:	000e8613          	mv	a2,t4
   18c44:	00470f13          	addi	t5,a4,4
   18c48:	0f0ef063          	bgeu	t4,a6,18d28 <__mdiff+0x20c>
   18c4c:	00062703          	lw	a4,0(a2)
   18c50:	01c60333          	add	t1,a2,t3
   18c54:	00460613          	addi	a2,a2,4
   18c58:	03071693          	slli	a3,a4,0x30
   18c5c:	0306d693          	srli	a3,a3,0x30
   18c60:	00f705bb          	addw	a1,a4,a5
   18c64:	00f687bb          	addw	a5,a3,a5
   18c68:	4107d79b          	sraiw	a5,a5,0x10
   18c6c:	0107571b          	srliw	a4,a4,0x10
   18c70:	00f7073b          	addw	a4,a4,a5
   18c74:	03059593          	slli	a1,a1,0x30
   18c78:	0305d593          	srli	a1,a1,0x30
   18c7c:	0107169b          	slliw	a3,a4,0x10
   18c80:	00b6e6b3          	or	a3,a3,a1
   18c84:	00d32023          	sw	a3,0(t1)
   18c88:	4107579b          	sraiw	a5,a4,0x10
   18c8c:	fd0660e3          	bltu	a2,a6,18c4c <__mdiff+0x130>
   18c90:	fff80793          	addi	a5,a6,-1
   18c94:	41d787b3          	sub	a5,a5,t4
   18c98:	ffc7f793          	andi	a5,a5,-4
   18c9c:	01e787b3          	add	a5,a5,t5
   18ca0:	00069a63          	bnez	a3,18cb4 <__mdiff+0x198>
   18ca4:	ffc7a703          	lw	a4,-4(a5)
   18ca8:	ffc78793          	addi	a5,a5,-4
   18cac:	fff8889b          	addiw	a7,a7,-1
   18cb0:	fe070ae3          	beqz	a4,18ca4 <__mdiff+0x188>
   18cb4:	02813083          	ld	ra,40(sp)
   18cb8:	01152a23          	sw	a7,20(a0)
   18cbc:	03010113          	addi	sp,sp,48
   18cc0:	00008067          	ret
   18cc4:	00088713          	mv	a4,a7
   18cc8:	00100893          	li	a7,1
   18ccc:	ea0742e3          	bltz	a4,18b70 <__mdiff+0x54>
   18cd0:	00060793          	mv	a5,a2
   18cd4:	00000893          	li	a7,0
   18cd8:	00058613          	mv	a2,a1
   18cdc:	00078f13          	mv	t5,a5
   18ce0:	e91ff06f          	j	18b70 <__mdiff+0x54>
   18ce4:	41ef8fb3          	sub	t6,t6,t5
   18ce8:	fe7f8f93          	addi	t6,t6,-25
   18cec:	ffcff713          	andi	a4,t6,-4
   18cf0:	f41ff06f          	j	18c30 <__mdiff+0x114>
   18cf4:	00000593          	li	a1,0
   18cf8:	9dcff0ef          	jal	17ed4 <_Balloc>
   18cfc:	04050863          	beqz	a0,18d4c <__mdiff+0x230>
   18d00:	02813083          	ld	ra,40(sp)
   18d04:	00100793          	li	a5,1
   18d08:	00052c23          	sw	zero,24(a0)
   18d0c:	00f52a23          	sw	a5,20(a0)
   18d10:	03010113          	addi	sp,sp,48
   18d14:	00008067          	ret
   18d18:	00060793          	mv	a5,a2
   18d1c:	000f0613          	mv	a2,t5
   18d20:	00078f13          	mv	t5,a5
   18d24:	e4dff06f          	j	18b70 <__mdiff+0x54>
   18d28:	00070793          	mv	a5,a4
   18d2c:	f75ff06f          	j	18ca0 <__mdiff+0x184>
   18d30:	0001e6b7          	lui	a3,0x1e
   18d34:	0001e537          	lui	a0,0x1e
   18d38:	32068693          	addi	a3,a3,800 # 1e320 <__clzdi2+0xd4>
   18d3c:	38850513          	addi	a0,a0,904 # 1e388 <__clzdi2+0x13c>
   18d40:	00000613          	li	a2,0
   18d44:	24500593          	li	a1,581
   18d48:	0c0010ef          	jal	19e08 <__assert_func>
   18d4c:	0001e6b7          	lui	a3,0x1e
   18d50:	0001e537          	lui	a0,0x1e
   18d54:	32068693          	addi	a3,a3,800 # 1e320 <__clzdi2+0xd4>
   18d58:	38850513          	addi	a0,a0,904 # 1e388 <__clzdi2+0x13c>
   18d5c:	00000613          	li	a2,0
   18d60:	23700593          	li	a1,567
   18d64:	0a4010ef          	jal	19e08 <__assert_func>

0000000000018d68 <__ulp>:
   18d68:	02055793          	srli	a5,a0,0x20
   18d6c:	7ff006b7          	lui	a3,0x7ff00
   18d70:	fcc00737          	lui	a4,0xfcc00
   18d74:	00d7f7b3          	and	a5,a5,a3
   18d78:	00e787bb          	addw	a5,a5,a4
   18d7c:	00000513          	li	a0,0
   18d80:	00f05c63          	blez	a5,18d98 <__ulp+0x30>
   18d84:	02051513          	slli	a0,a0,0x20
   18d88:	02079793          	slli	a5,a5,0x20
   18d8c:	02055513          	srli	a0,a0,0x20
   18d90:	00a7e533          	or	a0,a5,a0
   18d94:	00008067          	ret
   18d98:	40f007bb          	negw	a5,a5
   18d9c:	4147d79b          	sraiw	a5,a5,0x14
   18da0:	01300713          	li	a4,19
   18da4:	02f74263          	blt	a4,a5,18dc8 <__ulp+0x60>
   18da8:	00080737          	lui	a4,0x80
   18dac:	00000513          	li	a0,0
   18db0:	40f757bb          	sraw	a5,a4,a5
   18db4:	02051513          	slli	a0,a0,0x20
   18db8:	02079793          	slli	a5,a5,0x20
   18dbc:	02055513          	srli	a0,a0,0x20
   18dc0:	00a7e533          	or	a0,a5,a0
   18dc4:	00008067          	ret
   18dc8:	fec7879b          	addiw	a5,a5,-20
   18dcc:	01e00713          	li	a4,30
   18dd0:	00100513          	li	a0,1
   18dd4:	00f74663          	blt	a4,a5,18de0 <__ulp+0x78>
   18dd8:	80000537          	lui	a0,0x80000
   18ddc:	00f5553b          	srlw	a0,a0,a5
   18de0:	00000793          	li	a5,0
   18de4:	02051513          	slli	a0,a0,0x20
   18de8:	02079793          	slli	a5,a5,0x20
   18dec:	02055513          	srli	a0,a0,0x20
   18df0:	00a7e533          	or	a0,a5,a0
   18df4:	00008067          	ret

0000000000018df8 <__b2d>:
   18df8:	fc010113          	addi	sp,sp,-64
   18dfc:	02813823          	sd	s0,48(sp)
   18e00:	01452403          	lw	s0,20(a0) # ffffffff80000014 <__BSS_END__+0xffffffff7ffdf39c>
   18e04:	03213023          	sd	s2,32(sp)
   18e08:	01850913          	addi	s2,a0,24
   18e0c:	00241413          	slli	s0,s0,0x2
   18e10:	00890433          	add	s0,s2,s0
   18e14:	02913423          	sd	s1,40(sp)
   18e18:	ffc42483          	lw	s1,-4(s0)
   18e1c:	01313c23          	sd	s3,24(sp)
   18e20:	00b13423          	sd	a1,8(sp)
   18e24:	00048513          	mv	a0,s1
   18e28:	02113c23          	sd	ra,56(sp)
   18e2c:	c44ff0ef          	jal	18270 <__hi0bits>
   18e30:	00813583          	ld	a1,8(sp)
   18e34:	02000793          	li	a5,32
   18e38:	40a7873b          	subw	a4,a5,a0
   18e3c:	00e5a023          	sw	a4,0(a1)
   18e40:	00a00713          	li	a4,10
   18e44:	ffc40993          	addi	s3,s0,-4
   18e48:	08a75c63          	bge	a4,a0,18ee0 <__b2d+0xe8>
   18e4c:	ff55061b          	addiw	a2,a0,-11
   18e50:	05397263          	bgeu	s2,s3,18e94 <__b2d+0x9c>
   18e54:	ff842703          	lw	a4,-8(s0)
   18e58:	04060463          	beqz	a2,18ea0 <__b2d+0xa8>
   18e5c:	40c786bb          	subw	a3,a5,a2
   18e60:	00d757bb          	srlw	a5,a4,a3
   18e64:	00c494bb          	sllw	s1,s1,a2
   18e68:	00f4e4b3          	or	s1,s1,a5
   18e6c:	3ff007b7          	lui	a5,0x3ff00
   18e70:	00f4e4b3          	or	s1,s1,a5
   18e74:	00c7173b          	sllw	a4,a4,a2
   18e78:	ff840613          	addi	a2,s0,-8
   18e7c:	02049793          	slli	a5,s1,0x20
   18e80:	02c97663          	bgeu	s2,a2,18eac <__b2d+0xb4>
   18e84:	ff442603          	lw	a2,-12(s0)
   18e88:	00d656bb          	srlw	a3,a2,a3
   18e8c:	00e6e733          	or	a4,a3,a4
   18e90:	01c0006f          	j	18eac <__b2d+0xb4>
   18e94:	00b00793          	li	a5,11
   18e98:	00000713          	li	a4,0
   18e9c:	06f51e63          	bne	a0,a5,18f18 <__b2d+0x120>
   18ea0:	3ff007b7          	lui	a5,0x3ff00
   18ea4:	00f4e4b3          	or	s1,s1,a5
   18ea8:	02049793          	slli	a5,s1,0x20
   18eac:	03813083          	ld	ra,56(sp)
   18eb0:	03013403          	ld	s0,48(sp)
   18eb4:	02071713          	slli	a4,a4,0x20
   18eb8:	0207d793          	srli	a5,a5,0x20
   18ebc:	02075713          	srli	a4,a4,0x20
   18ec0:	02079793          	slli	a5,a5,0x20
   18ec4:	00e7e7b3          	or	a5,a5,a4
   18ec8:	02813483          	ld	s1,40(sp)
   18ecc:	02013903          	ld	s2,32(sp)
   18ed0:	01813983          	ld	s3,24(sp)
   18ed4:	00078513          	mv	a0,a5
   18ed8:	04010113          	addi	sp,sp,64
   18edc:	00008067          	ret
   18ee0:	00b00693          	li	a3,11
   18ee4:	40a686bb          	subw	a3,a3,a0
   18ee8:	3ff00737          	lui	a4,0x3ff00
   18eec:	00d4d7bb          	srlw	a5,s1,a3
   18ef0:	00e7e7b3          	or	a5,a5,a4
   18ef4:	02079793          	slli	a5,a5,0x20
   18ef8:	00000713          	li	a4,0
   18efc:	01397663          	bgeu	s2,s3,18f08 <__b2d+0x110>
   18f00:	ff842703          	lw	a4,-8(s0)
   18f04:	00d7573b          	srlw	a4,a4,a3
   18f08:	0155051b          	addiw	a0,a0,21
   18f0c:	00a494bb          	sllw	s1,s1,a0
   18f10:	00e4e733          	or	a4,s1,a4
   18f14:	f99ff06f          	j	18eac <__b2d+0xb4>
   18f18:	3ff007b7          	lui	a5,0x3ff00
   18f1c:	00c494bb          	sllw	s1,s1,a2
   18f20:	00f4e4b3          	or	s1,s1,a5
   18f24:	02049793          	slli	a5,s1,0x20
   18f28:	00000713          	li	a4,0
   18f2c:	f81ff06f          	j	18eac <__b2d+0xb4>

0000000000018f30 <__d2b>:
   18f30:	fc010113          	addi	sp,sp,-64
   18f34:	02813823          	sd	s0,48(sp)
   18f38:	00058413          	mv	s0,a1
   18f3c:	00100593          	li	a1,1
   18f40:	01313c23          	sd	s3,24(sp)
   18f44:	01413823          	sd	s4,16(sp)
   18f48:	02113c23          	sd	ra,56(sp)
   18f4c:	02913423          	sd	s1,40(sp)
   18f50:	03213023          	sd	s2,32(sp)
   18f54:	00060a13          	mv	s4,a2
   18f58:	00068993          	mv	s3,a3
   18f5c:	f79fe0ef          	jal	17ed4 <_Balloc>
   18f60:	0e050e63          	beqz	a0,1905c <__d2b+0x12c>
   18f64:	02045793          	srli	a5,s0,0x20
   18f68:	00100737          	lui	a4,0x100
   18f6c:	0147d49b          	srliw	s1,a5,0x14
   18f70:	fff70693          	addi	a3,a4,-1 # fffff <__BSS_END__+0xdf387>
   18f74:	00d7f7b3          	and	a5,a5,a3
   18f78:	7ff4f493          	andi	s1,s1,2047
   18f7c:	00050913          	mv	s2,a0
   18f80:	0007879b          	sext.w	a5,a5
   18f84:	00048463          	beqz	s1,18f8c <__d2b+0x5c>
   18f88:	00e7e7b3          	or	a5,a5,a4
   18f8c:	0004041b          	sext.w	s0,s0
   18f90:	00f12623          	sw	a5,12(sp)
   18f94:	06041063          	bnez	s0,18ff4 <__d2b+0xc4>
   18f98:	00c10513          	addi	a0,sp,12
   18f9c:	b5cff0ef          	jal	182f8 <__lo0bits>
   18fa0:	00c12703          	lw	a4,12(sp)
   18fa4:	00100413          	li	s0,1
   18fa8:	00892a23          	sw	s0,20(s2)
   18fac:	00e92c23          	sw	a4,24(s2)
   18fb0:	0205051b          	addiw	a0,a0,32
   18fb4:	08048263          	beqz	s1,19038 <__d2b+0x108>
   18fb8:	bcd4849b          	addiw	s1,s1,-1075
   18fbc:	00a484bb          	addw	s1,s1,a0
   18fc0:	03500793          	li	a5,53
   18fc4:	009a2023          	sw	s1,0(s4)
   18fc8:	40a7853b          	subw	a0,a5,a0
   18fcc:	03813083          	ld	ra,56(sp)
   18fd0:	03013403          	ld	s0,48(sp)
   18fd4:	00a9a023          	sw	a0,0(s3)
   18fd8:	02813483          	ld	s1,40(sp)
   18fdc:	01813983          	ld	s3,24(sp)
   18fe0:	01013a03          	ld	s4,16(sp)
   18fe4:	00090513          	mv	a0,s2
   18fe8:	02013903          	ld	s2,32(sp)
   18fec:	04010113          	addi	sp,sp,64
   18ff0:	00008067          	ret
   18ff4:	00810513          	addi	a0,sp,8
   18ff8:	00812423          	sw	s0,8(sp)
   18ffc:	afcff0ef          	jal	182f8 <__lo0bits>
   19000:	00c12703          	lw	a4,12(sp)
   19004:	00812683          	lw	a3,8(sp)
   19008:	00050c63          	beqz	a0,19020 <__d2b+0xf0>
   1900c:	02000793          	li	a5,32
   19010:	40a787bb          	subw	a5,a5,a0
   19014:	00f717bb          	sllw	a5,a4,a5
   19018:	00d7e6b3          	or	a3,a5,a3
   1901c:	00a7573b          	srlw	a4,a4,a0
   19020:	00e03433          	snez	s0,a4
   19024:	00140413          	addi	s0,s0,1
   19028:	00d92c23          	sw	a3,24(s2)
   1902c:	00e92e23          	sw	a4,28(s2)
   19030:	00892a23          	sw	s0,20(s2)
   19034:	f80492e3          	bnez	s1,18fb8 <__d2b+0x88>
   19038:	bce5051b          	addiw	a0,a0,-1074
   1903c:	00241713          	slli	a4,s0,0x2
   19040:	00aa2023          	sw	a0,0(s4)
   19044:	00e90733          	add	a4,s2,a4
   19048:	01472503          	lw	a0,20(a4)
   1904c:	a24ff0ef          	jal	18270 <__hi0bits>
   19050:	0054179b          	slliw	a5,s0,0x5
   19054:	40a7853b          	subw	a0,a5,a0
   19058:	f75ff06f          	j	18fcc <__d2b+0x9c>
   1905c:	0001e6b7          	lui	a3,0x1e
   19060:	0001e537          	lui	a0,0x1e
   19064:	32068693          	addi	a3,a3,800 # 1e320 <__clzdi2+0xd4>
   19068:	38850513          	addi	a0,a0,904 # 1e388 <__clzdi2+0x13c>
   1906c:	00000613          	li	a2,0
   19070:	30f00593          	li	a1,783
   19074:	595000ef          	jal	19e08 <__assert_func>

0000000000019078 <__ratio>:
   19078:	fc010113          	addi	sp,sp,-64
   1907c:	02913423          	sd	s1,40(sp)
   19080:	00058493          	mv	s1,a1
   19084:	00810593          	addi	a1,sp,8
   19088:	02113c23          	sd	ra,56(sp)
   1908c:	02813823          	sd	s0,48(sp)
   19090:	03213023          	sd	s2,32(sp)
   19094:	00050913          	mv	s2,a0
   19098:	d61ff0ef          	jal	18df8 <__b2d>
   1909c:	00c10593          	addi	a1,sp,12
   190a0:	00050413          	mv	s0,a0
   190a4:	00048513          	mv	a0,s1
   190a8:	d51ff0ef          	jal	18df8 <__b2d>
   190ac:	01492703          	lw	a4,20(s2)
   190b0:	0144a603          	lw	a2,20(s1)
   190b4:	00812783          	lw	a5,8(sp)
   190b8:	00c12683          	lw	a3,12(sp)
   190bc:	40c7073b          	subw	a4,a4,a2
   190c0:	0057171b          	slliw	a4,a4,0x5
   190c4:	40d787bb          	subw	a5,a5,a3
   190c8:	00e787bb          	addw	a5,a5,a4
   190cc:	00050593          	mv	a1,a0
   190d0:	04f05063          	blez	a5,19110 <__ratio+0x98>
   190d4:	02041713          	slli	a4,s0,0x20
   190d8:	0147979b          	slliw	a5,a5,0x14
   190dc:	02045413          	srli	s0,s0,0x20
   190e0:	008787bb          	addw	a5,a5,s0
   190e4:	02075713          	srli	a4,a4,0x20
   190e8:	02079793          	slli	a5,a5,0x20
   190ec:	00f76433          	or	s0,a4,a5
   190f0:	00040513          	mv	a0,s0
   190f4:	6ad020ef          	jal	1bfa0 <__divdf3>
   190f8:	03813083          	ld	ra,56(sp)
   190fc:	03013403          	ld	s0,48(sp)
   19100:	02813483          	ld	s1,40(sp)
   19104:	02013903          	ld	s2,32(sp)
   19108:	04010113          	addi	sp,sp,64
   1910c:	00008067          	ret
   19110:	40f007bb          	negw	a5,a5
   19114:	02055593          	srli	a1,a0,0x20
   19118:	0147979b          	slliw	a5,a5,0x14
   1911c:	00b787bb          	addw	a5,a5,a1
   19120:	02051713          	slli	a4,a0,0x20
   19124:	02075713          	srli	a4,a4,0x20
   19128:	02079793          	slli	a5,a5,0x20
   1912c:	00f765b3          	or	a1,a4,a5
   19130:	fc1ff06f          	j	190f0 <__ratio+0x78>

0000000000019134 <_mprec_log10>:
   19134:	fe010113          	addi	sp,sp,-32
   19138:	00813823          	sd	s0,16(sp)
   1913c:	00113c23          	sd	ra,24(sp)
   19140:	01700793          	li	a5,23
   19144:	00050413          	mv	s0,a0
   19148:	02a7da63          	bge	a5,a0,1917c <_mprec_log10+0x48>
   1914c:	00913423          	sd	s1,8(sp)
   19150:	1e01b503          	ld	a0,480(gp) # 20658 <__SDATA_BEGIN__+0x30>
   19154:	1f01b483          	ld	s1,496(gp) # 20668 <__SDATA_BEGIN__+0x40>
   19158:	00048593          	mv	a1,s1
   1915c:	fff4041b          	addiw	s0,s0,-1
   19160:	3b4030ef          	jal	1c514 <__muldf3>
   19164:	fe041ae3          	bnez	s0,19158 <_mprec_log10+0x24>
   19168:	01813083          	ld	ra,24(sp)
   1916c:	01013403          	ld	s0,16(sp)
   19170:	00813483          	ld	s1,8(sp)
   19174:	02010113          	addi	sp,sp,32
   19178:	00008067          	ret
   1917c:	0001e7b7          	lui	a5,0x1e
   19180:	00351413          	slli	s0,a0,0x3
   19184:	64878793          	addi	a5,a5,1608 # 1e648 <__mprec_tens>
   19188:	01813083          	ld	ra,24(sp)
   1918c:	008787b3          	add	a5,a5,s0
   19190:	01013403          	ld	s0,16(sp)
   19194:	0007b503          	ld	a0,0(a5)
   19198:	02010113          	addi	sp,sp,32
   1919c:	00008067          	ret

00000000000191a0 <__copybits>:
   191a0:	01462683          	lw	a3,20(a2)
   191a4:	fff5859b          	addiw	a1,a1,-1
   191a8:	4055d59b          	sraiw	a1,a1,0x5
   191ac:	0015859b          	addiw	a1,a1,1
   191b0:	00269693          	slli	a3,a3,0x2
   191b4:	01860793          	addi	a5,a2,24
   191b8:	00259593          	slli	a1,a1,0x2
   191bc:	00d786b3          	add	a3,a5,a3
   191c0:	00b505b3          	add	a1,a0,a1
   191c4:	02d7f863          	bgeu	a5,a3,191f4 <__copybits+0x54>
   191c8:	00050713          	mv	a4,a0
   191cc:	0007a803          	lw	a6,0(a5)
   191d0:	00478793          	addi	a5,a5,4
   191d4:	00470713          	addi	a4,a4,4
   191d8:	ff072e23          	sw	a6,-4(a4)
   191dc:	fed7e8e3          	bltu	a5,a3,191cc <__copybits+0x2c>
   191e0:	40c686b3          	sub	a3,a3,a2
   191e4:	fe768693          	addi	a3,a3,-25
   191e8:	ffc6f693          	andi	a3,a3,-4
   191ec:	00450513          	addi	a0,a0,4
   191f0:	00a68533          	add	a0,a3,a0
   191f4:	00b57863          	bgeu	a0,a1,19204 <__copybits+0x64>
   191f8:	00450513          	addi	a0,a0,4
   191fc:	fe052e23          	sw	zero,-4(a0)
   19200:	feb56ce3          	bltu	a0,a1,191f8 <__copybits+0x58>
   19204:	00008067          	ret

0000000000019208 <__any_on>:
   19208:	01452703          	lw	a4,20(a0)
   1920c:	4055d61b          	sraiw	a2,a1,0x5
   19210:	01850693          	addi	a3,a0,24
   19214:	02c75263          	bge	a4,a2,19238 <__any_on+0x30>
   19218:	00271713          	slli	a4,a4,0x2
   1921c:	00e687b3          	add	a5,a3,a4
   19220:	04f6f263          	bgeu	a3,a5,19264 <__any_on+0x5c>
   19224:	ffc7a703          	lw	a4,-4(a5)
   19228:	ffc78793          	addi	a5,a5,-4
   1922c:	fe070ae3          	beqz	a4,19220 <__any_on+0x18>
   19230:	00100513          	li	a0,1
   19234:	00008067          	ret
   19238:	00261793          	slli	a5,a2,0x2
   1923c:	00f687b3          	add	a5,a3,a5
   19240:	fee650e3          	bge	a2,a4,19220 <__any_on+0x18>
   19244:	01f5f593          	andi	a1,a1,31
   19248:	fc058ce3          	beqz	a1,19220 <__any_on+0x18>
   1924c:	0007a603          	lw	a2,0(a5)
   19250:	00100513          	li	a0,1
   19254:	00b6573b          	srlw	a4,a2,a1
   19258:	00b7173b          	sllw	a4,a4,a1
   1925c:	fcc702e3          	beq	a4,a2,19220 <__any_on+0x18>
   19260:	00008067          	ret
   19264:	00000513          	li	a0,0
   19268:	00008067          	ret

000000000001926c <_realloc_r>:
   1926c:	1e058a63          	beqz	a1,19460 <_realloc_r+0x1f4>
   19270:	fc010113          	addi	sp,sp,-64
   19274:	02813823          	sd	s0,48(sp)
   19278:	02913423          	sd	s1,40(sp)
   1927c:	00058413          	mv	s0,a1
   19280:	02113c23          	sd	ra,56(sp)
   19284:	00050493          	mv	s1,a0
   19288:	00c13023          	sd	a2,0(sp)
   1928c:	865f80ef          	jal	11af0 <__malloc_lock>
   19290:	00013583          	ld	a1,0(sp)
   19294:	02e00713          	li	a4,46
   19298:	01758793          	addi	a5,a1,23
   1929c:	12f77c63          	bgeu	a4,a5,193d4 <_realloc_r+0x168>
   192a0:	00100713          	li	a4,1
   192a4:	ff07f793          	andi	a5,a5,-16
   192a8:	01f71713          	slli	a4,a4,0x1f
   192ac:	00e7b733          	sltu	a4,a5,a4
   192b0:	00174713          	xori	a4,a4,1
   192b4:	1eb7e263          	bltu	a5,a1,19498 <_realloc_r+0x22c>
   192b8:	1e071063          	bnez	a4,19498 <_realloc_r+0x22c>
   192bc:	ff843683          	ld	a3,-8(s0)
   192c0:	ff040613          	addi	a2,s0,-16
   192c4:	ffc6f713          	andi	a4,a3,-4
   192c8:	12f75663          	bge	a4,a5,193f4 <_realloc_r+0x188>
   192cc:	00020537          	lui	a0,0x20
   192d0:	c7050e93          	addi	t4,a0,-912 # 1fc70 <__malloc_av_>
   192d4:	010eb883          	ld	a7,16(t4)
   192d8:	00e60833          	add	a6,a2,a4
   192dc:	00883503          	ld	a0,8(a6)
   192e0:	1d088e63          	beq	a7,a6,194bc <_realloc_r+0x250>
   192e4:	ffe57893          	andi	a7,a0,-2
   192e8:	011808b3          	add	a7,a6,a7
   192ec:	0088b883          	ld	a7,8(a7)
   192f0:	0018f893          	andi	a7,a7,1
   192f4:	14089863          	bnez	a7,19444 <_realloc_r+0x1d8>
   192f8:	ffc57513          	andi	a0,a0,-4
   192fc:	00a708b3          	add	a7,a4,a0
   19300:	0ef8d063          	bge	a7,a5,193e0 <_realloc_r+0x174>
   19304:	0016f693          	andi	a3,a3,1
   19308:	02069463          	bnez	a3,19330 <_realloc_r+0xc4>
   1930c:	ff043303          	ld	t1,-16(s0)
   19310:	40660333          	sub	t1,a2,t1
   19314:	00833883          	ld	a7,8(t1)
   19318:	ffc8f893          	andi	a7,a7,-4
   1931c:	01150533          	add	a0,a0,a7
   19320:	00e506b3          	add	a3,a0,a4
   19324:	32f6d263          	bge	a3,a5,19648 <_realloc_r+0x3dc>
   19328:	011708b3          	add	a7,a4,a7
   1932c:	28f8da63          	bge	a7,a5,195c0 <_realloc_r+0x354>
   19330:	00048513          	mv	a0,s1
   19334:	00e13823          	sd	a4,16(sp)
   19338:	00c13423          	sd	a2,8(sp)
   1933c:	00f13023          	sd	a5,0(sp)
   19340:	ecdf70ef          	jal	1120c <_malloc_r>
   19344:	00013783          	ld	a5,0(sp)
   19348:	00813603          	ld	a2,8(sp)
   1934c:	01013703          	ld	a4,16(sp)
   19350:	00050693          	mv	a3,a0
   19354:	44050663          	beqz	a0,197a0 <_realloc_r+0x534>
   19358:	ff843583          	ld	a1,-8(s0)
   1935c:	ff050813          	addi	a6,a0,-16
   19360:	ffe5f593          	andi	a1,a1,-2
   19364:	00b605b3          	add	a1,a2,a1
   19368:	23058263          	beq	a1,a6,1958c <_realloc_r+0x320>
   1936c:	ff870613          	addi	a2,a4,-8
   19370:	04800793          	li	a5,72
   19374:	2cc7e063          	bltu	a5,a2,19634 <_realloc_r+0x3c8>
   19378:	02700713          	li	a4,39
   1937c:	22c76063          	bltu	a4,a2,1959c <_realloc_r+0x330>
   19380:	00050793          	mv	a5,a0
   19384:	00040713          	mv	a4,s0
   19388:	00073603          	ld	a2,0(a4)
   1938c:	00c7b023          	sd	a2,0(a5)
   19390:	00873603          	ld	a2,8(a4)
   19394:	00c7b423          	sd	a2,8(a5)
   19398:	01073703          	ld	a4,16(a4)
   1939c:	00e7b823          	sd	a4,16(a5)
   193a0:	00040593          	mv	a1,s0
   193a4:	00048513          	mv	a0,s1
   193a8:	00d13023          	sd	a3,0(sp)
   193ac:	b5df70ef          	jal	10f08 <_free_r>
   193b0:	00048513          	mv	a0,s1
   193b4:	f40f80ef          	jal	11af4 <__malloc_unlock>
   193b8:	00013683          	ld	a3,0(sp)
   193bc:	03813083          	ld	ra,56(sp)
   193c0:	03013403          	ld	s0,48(sp)
   193c4:	02813483          	ld	s1,40(sp)
   193c8:	00068513          	mv	a0,a3
   193cc:	04010113          	addi	sp,sp,64
   193d0:	00008067          	ret
   193d4:	00000713          	li	a4,0
   193d8:	02000793          	li	a5,32
   193dc:	ed9ff06f          	j	192b4 <_realloc_r+0x48>
   193e0:	01883683          	ld	a3,24(a6)
   193e4:	01083583          	ld	a1,16(a6)
   193e8:	00088713          	mv	a4,a7
   193ec:	00d5bc23          	sd	a3,24(a1)
   193f0:	00b6b823          	sd	a1,16(a3)
   193f4:	00863683          	ld	a3,8(a2)
   193f8:	40f70533          	sub	a0,a4,a5
   193fc:	01f00593          	li	a1,31
   19400:	0016f693          	andi	a3,a3,1
   19404:	00e60833          	add	a6,a2,a4
   19408:	06a5e063          	bltu	a1,a0,19468 <_realloc_r+0x1fc>
   1940c:	00d766b3          	or	a3,a4,a3
   19410:	00d63423          	sd	a3,8(a2)
   19414:	00883783          	ld	a5,8(a6)
   19418:	0017e793          	ori	a5,a5,1
   1941c:	00f83423          	sd	a5,8(a6)
   19420:	00048513          	mv	a0,s1
   19424:	ed0f80ef          	jal	11af4 <__malloc_unlock>
   19428:	00040693          	mv	a3,s0
   1942c:	03813083          	ld	ra,56(sp)
   19430:	03013403          	ld	s0,48(sp)
   19434:	02813483          	ld	s1,40(sp)
   19438:	00068513          	mv	a0,a3
   1943c:	04010113          	addi	sp,sp,64
   19440:	00008067          	ret
   19444:	0016f693          	andi	a3,a3,1
   19448:	ee0694e3          	bnez	a3,19330 <_realloc_r+0xc4>
   1944c:	ff043303          	ld	t1,-16(s0)
   19450:	40660333          	sub	t1,a2,t1
   19454:	00833883          	ld	a7,8(t1)
   19458:	ffc8f893          	andi	a7,a7,-4
   1945c:	ecdff06f          	j	19328 <_realloc_r+0xbc>
   19460:	00060593          	mv	a1,a2
   19464:	da9f706f          	j	1120c <_malloc_r>
   19468:	00d7e6b3          	or	a3,a5,a3
   1946c:	00d63423          	sd	a3,8(a2)
   19470:	00156513          	ori	a0,a0,1
   19474:	00f60633          	add	a2,a2,a5
   19478:	00a63423          	sd	a0,8(a2)
   1947c:	00883783          	ld	a5,8(a6)
   19480:	01060593          	addi	a1,a2,16
   19484:	00048513          	mv	a0,s1
   19488:	0017e793          	ori	a5,a5,1
   1948c:	00f83423          	sd	a5,8(a6)
   19490:	a79f70ef          	jal	10f08 <_free_r>
   19494:	f8dff06f          	j	19420 <_realloc_r+0x1b4>
   19498:	00c00793          	li	a5,12
   1949c:	00f4a023          	sw	a5,0(s1)
   194a0:	00000693          	li	a3,0
   194a4:	03813083          	ld	ra,56(sp)
   194a8:	03013403          	ld	s0,48(sp)
   194ac:	02813483          	ld	s1,40(sp)
   194b0:	00068513          	mv	a0,a3
   194b4:	04010113          	addi	sp,sp,64
   194b8:	00008067          	ret
   194bc:	ffc57513          	andi	a0,a0,-4
   194c0:	00e50833          	add	a6,a0,a4
   194c4:	02078e13          	addi	t3,a5,32
   194c8:	25c85a63          	bge	a6,t3,1971c <_realloc_r+0x4b0>
   194cc:	0016f693          	andi	a3,a3,1
   194d0:	e60690e3          	bnez	a3,19330 <_realloc_r+0xc4>
   194d4:	ff043303          	ld	t1,-16(s0)
   194d8:	40660333          	sub	t1,a2,t1
   194dc:	00833883          	ld	a7,8(t1)
   194e0:	ffc8f893          	andi	a7,a7,-4
   194e4:	01150533          	add	a0,a0,a7
   194e8:	00e50833          	add	a6,a0,a4
   194ec:	e3c84ee3          	blt	a6,t3,19328 <_realloc_r+0xbc>
   194f0:	01833683          	ld	a3,24(t1)
   194f4:	01033583          	ld	a1,16(t1)
   194f8:	ff870613          	addi	a2,a4,-8
   194fc:	04800713          	li	a4,72
   19500:	00d5bc23          	sd	a3,24(a1)
   19504:	00b6b823          	sd	a1,16(a3)
   19508:	01030693          	addi	a3,t1,16
   1950c:	2ec76263          	bltu	a4,a2,197f0 <_realloc_r+0x584>
   19510:	02700593          	li	a1,39
   19514:	00068713          	mv	a4,a3
   19518:	02c5f263          	bgeu	a1,a2,1953c <_realloc_r+0x2d0>
   1951c:	00043583          	ld	a1,0(s0)
   19520:	03700713          	li	a4,55
   19524:	00b33823          	sd	a1,16(t1)
   19528:	00843583          	ld	a1,8(s0)
   1952c:	00b33c23          	sd	a1,24(t1)
   19530:	30c76a63          	bltu	a4,a2,19844 <_realloc_r+0x5d8>
   19534:	01040413          	addi	s0,s0,16
   19538:	02030713          	addi	a4,t1,32
   1953c:	00043603          	ld	a2,0(s0)
   19540:	00c73023          	sd	a2,0(a4)
   19544:	00843603          	ld	a2,8(s0)
   19548:	00c73423          	sd	a2,8(a4)
   1954c:	01043603          	ld	a2,16(s0)
   19550:	00c73823          	sd	a2,16(a4)
   19554:	00f30633          	add	a2,t1,a5
   19558:	40f80733          	sub	a4,a6,a5
   1955c:	00ceb823          	sd	a2,16(t4)
   19560:	00176713          	ori	a4,a4,1
   19564:	00e63423          	sd	a4,8(a2)
   19568:	00833703          	ld	a4,8(t1)
   1956c:	00048513          	mv	a0,s1
   19570:	00d13023          	sd	a3,0(sp)
   19574:	00177713          	andi	a4,a4,1
   19578:	00f767b3          	or	a5,a4,a5
   1957c:	00f33423          	sd	a5,8(t1)
   19580:	d74f80ef          	jal	11af4 <__malloc_unlock>
   19584:	00013683          	ld	a3,0(sp)
   19588:	ea5ff06f          	j	1942c <_realloc_r+0x1c0>
   1958c:	ff853683          	ld	a3,-8(a0)
   19590:	ffc6f693          	andi	a3,a3,-4
   19594:	00d70733          	add	a4,a4,a3
   19598:	e5dff06f          	j	193f4 <_realloc_r+0x188>
   1959c:	00043583          	ld	a1,0(s0)
   195a0:	03700713          	li	a4,55
   195a4:	00b53023          	sd	a1,0(a0)
   195a8:	00843583          	ld	a1,8(s0)
   195ac:	00b53423          	sd	a1,8(a0)
   195b0:	10c76e63          	bltu	a4,a2,196cc <_realloc_r+0x460>
   195b4:	01040713          	addi	a4,s0,16
   195b8:	01050793          	addi	a5,a0,16
   195bc:	dcdff06f          	j	19388 <_realloc_r+0x11c>
   195c0:	01833683          	ld	a3,24(t1)
   195c4:	01033583          	ld	a1,16(t1)
   195c8:	ff870613          	addi	a2,a4,-8
   195cc:	04800513          	li	a0,72
   195d0:	00d5bc23          	sd	a3,24(a1)
   195d4:	00b6b823          	sd	a1,16(a3)
   195d8:	01030693          	addi	a3,t1,16
   195dc:	10c56863          	bltu	a0,a2,196ec <_realloc_r+0x480>
   195e0:	02700593          	li	a1,39
   195e4:	00068713          	mv	a4,a3
   195e8:	02c5f263          	bgeu	a1,a2,1960c <_realloc_r+0x3a0>
   195ec:	00043583          	ld	a1,0(s0)
   195f0:	03700713          	li	a4,55
   195f4:	00b33823          	sd	a1,16(t1)
   195f8:	00843583          	ld	a1,8(s0)
   195fc:	00b33c23          	sd	a1,24(t1)
   19600:	18c76063          	bltu	a4,a2,19780 <_realloc_r+0x514>
   19604:	01040413          	addi	s0,s0,16
   19608:	02030713          	addi	a4,t1,32
   1960c:	00043603          	ld	a2,0(s0)
   19610:	00c73023          	sd	a2,0(a4)
   19614:	00843603          	ld	a2,8(s0)
   19618:	00c73423          	sd	a2,8(a4)
   1961c:	01043603          	ld	a2,16(s0)
   19620:	00c73823          	sd	a2,16(a4)
   19624:	00068413          	mv	s0,a3
   19628:	00088713          	mv	a4,a7
   1962c:	00030613          	mv	a2,t1
   19630:	dc5ff06f          	j	193f4 <_realloc_r+0x188>
   19634:	00040593          	mv	a1,s0
   19638:	00a13023          	sd	a0,0(sp)
   1963c:	8ccfc0ef          	jal	15708 <memmove>
   19640:	00013683          	ld	a3,0(sp)
   19644:	d5dff06f          	j	193a0 <_realloc_r+0x134>
   19648:	01883583          	ld	a1,24(a6)
   1964c:	01083503          	ld	a0,16(a6)
   19650:	ff870613          	addi	a2,a4,-8
   19654:	04800893          	li	a7,72
   19658:	00b53c23          	sd	a1,24(a0)
   1965c:	00a5b823          	sd	a0,16(a1)
   19660:	01833703          	ld	a4,24(t1)
   19664:	01033583          	ld	a1,16(t1)
   19668:	01030813          	addi	a6,t1,16
   1966c:	00e5bc23          	sd	a4,24(a1)
   19670:	00b73823          	sd	a1,16(a4)
   19674:	0cc8ee63          	bltu	a7,a2,19750 <_realloc_r+0x4e4>
   19678:	02700593          	li	a1,39
   1967c:	00080713          	mv	a4,a6
   19680:	02c5f263          	bgeu	a1,a2,196a4 <_realloc_r+0x438>
   19684:	00043583          	ld	a1,0(s0)
   19688:	03700713          	li	a4,55
   1968c:	00b33823          	sd	a1,16(t1)
   19690:	00843583          	ld	a1,8(s0)
   19694:	00b33c23          	sd	a1,24(t1)
   19698:	12c76a63          	bltu	a4,a2,197cc <_realloc_r+0x560>
   1969c:	01040413          	addi	s0,s0,16
   196a0:	02030713          	addi	a4,t1,32
   196a4:	00043603          	ld	a2,0(s0)
   196a8:	00c73023          	sd	a2,0(a4)
   196ac:	00843603          	ld	a2,8(s0)
   196b0:	00c73423          	sd	a2,8(a4)
   196b4:	01043603          	ld	a2,16(s0)
   196b8:	00c73823          	sd	a2,16(a4)
   196bc:	00080413          	mv	s0,a6
   196c0:	00068713          	mv	a4,a3
   196c4:	00030613          	mv	a2,t1
   196c8:	d2dff06f          	j	193f4 <_realloc_r+0x188>
   196cc:	01043703          	ld	a4,16(s0)
   196d0:	00e53823          	sd	a4,16(a0)
   196d4:	01843703          	ld	a4,24(s0)
   196d8:	00e53c23          	sd	a4,24(a0)
   196dc:	0cf60a63          	beq	a2,a5,197b0 <_realloc_r+0x544>
   196e0:	02040713          	addi	a4,s0,32
   196e4:	02050793          	addi	a5,a0,32
   196e8:	ca1ff06f          	j	19388 <_realloc_r+0x11c>
   196ec:	00068513          	mv	a0,a3
   196f0:	00040593          	mv	a1,s0
   196f4:	00613c23          	sd	t1,24(sp)
   196f8:	00f13823          	sd	a5,16(sp)
   196fc:	01113423          	sd	a7,8(sp)
   19700:	00d13023          	sd	a3,0(sp)
   19704:	804fc0ef          	jal	15708 <memmove>
   19708:	01813303          	ld	t1,24(sp)
   1970c:	01013783          	ld	a5,16(sp)
   19710:	00813883          	ld	a7,8(sp)
   19714:	00013683          	ld	a3,0(sp)
   19718:	f0dff06f          	j	19624 <_realloc_r+0x3b8>
   1971c:	00f60633          	add	a2,a2,a5
   19720:	40f80733          	sub	a4,a6,a5
   19724:	00ceb823          	sd	a2,16(t4)
   19728:	00176713          	ori	a4,a4,1
   1972c:	00e63423          	sd	a4,8(a2)
   19730:	ff843703          	ld	a4,-8(s0)
   19734:	00048513          	mv	a0,s1
   19738:	00177713          	andi	a4,a4,1
   1973c:	00f767b3          	or	a5,a4,a5
   19740:	fef43c23          	sd	a5,-8(s0)
   19744:	bb0f80ef          	jal	11af4 <__malloc_unlock>
   19748:	00040693          	mv	a3,s0
   1974c:	ce1ff06f          	j	1942c <_realloc_r+0x1c0>
   19750:	00080513          	mv	a0,a6
   19754:	00040593          	mv	a1,s0
   19758:	00613c23          	sd	t1,24(sp)
   1975c:	00f13823          	sd	a5,16(sp)
   19760:	00d13423          	sd	a3,8(sp)
   19764:	01013023          	sd	a6,0(sp)
   19768:	fa1fb0ef          	jal	15708 <memmove>
   1976c:	00013803          	ld	a6,0(sp)
   19770:	00813683          	ld	a3,8(sp)
   19774:	01013783          	ld	a5,16(sp)
   19778:	01813303          	ld	t1,24(sp)
   1977c:	f41ff06f          	j	196bc <_realloc_r+0x450>
   19780:	01043703          	ld	a4,16(s0)
   19784:	02e33023          	sd	a4,32(t1)
   19788:	01843703          	ld	a4,24(s0)
   1978c:	02e33423          	sd	a4,40(t1)
   19790:	08a60c63          	beq	a2,a0,19828 <_realloc_r+0x5bc>
   19794:	02040413          	addi	s0,s0,32
   19798:	03030713          	addi	a4,t1,48
   1979c:	e71ff06f          	j	1960c <_realloc_r+0x3a0>
   197a0:	00048513          	mv	a0,s1
   197a4:	b50f80ef          	jal	11af4 <__malloc_unlock>
   197a8:	00000693          	li	a3,0
   197ac:	cf9ff06f          	j	194a4 <_realloc_r+0x238>
   197b0:	02043603          	ld	a2,32(s0)
   197b4:	03040713          	addi	a4,s0,48
   197b8:	03050793          	addi	a5,a0,48
   197bc:	02c53023          	sd	a2,32(a0)
   197c0:	02843603          	ld	a2,40(s0)
   197c4:	02c53423          	sd	a2,40(a0)
   197c8:	bc1ff06f          	j	19388 <_realloc_r+0x11c>
   197cc:	01043583          	ld	a1,16(s0)
   197d0:	04800713          	li	a4,72
   197d4:	02b33023          	sd	a1,32(t1)
   197d8:	01843583          	ld	a1,24(s0)
   197dc:	02b33423          	sd	a1,40(t1)
   197e0:	08e60463          	beq	a2,a4,19868 <_realloc_r+0x5fc>
   197e4:	02040413          	addi	s0,s0,32
   197e8:	03030713          	addi	a4,t1,48
   197ec:	eb9ff06f          	j	196a4 <_realloc_r+0x438>
   197f0:	00068513          	mv	a0,a3
   197f4:	00040593          	mv	a1,s0
   197f8:	00613c23          	sd	t1,24(sp)
   197fc:	00f13823          	sd	a5,16(sp)
   19800:	01013423          	sd	a6,8(sp)
   19804:	00d13023          	sd	a3,0(sp)
   19808:	f01fb0ef          	jal	15708 <memmove>
   1980c:	000207b7          	lui	a5,0x20
   19810:	c7078e93          	addi	t4,a5,-912 # 1fc70 <__malloc_av_>
   19814:	01813303          	ld	t1,24(sp)
   19818:	01013783          	ld	a5,16(sp)
   1981c:	00813803          	ld	a6,8(sp)
   19820:	00013683          	ld	a3,0(sp)
   19824:	d31ff06f          	j	19554 <_realloc_r+0x2e8>
   19828:	02043603          	ld	a2,32(s0)
   1982c:	04030713          	addi	a4,t1,64
   19830:	03040413          	addi	s0,s0,48
   19834:	02c33823          	sd	a2,48(t1)
   19838:	ff843603          	ld	a2,-8(s0)
   1983c:	02c33c23          	sd	a2,56(t1)
   19840:	dcdff06f          	j	1960c <_realloc_r+0x3a0>
   19844:	01043583          	ld	a1,16(s0)
   19848:	04800713          	li	a4,72
   1984c:	02b33023          	sd	a1,32(t1)
   19850:	01843583          	ld	a1,24(s0)
   19854:	02b33423          	sd	a1,40(t1)
   19858:	02e60663          	beq	a2,a4,19884 <_realloc_r+0x618>
   1985c:	02040413          	addi	s0,s0,32
   19860:	03030713          	addi	a4,t1,48
   19864:	cd9ff06f          	j	1953c <_realloc_r+0x2d0>
   19868:	02043603          	ld	a2,32(s0)
   1986c:	04030713          	addi	a4,t1,64
   19870:	03040413          	addi	s0,s0,48
   19874:	02c33823          	sd	a2,48(t1)
   19878:	ff843603          	ld	a2,-8(s0)
   1987c:	02c33c23          	sd	a2,56(t1)
   19880:	e25ff06f          	j	196a4 <_realloc_r+0x438>
   19884:	02043603          	ld	a2,32(s0)
   19888:	04030713          	addi	a4,t1,64
   1988c:	03040413          	addi	s0,s0,48
   19890:	02c33823          	sd	a2,48(t1)
   19894:	ff843603          	ld	a2,-8(s0)
   19898:	02c33c23          	sd	a2,56(t1)
   1989c:	ca1ff06f          	j	1953c <_realloc_r+0x2d0>

00000000000198a0 <__smakebuf_r>:
   198a0:	01059703          	lh	a4,16(a1)
   198a4:	00277793          	andi	a5,a4,2
   198a8:	00078e63          	beqz	a5,198c4 <__smakebuf_r+0x24>
   198ac:	07758793          	addi	a5,a1,119
   198b0:	00100713          	li	a4,1
   198b4:	00f5b023          	sd	a5,0(a1)
   198b8:	00f5bc23          	sd	a5,24(a1)
   198bc:	02e5a023          	sw	a4,32(a1)
   198c0:	00008067          	ret
   198c4:	00058793          	mv	a5,a1
   198c8:	01259583          	lh	a1,18(a1)
   198cc:	f6010113          	addi	sp,sp,-160
   198d0:	08813823          	sd	s0,144(sp)
   198d4:	08113c23          	sd	ra,152(sp)
   198d8:	00050413          	mv	s0,a0
   198dc:	0805ce63          	bltz	a1,19978 <__smakebuf_r+0xd8>
   198e0:	01810613          	addi	a2,sp,24
   198e4:	00f13023          	sd	a5,0(sp)
   198e8:	334000ef          	jal	19c1c <_fstat_r>
   198ec:	00013783          	ld	a5,0(sp)
   198f0:	08054263          	bltz	a0,19974 <__smakebuf_r+0xd4>
   198f4:	40000593          	li	a1,1024
   198f8:	00040513          	mv	a0,s0
   198fc:	08913423          	sd	s1,136(sp)
   19900:	00f13023          	sd	a5,0(sp)
   19904:	01c12483          	lw	s1,28(sp)
   19908:	905f70ef          	jal	1120c <_malloc_r>
   1990c:	00013783          	ld	a5,0(sp)
   19910:	01079703          	lh	a4,16(a5)
   19914:	0c050263          	beqz	a0,199d8 <__smakebuf_r+0x138>
   19918:	40000693          	li	a3,1024
   1991c:	08076713          	ori	a4,a4,128
   19920:	02d7a023          	sw	a3,32(a5)
   19924:	40c4d693          	srai	a3,s1,0xc
   19928:	00e79823          	sh	a4,16(a5)
   1992c:	00a7b023          	sd	a0,0(a5)
   19930:	00a7bc23          	sd	a0,24(a5)
   19934:	00f6f693          	andi	a3,a3,15
   19938:	00200613          	li	a2,2
   1993c:	0cc69663          	bne	a3,a2,19a08 <__smakebuf_r+0x168>
   19940:	01279583          	lh	a1,18(a5)
   19944:	00040513          	mv	a0,s0
   19948:	00f13023          	sd	a5,0(sp)
   1994c:	334000ef          	jal	19c80 <_isatty_r>
   19950:	00013783          	ld	a5,0(sp)
   19954:	01079703          	lh	a4,16(a5)
   19958:	0a050863          	beqz	a0,19a08 <__smakebuf_r+0x168>
   1995c:	ffc77713          	andi	a4,a4,-4
   19960:	000016b7          	lui	a3,0x1
   19964:	08813483          	ld	s1,136(sp)
   19968:	00176713          	ori	a4,a4,1
   1996c:	80068693          	addi	a3,a3,-2048 # 800 <exit-0xf920>
   19970:	0480006f          	j	199b8 <__smakebuf_r+0x118>
   19974:	01079703          	lh	a4,16(a5)
   19978:	08077713          	andi	a4,a4,128
   1997c:	40000593          	li	a1,1024
   19980:	04071863          	bnez	a4,199d0 <__smakebuf_r+0x130>
   19984:	00040513          	mv	a0,s0
   19988:	00f13423          	sd	a5,8(sp)
   1998c:	00b13023          	sd	a1,0(sp)
   19990:	87df70ef          	jal	1120c <_malloc_r>
   19994:	00813783          	ld	a5,8(sp)
   19998:	00013583          	ld	a1,0(sp)
   1999c:	01079703          	lh	a4,16(a5)
   199a0:	02050e63          	beqz	a0,199dc <__smakebuf_r+0x13c>
   199a4:	08076713          	ori	a4,a4,128
   199a8:	00a7b023          	sd	a0,0(a5)
   199ac:	00a7bc23          	sd	a0,24(a5)
   199b0:	02b7a023          	sw	a1,32(a5)
   199b4:	00000693          	li	a3,0
   199b8:	00d76733          	or	a4,a4,a3
   199bc:	00e79823          	sh	a4,16(a5)
   199c0:	09813083          	ld	ra,152(sp)
   199c4:	09013403          	ld	s0,144(sp)
   199c8:	0a010113          	addi	sp,sp,160
   199cc:	00008067          	ret
   199d0:	04000593          	li	a1,64
   199d4:	fb1ff06f          	j	19984 <__smakebuf_r+0xe4>
   199d8:	08813483          	ld	s1,136(sp)
   199dc:	20077693          	andi	a3,a4,512
   199e0:	fe0690e3          	bnez	a3,199c0 <__smakebuf_r+0x120>
   199e4:	ffc77713          	andi	a4,a4,-4
   199e8:	07778693          	addi	a3,a5,119
   199ec:	00276713          	ori	a4,a4,2
   199f0:	00100613          	li	a2,1
   199f4:	00e79823          	sh	a4,16(a5)
   199f8:	00d7b023          	sd	a3,0(a5)
   199fc:	00d7bc23          	sd	a3,24(a5)
   19a00:	02c7a023          	sw	a2,32(a5)
   19a04:	fbdff06f          	j	199c0 <__smakebuf_r+0x120>
   19a08:	000016b7          	lui	a3,0x1
   19a0c:	08813483          	ld	s1,136(sp)
   19a10:	80068693          	addi	a3,a3,-2048 # 800 <exit-0xf920>
   19a14:	fa5ff06f          	j	199b8 <__smakebuf_r+0x118>

0000000000019a18 <__swhatbuf_r>:
   19a18:	00058793          	mv	a5,a1
   19a1c:	01259583          	lh	a1,18(a1)
   19a20:	00060713          	mv	a4,a2
   19a24:	0805ca63          	bltz	a1,19ab8 <__swhatbuf_r+0xa0>
   19a28:	f6010113          	addi	sp,sp,-160
   19a2c:	00c13823          	sd	a2,16(sp)
   19a30:	02810613          	addi	a2,sp,40
   19a34:	00d13c23          	sd	a3,24(sp)
   19a38:	00f13423          	sd	a5,8(sp)
   19a3c:	08113c23          	sd	ra,152(sp)
   19a40:	1dc000ef          	jal	19c1c <_fstat_r>
   19a44:	00813783          	ld	a5,8(sp)
   19a48:	01013703          	ld	a4,16(sp)
   19a4c:	01813683          	ld	a3,24(sp)
   19a50:	02054e63          	bltz	a0,19a8c <__swhatbuf_r+0x74>
   19a54:	02c12783          	lw	a5,44(sp)
   19a58:	0000f5b7          	lui	a1,0xf
   19a5c:	00002637          	lui	a2,0x2
   19a60:	00b7f7b3          	and	a5,a5,a1
   19a64:	40c787b3          	sub	a5,a5,a2
   19a68:	09813083          	ld	ra,152(sp)
   19a6c:	0017b793          	seqz	a5,a5
   19a70:	00f6a023          	sw	a5,0(a3)
   19a74:	40000613          	li	a2,1024
   19a78:	00001537          	lui	a0,0x1
   19a7c:	00c73023          	sd	a2,0(a4)
   19a80:	80050513          	addi	a0,a0,-2048 # 800 <exit-0xf920>
   19a84:	0a010113          	addi	sp,sp,160
   19a88:	00008067          	ret
   19a8c:	0107d783          	lhu	a5,16(a5)
   19a90:	0807f793          	andi	a5,a5,128
   19a94:	04078263          	beqz	a5,19ad8 <__swhatbuf_r+0xc0>
   19a98:	09813083          	ld	ra,152(sp)
   19a9c:	00000793          	li	a5,0
   19aa0:	00f6a023          	sw	a5,0(a3)
   19aa4:	04000613          	li	a2,64
   19aa8:	00c73023          	sd	a2,0(a4)
   19aac:	00000513          	li	a0,0
   19ab0:	0a010113          	addi	sp,sp,160
   19ab4:	00008067          	ret
   19ab8:	0107d783          	lhu	a5,16(a5)
   19abc:	0807f793          	andi	a5,a5,128
   19ac0:	02079a63          	bnez	a5,19af4 <__swhatbuf_r+0xdc>
   19ac4:	40000613          	li	a2,1024
   19ac8:	00f6a023          	sw	a5,0(a3)
   19acc:	00000513          	li	a0,0
   19ad0:	00c73023          	sd	a2,0(a4)
   19ad4:	00008067          	ret
   19ad8:	09813083          	ld	ra,152(sp)
   19adc:	00f6a023          	sw	a5,0(a3)
   19ae0:	40000613          	li	a2,1024
   19ae4:	00c73023          	sd	a2,0(a4)
   19ae8:	00000513          	li	a0,0
   19aec:	0a010113          	addi	sp,sp,160
   19af0:	00008067          	ret
   19af4:	00000793          	li	a5,0
   19af8:	04000613          	li	a2,64
   19afc:	00f6a023          	sw	a5,0(a3)
   19b00:	00000513          	li	a0,0
   19b04:	00c73023          	sd	a2,0(a4)
   19b08:	00008067          	ret

0000000000019b0c <_setlocale_r>:
   19b0c:	04060063          	beqz	a2,19b4c <_setlocale_r+0x40>
   19b10:	0001e5b7          	lui	a1,0x1e
   19b14:	fe010113          	addi	sp,sp,-32
   19b18:	3d858593          	addi	a1,a1,984 # 1e3d8 <__clzdi2+0x18c>
   19b1c:	00060513          	mv	a0,a2
   19b20:	00813823          	sd	s0,16(sp)
   19b24:	00113c23          	sd	ra,24(sp)
   19b28:	00060413          	mv	s0,a2
   19b2c:	1b0000ef          	jal	19cdc <strcmp>
   19b30:	0001e7b7          	lui	a5,0x1e
   19b34:	02051263          	bnez	a0,19b58 <_setlocale_r+0x4c>
   19b38:	3d078513          	addi	a0,a5,976 # 1e3d0 <__clzdi2+0x184>
   19b3c:	01813083          	ld	ra,24(sp)
   19b40:	01013403          	ld	s0,16(sp)
   19b44:	02010113          	addi	sp,sp,32
   19b48:	00008067          	ret
   19b4c:	0001e7b7          	lui	a5,0x1e
   19b50:	3d078513          	addi	a0,a5,976 # 1e3d0 <__clzdi2+0x184>
   19b54:	00008067          	ret
   19b58:	3d078593          	addi	a1,a5,976
   19b5c:	00040513          	mv	a0,s0
   19b60:	00f13423          	sd	a5,8(sp)
   19b64:	178000ef          	jal	19cdc <strcmp>
   19b68:	00813783          	ld	a5,8(sp)
   19b6c:	fc0506e3          	beqz	a0,19b38 <_setlocale_r+0x2c>
   19b70:	0001e5b7          	lui	a1,0x1e
   19b74:	00040513          	mv	a0,s0
   19b78:	2f058593          	addi	a1,a1,752 # 1e2f0 <__clzdi2+0xa4>
   19b7c:	160000ef          	jal	19cdc <strcmp>
   19b80:	00813783          	ld	a5,8(sp)
   19b84:	fa050ae3          	beqz	a0,19b38 <_setlocale_r+0x2c>
   19b88:	00000513          	li	a0,0
   19b8c:	fb1ff06f          	j	19b3c <_setlocale_r+0x30>

0000000000019b90 <__locale_mb_cur_max>:
   19b90:	1681c503          	lbu	a0,360(gp) # 205e0 <__global_locale+0x160>
   19b94:	00008067          	ret

0000000000019b98 <setlocale>:
   19b98:	04058063          	beqz	a1,19bd8 <setlocale+0x40>
   19b9c:	fe010113          	addi	sp,sp,-32
   19ba0:	00813823          	sd	s0,16(sp)
   19ba4:	00058513          	mv	a0,a1
   19ba8:	00058413          	mv	s0,a1
   19bac:	0001e5b7          	lui	a1,0x1e
   19bb0:	3d858593          	addi	a1,a1,984 # 1e3d8 <__clzdi2+0x18c>
   19bb4:	00113c23          	sd	ra,24(sp)
   19bb8:	124000ef          	jal	19cdc <strcmp>
   19bbc:	0001e7b7          	lui	a5,0x1e
   19bc0:	02051263          	bnez	a0,19be4 <setlocale+0x4c>
   19bc4:	3d078513          	addi	a0,a5,976 # 1e3d0 <__clzdi2+0x184>
   19bc8:	01813083          	ld	ra,24(sp)
   19bcc:	01013403          	ld	s0,16(sp)
   19bd0:	02010113          	addi	sp,sp,32
   19bd4:	00008067          	ret
   19bd8:	0001e7b7          	lui	a5,0x1e
   19bdc:	3d078513          	addi	a0,a5,976 # 1e3d0 <__clzdi2+0x184>
   19be0:	00008067          	ret
   19be4:	3d078593          	addi	a1,a5,976
   19be8:	00040513          	mv	a0,s0
   19bec:	00f13423          	sd	a5,8(sp)
   19bf0:	0ec000ef          	jal	19cdc <strcmp>
   19bf4:	00813783          	ld	a5,8(sp)
   19bf8:	fc0506e3          	beqz	a0,19bc4 <setlocale+0x2c>
   19bfc:	0001e5b7          	lui	a1,0x1e
   19c00:	00040513          	mv	a0,s0
   19c04:	2f058593          	addi	a1,a1,752 # 1e2f0 <__clzdi2+0xa4>
   19c08:	0d4000ef          	jal	19cdc <strcmp>
   19c0c:	00813783          	ld	a5,8(sp)
   19c10:	fa050ae3          	beqz	a0,19bc4 <setlocale+0x2c>
   19c14:	00000513          	li	a0,0
   19c18:	fb1ff06f          	j	19bc8 <setlocale+0x30>

0000000000019c1c <_fstat_r>:
   19c1c:	fe010113          	addi	sp,sp,-32
   19c20:	00058793          	mv	a5,a1
   19c24:	00813823          	sd	s0,16(sp)
   19c28:	00913423          	sd	s1,8(sp)
   19c2c:	00060593          	mv	a1,a2
   19c30:	00050493          	mv	s1,a0
   19c34:	00078513          	mv	a0,a5
   19c38:	00113c23          	sd	ra,24(sp)
   19c3c:	2401a023          	sw	zero,576(gp) # 206b8 <errno>
   19c40:	4a1010ef          	jal	1b8e0 <_fstat>
   19c44:	fff00793          	li	a5,-1
   19c48:	00f50c63          	beq	a0,a5,19c60 <_fstat_r+0x44>
   19c4c:	01813083          	ld	ra,24(sp)
   19c50:	01013403          	ld	s0,16(sp)
   19c54:	00813483          	ld	s1,8(sp)
   19c58:	02010113          	addi	sp,sp,32
   19c5c:	00008067          	ret
   19c60:	2401a783          	lw	a5,576(gp) # 206b8 <errno>
   19c64:	fe0784e3          	beqz	a5,19c4c <_fstat_r+0x30>
   19c68:	01813083          	ld	ra,24(sp)
   19c6c:	01013403          	ld	s0,16(sp)
   19c70:	00f4a023          	sw	a5,0(s1)
   19c74:	00813483          	ld	s1,8(sp)
   19c78:	02010113          	addi	sp,sp,32
   19c7c:	00008067          	ret

0000000000019c80 <_isatty_r>:
   19c80:	fe010113          	addi	sp,sp,-32
   19c84:	00813823          	sd	s0,16(sp)
   19c88:	00913423          	sd	s1,8(sp)
   19c8c:	00050493          	mv	s1,a0
   19c90:	00058513          	mv	a0,a1
   19c94:	00113c23          	sd	ra,24(sp)
   19c98:	2401a023          	sw	zero,576(gp) # 206b8 <errno>
   19c9c:	4b5010ef          	jal	1b950 <_isatty>
   19ca0:	fff00793          	li	a5,-1
   19ca4:	00f50c63          	beq	a0,a5,19cbc <_isatty_r+0x3c>
   19ca8:	01813083          	ld	ra,24(sp)
   19cac:	01013403          	ld	s0,16(sp)
   19cb0:	00813483          	ld	s1,8(sp)
   19cb4:	02010113          	addi	sp,sp,32
   19cb8:	00008067          	ret
   19cbc:	2401a783          	lw	a5,576(gp) # 206b8 <errno>
   19cc0:	fe0784e3          	beqz	a5,19ca8 <_isatty_r+0x28>
   19cc4:	01813083          	ld	ra,24(sp)
   19cc8:	01013403          	ld	s0,16(sp)
   19ccc:	00f4a023          	sw	a5,0(s1)
   19cd0:	00813483          	ld	s1,8(sp)
   19cd4:	02010113          	addi	sp,sp,32
   19cd8:	00008067          	ret

0000000000019cdc <strcmp>:
   19cdc:	00b56733          	or	a4,a0,a1
   19ce0:	fff00393          	li	t2,-1
   19ce4:	00777713          	andi	a4,a4,7
   19ce8:	0c071c63          	bnez	a4,19dc0 <strcmp+0xe4>
   19cec:	00007797          	auipc	a5,0x7
   19cf0:	99c7b783          	ld	a5,-1636(a5) # 20688 <mask>
   19cf4:	00053603          	ld	a2,0(a0)
   19cf8:	0005b683          	ld	a3,0(a1)
   19cfc:	00f672b3          	and	t0,a2,a5
   19d00:	00f66333          	or	t1,a2,a5
   19d04:	00f282b3          	add	t0,t0,a5
   19d08:	0062e2b3          	or	t0,t0,t1
   19d0c:	0c729e63          	bne	t0,t2,19de8 <strcmp+0x10c>
   19d10:	04d61663          	bne	a2,a3,19d5c <strcmp+0x80>
   19d14:	00853603          	ld	a2,8(a0)
   19d18:	0085b683          	ld	a3,8(a1)
   19d1c:	00f672b3          	and	t0,a2,a5
   19d20:	00f66333          	or	t1,a2,a5
   19d24:	00f282b3          	add	t0,t0,a5
   19d28:	0062e2b3          	or	t0,t0,t1
   19d2c:	0a729a63          	bne	t0,t2,19de0 <strcmp+0x104>
   19d30:	02d61663          	bne	a2,a3,19d5c <strcmp+0x80>
   19d34:	01053603          	ld	a2,16(a0)
   19d38:	0105b683          	ld	a3,16(a1)
   19d3c:	00f672b3          	and	t0,a2,a5
   19d40:	00f66333          	or	t1,a2,a5
   19d44:	00f282b3          	add	t0,t0,a5
   19d48:	0062e2b3          	or	t0,t0,t1
   19d4c:	0a729463          	bne	t0,t2,19df4 <strcmp+0x118>
   19d50:	01850513          	addi	a0,a0,24
   19d54:	01858593          	addi	a1,a1,24
   19d58:	f8d60ee3          	beq	a2,a3,19cf4 <strcmp+0x18>
   19d5c:	03061713          	slli	a4,a2,0x30
   19d60:	03069793          	slli	a5,a3,0x30
   19d64:	02f71a63          	bne	a4,a5,19d98 <strcmp+0xbc>
   19d68:	02061713          	slli	a4,a2,0x20
   19d6c:	02069793          	slli	a5,a3,0x20
   19d70:	02f71463          	bne	a4,a5,19d98 <strcmp+0xbc>
   19d74:	01061713          	slli	a4,a2,0x10
   19d78:	01069793          	slli	a5,a3,0x10
   19d7c:	00f71e63          	bne	a4,a5,19d98 <strcmp+0xbc>
   19d80:	03065713          	srli	a4,a2,0x30
   19d84:	0306d793          	srli	a5,a3,0x30
   19d88:	40f70533          	sub	a0,a4,a5
   19d8c:	0ff57593          	zext.b	a1,a0
   19d90:	02059063          	bnez	a1,19db0 <strcmp+0xd4>
   19d94:	00008067          	ret
   19d98:	03075713          	srli	a4,a4,0x30
   19d9c:	0307d793          	srli	a5,a5,0x30
   19da0:	40f70533          	sub	a0,a4,a5
   19da4:	0ff57593          	zext.b	a1,a0
   19da8:	00059463          	bnez	a1,19db0 <strcmp+0xd4>
   19dac:	00008067          	ret
   19db0:	0ff77713          	zext.b	a4,a4
   19db4:	0ff7f793          	zext.b	a5,a5
   19db8:	40f70533          	sub	a0,a4,a5
   19dbc:	00008067          	ret
   19dc0:	00054603          	lbu	a2,0(a0)
   19dc4:	0005c683          	lbu	a3,0(a1)
   19dc8:	00150513          	addi	a0,a0,1
   19dcc:	00158593          	addi	a1,a1,1
   19dd0:	00d61463          	bne	a2,a3,19dd8 <strcmp+0xfc>
   19dd4:	fe0616e3          	bnez	a2,19dc0 <strcmp+0xe4>
   19dd8:	40d60533          	sub	a0,a2,a3
   19ddc:	00008067          	ret
   19de0:	00850513          	addi	a0,a0,8
   19de4:	00858593          	addi	a1,a1,8
   19de8:	fcd61ce3          	bne	a2,a3,19dc0 <strcmp+0xe4>
   19dec:	00000513          	li	a0,0
   19df0:	00008067          	ret
   19df4:	01050513          	addi	a0,a0,16
   19df8:	01058593          	addi	a1,a1,16
   19dfc:	fcd612e3          	bne	a2,a3,19dc0 <strcmp+0xe4>
   19e00:	00000513          	li	a0,0
   19e04:	00008067          	ret

0000000000019e08 <__assert_func>:
   19e08:	2201b783          	ld	a5,544(gp) # 20698 <_impure_ptr>
   19e0c:	ff010113          	addi	sp,sp,-16
   19e10:	00060813          	mv	a6,a2
   19e14:	00113423          	sd	ra,8(sp)
   19e18:	00050313          	mv	t1,a0
   19e1c:	00058713          	mv	a4,a1
   19e20:	0187b503          	ld	a0,24(a5)
   19e24:	00068613          	mv	a2,a3
   19e28:	02080063          	beqz	a6,19e48 <__assert_func+0x40>
   19e2c:	0001e7b7          	lui	a5,0x1e
   19e30:	3e878793          	addi	a5,a5,1000 # 1e3e8 <__clzdi2+0x19c>
   19e34:	0001e5b7          	lui	a1,0x1e
   19e38:	00030693          	mv	a3,t1
   19e3c:	3f858593          	addi	a1,a1,1016 # 1e3f8 <__clzdi2+0x1ac>
   19e40:	2a4000ef          	jal	1a0e4 <fiprintf>
   19e44:	4c4010ef          	jal	1b308 <abort>
   19e48:	0001e7b7          	lui	a5,0x1e
   19e4c:	2f078793          	addi	a5,a5,752 # 1e2f0 <__clzdi2+0xa4>
   19e50:	00078813          	mv	a6,a5
   19e54:	fe1ff06f          	j	19e34 <__assert_func+0x2c>

0000000000019e58 <__assert>:
   19e58:	ff010113          	addi	sp,sp,-16
   19e5c:	00060693          	mv	a3,a2
   19e60:	00000613          	li	a2,0
   19e64:	00113423          	sd	ra,8(sp)
   19e68:	fa1ff0ef          	jal	19e08 <__assert_func>

0000000000019e6c <_calloc_r>:
   19e6c:	fe010113          	addi	sp,sp,-32
   19e70:	00813823          	sd	s0,16(sp)
   19e74:	00113c23          	sd	ra,24(sp)
   19e78:	4205d693          	srai	a3,a1,0x20
   19e7c:	00058793          	mv	a5,a1
   19e80:	00050413          	mv	s0,a0
   19e84:	02065713          	srli	a4,a2,0x20
   19e88:	0c069463          	bnez	a3,19f50 <_calloc_r+0xe4>
   19e8c:	14071663          	bnez	a4,19fd8 <_calloc_r+0x16c>
   19e90:	02079513          	slli	a0,a5,0x20
   19e94:	02061593          	slli	a1,a2,0x20
   19e98:	0205d593          	srli	a1,a1,0x20
   19e9c:	02055513          	srli	a0,a0,0x20
   19ea0:	288040ef          	jal	1e128 <__muldi3>
   19ea4:	00050593          	mv	a1,a0
   19ea8:	00040513          	mv	a0,s0
   19eac:	b60f70ef          	jal	1120c <_malloc_r>
   19eb0:	00050793          	mv	a5,a0
   19eb4:	10050663          	beqz	a0,19fc0 <_calloc_r+0x154>
   19eb8:	ff853603          	ld	a2,-8(a0)
   19ebc:	04800693          	li	a3,72
   19ec0:	ffc67613          	andi	a2,a2,-4
   19ec4:	ff860613          	addi	a2,a2,-8 # 1ff8 <exit-0xe128>
   19ec8:	04c6e863          	bltu	a3,a2,19f18 <_calloc_r+0xac>
   19ecc:	02700593          	li	a1,39
   19ed0:	00050713          	mv	a4,a0
   19ed4:	02c5f263          	bgeu	a1,a2,19ef8 <_calloc_r+0x8c>
   19ed8:	00053023          	sd	zero,0(a0)
   19edc:	00053423          	sd	zero,8(a0)
   19ee0:	03700713          	li	a4,55
   19ee4:	04c77c63          	bgeu	a4,a2,19f3c <_calloc_r+0xd0>
   19ee8:	00053823          	sd	zero,16(a0)
   19eec:	00053c23          	sd	zero,24(a0)
   19ef0:	02050713          	addi	a4,a0,32
   19ef4:	0ed60663          	beq	a2,a3,19fe0 <_calloc_r+0x174>
   19ef8:	00073023          	sd	zero,0(a4)
   19efc:	00073423          	sd	zero,8(a4)
   19f00:	00073823          	sd	zero,16(a4)
   19f04:	01813083          	ld	ra,24(sp)
   19f08:	01013403          	ld	s0,16(sp)
   19f0c:	00078513          	mv	a0,a5
   19f10:	02010113          	addi	sp,sp,32
   19f14:	00008067          	ret
   19f18:	00000593          	li	a1,0
   19f1c:	00a13023          	sd	a0,0(sp)
   19f20:	c9df60ef          	jal	10bbc <memset>
   19f24:	00013783          	ld	a5,0(sp)
   19f28:	01813083          	ld	ra,24(sp)
   19f2c:	01013403          	ld	s0,16(sp)
   19f30:	00078513          	mv	a0,a5
   19f34:	02010113          	addi	sp,sp,32
   19f38:	00008067          	ret
   19f3c:	01050713          	addi	a4,a0,16
   19f40:	00073023          	sd	zero,0(a4)
   19f44:	00073423          	sd	zero,8(a4)
   19f48:	00073823          	sd	zero,16(a4)
   19f4c:	fb9ff06f          	j	19f04 <_calloc_r+0x98>
   19f50:	0a071063          	bnez	a4,19ff0 <_calloc_r+0x184>
   19f54:	0205d593          	srli	a1,a1,0x20
   19f58:	00058713          	mv	a4,a1
   19f5c:	00060693          	mv	a3,a2
   19f60:	02079513          	slli	a0,a5,0x20
   19f64:	02061593          	slli	a1,a2,0x20
   19f68:	0205d593          	srli	a1,a1,0x20
   19f6c:	02055513          	srli	a0,a0,0x20
   19f70:	00e12423          	sw	a4,8(sp)
   19f74:	00d12623          	sw	a3,12(sp)
   19f78:	1b0040ef          	jal	1e128 <__muldi3>
   19f7c:	00a13023          	sd	a0,0(sp)
   19f80:	00816583          	lwu	a1,8(sp)
   19f84:	00c16503          	lwu	a0,12(sp)
   19f88:	1a0040ef          	jal	1e128 <__muldi3>
   19f8c:	00013783          	ld	a5,0(sp)
   19f90:	0207d713          	srli	a4,a5,0x20
   19f94:	00e50533          	add	a0,a0,a4
   19f98:	42055713          	srai	a4,a0,0x20
   19f9c:	04071a63          	bnez	a4,19ff0 <_calloc_r+0x184>
   19fa0:	02079793          	slli	a5,a5,0x20
   19fa4:	0207d793          	srli	a5,a5,0x20
   19fa8:	02051593          	slli	a1,a0,0x20
   19fac:	00f5e5b3          	or	a1,a1,a5
   19fb0:	00040513          	mv	a0,s0
   19fb4:	a58f70ef          	jal	1120c <_malloc_r>
   19fb8:	00050793          	mv	a5,a0
   19fbc:	ee051ee3          	bnez	a0,19eb8 <_calloc_r+0x4c>
   19fc0:	00000793          	li	a5,0
   19fc4:	01813083          	ld	ra,24(sp)
   19fc8:	01013403          	ld	s0,16(sp)
   19fcc:	00078513          	mv	a0,a5
   19fd0:	02010113          	addi	sp,sp,32
   19fd4:	00008067          	ret
   19fd8:	00058693          	mv	a3,a1
   19fdc:	f85ff06f          	j	19f60 <_calloc_r+0xf4>
   19fe0:	02053023          	sd	zero,32(a0)
   19fe4:	02053423          	sd	zero,40(a0)
   19fe8:	03050713          	addi	a4,a0,48
   19fec:	f0dff06f          	j	19ef8 <_calloc_r+0x8c>
   19ff0:	310010ef          	jal	1b300 <__errno>
   19ff4:	00c00793          	li	a5,12
   19ff8:	00f52023          	sw	a5,0(a0)
   19ffc:	00000793          	li	a5,0
   1a000:	fc5ff06f          	j	19fc4 <_calloc_r+0x158>

000000000001a004 <_mbtowc_r>:
   1a004:	0f01b783          	ld	a5,240(gp) # 20568 <__global_locale+0xe8>
   1a008:	00078067          	jr	a5

000000000001a00c <__ascii_mbtowc>:
   1a00c:	02058063          	beqz	a1,1a02c <__ascii_mbtowc+0x20>
   1a010:	04060263          	beqz	a2,1a054 <__ascii_mbtowc+0x48>
   1a014:	04068863          	beqz	a3,1a064 <__ascii_mbtowc+0x58>
   1a018:	00064783          	lbu	a5,0(a2)
   1a01c:	00f5a023          	sw	a5,0(a1)
   1a020:	00064503          	lbu	a0,0(a2)
   1a024:	00a03533          	snez	a0,a0
   1a028:	00008067          	ret
   1a02c:	ff010113          	addi	sp,sp,-16
   1a030:	00c10593          	addi	a1,sp,12
   1a034:	02060463          	beqz	a2,1a05c <__ascii_mbtowc+0x50>
   1a038:	02068a63          	beqz	a3,1a06c <__ascii_mbtowc+0x60>
   1a03c:	00064783          	lbu	a5,0(a2)
   1a040:	00f5a023          	sw	a5,0(a1)
   1a044:	00064503          	lbu	a0,0(a2)
   1a048:	00a03533          	snez	a0,a0
   1a04c:	01010113          	addi	sp,sp,16
   1a050:	00008067          	ret
   1a054:	00000513          	li	a0,0
   1a058:	00008067          	ret
   1a05c:	00000513          	li	a0,0
   1a060:	fedff06f          	j	1a04c <__ascii_mbtowc+0x40>
   1a064:	ffe00513          	li	a0,-2
   1a068:	00008067          	ret
   1a06c:	ffe00513          	li	a0,-2
   1a070:	fddff06f          	j	1a04c <__ascii_mbtowc+0x40>

000000000001a074 <_wctomb_r>:
   1a074:	0e81b783          	ld	a5,232(gp) # 20560 <__global_locale+0xe0>
   1a078:	00078067          	jr	a5

000000000001a07c <__ascii_wctomb>:
   1a07c:	02058463          	beqz	a1,1a0a4 <__ascii_wctomb+0x28>
   1a080:	0ff00793          	li	a5,255
   1a084:	00c7e863          	bltu	a5,a2,1a094 <__ascii_wctomb+0x18>
   1a088:	00c58023          	sb	a2,0(a1)
   1a08c:	00100513          	li	a0,1
   1a090:	00008067          	ret
   1a094:	08a00793          	li	a5,138
   1a098:	00f52023          	sw	a5,0(a0)
   1a09c:	fff00513          	li	a0,-1
   1a0a0:	00008067          	ret
   1a0a4:	00000513          	li	a0,0
   1a0a8:	00008067          	ret

000000000001a0ac <_fiprintf_r>:
   1a0ac:	fb010113          	addi	sp,sp,-80
   1a0b0:	02810313          	addi	t1,sp,40
   1a0b4:	02d13423          	sd	a3,40(sp)
   1a0b8:	00030693          	mv	a3,t1
   1a0bc:	00113c23          	sd	ra,24(sp)
   1a0c0:	02e13823          	sd	a4,48(sp)
   1a0c4:	02f13c23          	sd	a5,56(sp)
   1a0c8:	05013023          	sd	a6,64(sp)
   1a0cc:	05113423          	sd	a7,72(sp)
   1a0d0:	00613423          	sd	t1,8(sp)
   1a0d4:	060000ef          	jal	1a134 <_vfiprintf_r>
   1a0d8:	01813083          	ld	ra,24(sp)
   1a0dc:	05010113          	addi	sp,sp,80
   1a0e0:	00008067          	ret

000000000001a0e4 <fiprintf>:
   1a0e4:	fb010113          	addi	sp,sp,-80
   1a0e8:	00050e93          	mv	t4,a0
   1a0ec:	2201b503          	ld	a0,544(gp) # 20698 <_impure_ptr>
   1a0f0:	00058e13          	mv	t3,a1
   1a0f4:	02010313          	addi	t1,sp,32
   1a0f8:	02c13023          	sd	a2,32(sp)
   1a0fc:	02d13423          	sd	a3,40(sp)
   1a100:	000e8593          	mv	a1,t4
   1a104:	000e0613          	mv	a2,t3
   1a108:	00030693          	mv	a3,t1
   1a10c:	00113c23          	sd	ra,24(sp)
   1a110:	02e13823          	sd	a4,48(sp)
   1a114:	02f13c23          	sd	a5,56(sp)
   1a118:	05013023          	sd	a6,64(sp)
   1a11c:	05113423          	sd	a7,72(sp)
   1a120:	00613423          	sd	t1,8(sp)
   1a124:	010000ef          	jal	1a134 <_vfiprintf_r>
   1a128:	01813083          	ld	ra,24(sp)
   1a12c:	05010113          	addi	sp,sp,80
   1a130:	00008067          	ret

000000000001a134 <_vfiprintf_r>:
   1a134:	e3010113          	addi	sp,sp,-464
   1a138:	1b413023          	sd	s4,416(sp)
   1a13c:	17a13823          	sd	s10,368(sp)
   1a140:	17b13423          	sd	s11,360(sp)
   1a144:	1c113423          	sd	ra,456(sp)
   1a148:	00a13023          	sd	a0,0(sp)
   1a14c:	00060d93          	mv	s11,a2
   1a150:	00068d13          	mv	s10,a3
   1a154:	00058a13          	mv	s4,a1
   1a158:	00050663          	beqz	a0,1a164 <_vfiprintf_r+0x30>
   1a15c:	04853783          	ld	a5,72(a0)
   1a160:	6c0784e3          	beqz	a5,1b028 <_vfiprintf_r+0xef4>
   1a164:	010a1783          	lh	a5,16(s4)
   1a168:	0aca2703          	lw	a4,172(s4)
   1a16c:	00002637          	lui	a2,0x2
   1a170:	03279693          	slli	a3,a5,0x32
   1a174:	3606ce63          	bltz	a3,1a4f0 <_vfiprintf_r+0x3bc>
   1a178:	ffffe6b7          	lui	a3,0xffffe
   1a17c:	00c7e7b3          	or	a5,a5,a2
   1a180:	fff68693          	addi	a3,a3,-1 # ffffffffffffdfff <__BSS_END__+0xfffffffffffdd387>
   1a184:	00d77733          	and	a4,a4,a3
   1a188:	00fa1823          	sh	a5,16(s4)
   1a18c:	0107979b          	slliw	a5,a5,0x10
   1a190:	4107d79b          	sraiw	a5,a5,0x10
   1a194:	0aea2623          	sw	a4,172(s4)
   1a198:	0087f713          	andi	a4,a5,8
   1a19c:	28070a63          	beqz	a4,1a430 <_vfiprintf_r+0x2fc>
   1a1a0:	018a3703          	ld	a4,24(s4)
   1a1a4:	28070663          	beqz	a4,1a430 <_vfiprintf_r+0x2fc>
   1a1a8:	01a7f793          	andi	a5,a5,26
   1a1ac:	00a00713          	li	a4,10
   1a1b0:	2ae78063          	beq	a5,a4,1a450 <_vfiprintf_r+0x31c>
   1a1b4:	0001f737          	lui	a4,0x1f
   1a1b8:	19713423          	sd	s7,392(sp)
   1a1bc:	19813023          	sd	s8,384(sp)
   1a1c0:	0e010b93          	addi	s7,sp,224
   1a1c4:	0001fc37          	lui	s8,0x1f
   1a1c8:	81470713          	addi	a4,a4,-2028 # 1e814 <_ctype_+0x104>
   1a1cc:	1b213823          	sd	s2,432(sp)
   1a1d0:	1c813023          	sd	s0,448(sp)
   1a1d4:	1a913c23          	sd	s1,440(sp)
   1a1d8:	1b313423          	sd	s3,424(sp)
   1a1dc:	19513c23          	sd	s5,408(sp)
   1a1e0:	19613823          	sd	s6,400(sp)
   1a1e4:	17913c23          	sd	s9,376(sp)
   1a1e8:	06013823          	sd	zero,112(sp)
   1a1ec:	06012423          	sw	zero,104(sp)
   1a1f0:	07713023          	sd	s7,96(sp)
   1a1f4:	000b8793          	mv	a5,s7
   1a1f8:	00e13c23          	sd	a4,24(sp)
   1a1fc:	980c0c13          	addi	s8,s8,-1664 # 1e980 <zeroes.0>
   1a200:	02013823          	sd	zero,48(sp)
   1a204:	04013023          	sd	zero,64(sp)
   1a208:	02013c23          	sd	zero,56(sp)
   1a20c:	00013423          	sd	zero,8(sp)
   1a210:	01000913          	li	s2,16
   1a214:	000dc683          	lbu	a3,0(s11)
   1a218:	000d8413          	mv	s0,s11
   1a21c:	fdb68713          	addi	a4,a3,-37
   1a220:	0006861b          	sext.w	a2,a3
   1a224:	06070463          	beqz	a4,1a28c <_vfiprintf_r+0x158>
   1a228:	06060263          	beqz	a2,1a28c <_vfiprintf_r+0x158>
   1a22c:	00040493          	mv	s1,s0
   1a230:	00144683          	lbu	a3,1(s0)
   1a234:	00140413          	addi	s0,s0,1
   1a238:	0006871b          	sext.w	a4,a3
   1a23c:	00068663          	beqz	a3,1a248 <_vfiprintf_r+0x114>
   1a240:	fdb70713          	addi	a4,a4,-37
   1a244:	fe0714e3          	bnez	a4,1a22c <_vfiprintf_r+0xf8>
   1a248:	41b409bb          	subw	s3,s0,s11
   1a24c:	04098063          	beqz	s3,1a28c <_vfiprintf_r+0x158>
   1a250:	07013683          	ld	a3,112(sp)
   1a254:	06812703          	lw	a4,104(sp)
   1a258:	01b7b023          	sd	s11,0(a5)
   1a25c:	013686b3          	add	a3,a3,s3
   1a260:	0017071b          	addiw	a4,a4,1
   1a264:	0137b423          	sd	s3,8(a5)
   1a268:	06d13823          	sd	a3,112(sp)
   1a26c:	06e12423          	sw	a4,104(sp)
   1a270:	00700693          	li	a3,7
   1a274:	01078793          	addi	a5,a5,16
   1a278:	20e6c463          	blt	a3,a4,1a480 <_vfiprintf_r+0x34c>
   1a27c:	00813703          	ld	a4,8(sp)
   1a280:	0014c683          	lbu	a3,1(s1)
   1a284:	0137073b          	addw	a4,a4,s3
   1a288:	00e13423          	sd	a4,8(sp)
   1a28c:	20068863          	beqz	a3,1a49c <_vfiprintf_r+0x368>
   1a290:	00144703          	lbu	a4,1(s0)
   1a294:	00140d93          	addi	s11,s0,1
   1a298:	04010ba3          	sb	zero,87(sp)
   1a29c:	fff00413          	li	s0,-1
   1a2a0:	00000993          	li	s3,0
   1a2a4:	00000493          	li	s1,0
   1a2a8:	05a00a93          	li	s5,90
   1a2ac:	001d8d93          	addi	s11,s11,1
   1a2b0:	0007071b          	sext.w	a4,a4
   1a2b4:	fe07069b          	addiw	a3,a4,-32
   1a2b8:	04daea63          	bltu	s5,a3,1a30c <_vfiprintf_r+0x1d8>
   1a2bc:	02069613          	slli	a2,a3,0x20
   1a2c0:	01e65693          	srli	a3,a2,0x1e
   1a2c4:	01813603          	ld	a2,24(sp)
   1a2c8:	00c686b3          	add	a3,a3,a2
   1a2cc:	0006a683          	lw	a3,0(a3)
   1a2d0:	00068067          	jr	a3
   1a2d4:	00000993          	li	s3,0
   1a2d8:	00900513          	li	a0,9
   1a2dc:	000dc603          	lbu	a2,0(s11)
   1a2e0:	0029969b          	slliw	a3,s3,0x2
   1a2e4:	013686bb          	addw	a3,a3,s3
   1a2e8:	fd07071b          	addiw	a4,a4,-48
   1a2ec:	0016969b          	slliw	a3,a3,0x1
   1a2f0:	fd06059b          	addiw	a1,a2,-48 # 1fd0 <exit-0xe150>
   1a2f4:	001d8d93          	addi	s11,s11,1
   1a2f8:	00d709bb          	addw	s3,a4,a3
   1a2fc:	0006071b          	sext.w	a4,a2
   1a300:	fcb57ee3          	bgeu	a0,a1,1a2dc <_vfiprintf_r+0x1a8>
   1a304:	fe07069b          	addiw	a3,a4,-32
   1a308:	fadafae3          	bgeu	s5,a3,1a2bc <_vfiprintf_r+0x188>
   1a30c:	18070863          	beqz	a4,1a49c <_vfiprintf_r+0x368>
   1a310:	00100c93          	li	s9,1
   1a314:	06e10c23          	sb	a4,120(sp)
   1a318:	04010ba3          	sb	zero,87(sp)
   1a31c:	000c8a93          	mv	s5,s9
   1a320:	00000413          	li	s0,0
   1a324:	07810b13          	addi	s6,sp,120
   1a328:	07013583          	ld	a1,112(sp)
   1a32c:	06812603          	lw	a2,104(sp)
   1a330:	0844f313          	andi	t1,s1,132
   1a334:	00058693          	mv	a3,a1
   1a338:	00060713          	mv	a4,a2
   1a33c:	06031e63          	bnez	t1,1a3b8 <_vfiprintf_r+0x284>
   1a340:	41598ebb          	subw	t4,s3,s5
   1a344:	1fd048e3          	bgtz	t4,1ad34 <_vfiprintf_r+0xc00>
   1a348:	05714603          	lbu	a2,87(sp)
   1a34c:	06060a63          	beqz	a2,1a3c0 <_vfiprintf_r+0x28c>
   1a350:	00000313          	li	t1,0
   1a354:	02013423          	sd	zero,40(sp)
   1a358:	05710613          	addi	a2,sp,87
   1a35c:	00c7b023          	sd	a2,0(a5)
   1a360:	00168693          	addi	a3,a3,1
   1a364:	00100613          	li	a2,1
   1a368:	0017071b          	addiw	a4,a4,1
   1a36c:	00c7b423          	sd	a2,8(a5)
   1a370:	06d13823          	sd	a3,112(sp)
   1a374:	06e12423          	sw	a4,104(sp)
   1a378:	00700613          	li	a2,7
   1a37c:	01078793          	addi	a5,a5,16
   1a380:	08e646e3          	blt	a2,a4,1ac0c <_vfiprintf_r+0xad8>
   1a384:	02813603          	ld	a2,40(sp)
   1a388:	02060863          	beqz	a2,1a3b8 <_vfiprintf_r+0x284>
   1a38c:	05810613          	addi	a2,sp,88
   1a390:	00c7b023          	sd	a2,0(a5)
   1a394:	00268693          	addi	a3,a3,2
   1a398:	00200613          	li	a2,2
   1a39c:	0017071b          	addiw	a4,a4,1
   1a3a0:	00c7b423          	sd	a2,8(a5)
   1a3a4:	06d13823          	sd	a3,112(sp)
   1a3a8:	06e12423          	sw	a4,104(sp)
   1a3ac:	00700613          	li	a2,7
   1a3b0:	01078793          	addi	a5,a5,16
   1a3b4:	02e646e3          	blt	a2,a4,1abe0 <_vfiprintf_r+0xaac>
   1a3b8:	08000613          	li	a2,128
   1a3bc:	66c30263          	beq	t1,a2,1aa20 <_vfiprintf_r+0x8ec>
   1a3c0:	4194043b          	subw	s0,s0,s9
   1a3c4:	72804a63          	bgtz	s0,1aaf8 <_vfiprintf_r+0x9c4>
   1a3c8:	00dc86b3          	add	a3,s9,a3
   1a3cc:	0017071b          	addiw	a4,a4,1
   1a3d0:	0167b023          	sd	s6,0(a5)
   1a3d4:	0197b423          	sd	s9,8(a5)
   1a3d8:	06d13823          	sd	a3,112(sp)
   1a3dc:	06e12423          	sw	a4,104(sp)
   1a3e0:	00700613          	li	a2,7
   1a3e4:	01078793          	addi	a5,a5,16
   1a3e8:	7ce64063          	blt	a2,a4,1aba8 <_vfiprintf_r+0xa74>
   1a3ec:	0044f493          	andi	s1,s1,4
   1a3f0:	00048663          	beqz	s1,1a3fc <_vfiprintf_r+0x2c8>
   1a3f4:	4159843b          	subw	s0,s3,s5
   1a3f8:	048040e3          	bgtz	s0,1ac38 <_vfiprintf_r+0xb04>
   1a3fc:	00098793          	mv	a5,s3
   1a400:	0159d463          	bge	s3,s5,1a408 <_vfiprintf_r+0x2d4>
   1a404:	000a8793          	mv	a5,s5
   1a408:	00813703          	ld	a4,8(sp)
   1a40c:	00e787bb          	addw	a5,a5,a4
   1a410:	00f13423          	sd	a5,8(sp)
   1a414:	7a069a63          	bnez	a3,1abc8 <_vfiprintf_r+0xa94>
   1a418:	06012423          	sw	zero,104(sp)
   1a41c:	000b8793          	mv	a5,s7
   1a420:	df5ff06f          	j	1a214 <_vfiprintf_r+0xe0>
   1a424:	000dc703          	lbu	a4,0(s11)
   1a428:	0104e493          	ori	s1,s1,16
   1a42c:	e81ff06f          	j	1a2ac <_vfiprintf_r+0x178>
   1a430:	00013503          	ld	a0,0(sp)
   1a434:	000a0593          	mv	a1,s4
   1a438:	f21fa0ef          	jal	15358 <__swsetup_r>
   1a43c:	0a051e63          	bnez	a0,1a4f8 <_vfiprintf_r+0x3c4>
   1a440:	010a1783          	lh	a5,16(s4)
   1a444:	00a00713          	li	a4,10
   1a448:	01a7f793          	andi	a5,a5,26
   1a44c:	d6e794e3          	bne	a5,a4,1a1b4 <_vfiprintf_r+0x80>
   1a450:	012a1783          	lh	a5,18(s4)
   1a454:	d607c0e3          	bltz	a5,1a1b4 <_vfiprintf_r+0x80>
   1a458:	00013503          	ld	a0,0(sp)
   1a45c:	1c813083          	ld	ra,456(sp)
   1a460:	000d0693          	mv	a3,s10
   1a464:	000d8613          	mv	a2,s11
   1a468:	17013d03          	ld	s10,368(sp)
   1a46c:	16813d83          	ld	s11,360(sp)
   1a470:	000a0593          	mv	a1,s4
   1a474:	1a013a03          	ld	s4,416(sp)
   1a478:	1d010113          	addi	sp,sp,464
   1a47c:	5c50006f          	j	1b240 <__sbprintf>
   1a480:	00013503          	ld	a0,0(sp)
   1a484:	06010613          	addi	a2,sp,96
   1a488:	000a0593          	mv	a1,s4
   1a48c:	d4cfa0ef          	jal	149d8 <__sprint_r>
   1a490:	00051a63          	bnez	a0,1a4a4 <_vfiprintf_r+0x370>
   1a494:	000b8793          	mv	a5,s7
   1a498:	de5ff06f          	j	1a27c <_vfiprintf_r+0x148>
   1a49c:	07013783          	ld	a5,112(sp)
   1a4a0:	4a0798e3          	bnez	a5,1b150 <_vfiprintf_r+0x101c>
   1a4a4:	010a5783          	lhu	a5,16(s4)
   1a4a8:	1c013403          	ld	s0,448(sp)
   1a4ac:	1b813483          	ld	s1,440(sp)
   1a4b0:	0407f793          	andi	a5,a5,64
   1a4b4:	1b013903          	ld	s2,432(sp)
   1a4b8:	1a813983          	ld	s3,424(sp)
   1a4bc:	19813a83          	ld	s5,408(sp)
   1a4c0:	19013b03          	ld	s6,400(sp)
   1a4c4:	18813b83          	ld	s7,392(sp)
   1a4c8:	18013c03          	ld	s8,384(sp)
   1a4cc:	17813c83          	ld	s9,376(sp)
   1a4d0:	02079463          	bnez	a5,1a4f8 <_vfiprintf_r+0x3c4>
   1a4d4:	1c813083          	ld	ra,456(sp)
   1a4d8:	00813503          	ld	a0,8(sp)
   1a4dc:	1a013a03          	ld	s4,416(sp)
   1a4e0:	17013d03          	ld	s10,368(sp)
   1a4e4:	16813d83          	ld	s11,360(sp)
   1a4e8:	1d010113          	addi	sp,sp,464
   1a4ec:	00008067          	ret
   1a4f0:	03271693          	slli	a3,a4,0x32
   1a4f4:	ca06d2e3          	bgez	a3,1a198 <_vfiprintf_r+0x64>
   1a4f8:	fff00793          	li	a5,-1
   1a4fc:	00f13423          	sd	a5,8(sp)
   1a500:	fd5ff06f          	j	1a4d4 <_vfiprintf_r+0x3a0>
   1a504:	0204f713          	andi	a4,s1,32
   1a508:	008d0613          	addi	a2,s10,8
   1a50c:	0e071c63          	bnez	a4,1a604 <_vfiprintf_r+0x4d0>
   1a510:	0104f713          	andi	a4,s1,16
   1a514:	0e071863          	bnez	a4,1a604 <_vfiprintf_r+0x4d0>
   1a518:	0404f693          	andi	a3,s1,64
   1a51c:	000d2703          	lw	a4,0(s10)
   1a520:	340688e3          	beqz	a3,1b070 <_vfiprintf_r+0xf3c>
   1a524:	0107171b          	slliw	a4,a4,0x10
   1a528:	4107571b          	sraiw	a4,a4,0x10
   1a52c:	00060d13          	mv	s10,a2
   1a530:	00070693          	mv	a3,a4
   1a534:	0e06c063          	bltz	a3,1a614 <_vfiprintf_r+0x4e0>
   1a538:	26044a63          	bltz	s0,1a7ac <_vfiprintf_r+0x678>
   1a53c:	f7f4f493          	andi	s1,s1,-129
   1a540:	26041663          	bnez	s0,1a7ac <_vfiprintf_r+0x678>
   1a544:	26071463          	bnez	a4,1a7ac <_vfiprintf_r+0x678>
   1a548:	05714703          	lbu	a4,87(sp)
   1a54c:	00000c93          	li	s9,0
   1a550:	00000413          	li	s0,0
   1a554:	0dc10b13          	addi	s6,sp,220
   1a558:	24070463          	beqz	a4,1a7a0 <_vfiprintf_r+0x66c>
   1a55c:	00100a93          	li	s5,1
   1a560:	07013683          	ld	a3,112(sp)
   1a564:	06812703          	lw	a4,104(sp)
   1a568:	0844f313          	andi	t1,s1,132
   1a56c:	00068593          	mv	a1,a3
   1a570:	00070613          	mv	a2,a4
   1a574:	dc0306e3          	beqz	t1,1a340 <_vfiprintf_r+0x20c>
   1a578:	02013423          	sd	zero,40(sp)
   1a57c:	dddff06f          	j	1a358 <_vfiprintf_r+0x224>
   1a580:	000d3b03          	ld	s6,0(s10)
   1a584:	04010ba3          	sb	zero,87(sp)
   1a588:	008d0d13          	addi	s10,s10,8
   1a58c:	2c0b02e3          	beqz	s6,1b050 <_vfiprintf_r+0xf1c>
   1a590:	00f13823          	sd	a5,16(sp)
   1a594:	1e0440e3          	bltz	s0,1af74 <_vfiprintf_r+0xe40>
   1a598:	00040613          	mv	a2,s0
   1a59c:	00000593          	li	a1,0
   1a5a0:	000b0513          	mv	a0,s6
   1a5a4:	f19fa0ef          	jal	154bc <memchr>
   1a5a8:	05714703          	lbu	a4,87(sp)
   1a5ac:	01013783          	ld	a5,16(sp)
   1a5b0:	420500e3          	beqz	a0,1b1d0 <_vfiprintf_r+0x109c>
   1a5b4:	41650cbb          	subw	s9,a0,s6
   1a5b8:	000c8693          	mv	a3,s9
   1a5bc:	000cd463          	bgez	s9,1a5c4 <_vfiprintf_r+0x490>
   1a5c0:	00000693          	li	a3,0
   1a5c4:	00068a9b          	sext.w	s5,a3
   1a5c8:	1e0704e3          	beqz	a4,1afb0 <_vfiprintf_r+0xe7c>
   1a5cc:	00168a9b          	addiw	s5,a3,1
   1a5d0:	00000413          	li	s0,0
   1a5d4:	f8dff06f          	j	1a560 <_vfiprintf_r+0x42c>
   1a5d8:	000d2703          	lw	a4,0(s10)
   1a5dc:	00100c93          	li	s9,1
   1a5e0:	04010ba3          	sb	zero,87(sp)
   1a5e4:	06e10c23          	sb	a4,120(sp)
   1a5e8:	008d0d13          	addi	s10,s10,8
   1a5ec:	000c8a93          	mv	s5,s9
   1a5f0:	00000413          	li	s0,0
   1a5f4:	07810b13          	addi	s6,sp,120
   1a5f8:	d31ff06f          	j	1a328 <_vfiprintf_r+0x1f4>
   1a5fc:	0104e493          	ori	s1,s1,16
   1a600:	008d0613          	addi	a2,s10,8
   1a604:	000d3683          	ld	a3,0(s10)
   1a608:	00060d13          	mv	s10,a2
   1a60c:	00068713          	mv	a4,a3
   1a610:	f206d4e3          	bgez	a3,1a538 <_vfiprintf_r+0x404>
   1a614:	02d00693          	li	a3,45
   1a618:	04d10ba3          	sb	a3,87(sp)
   1a61c:	40e00733          	neg	a4,a4
   1a620:	18044663          	bltz	s0,1a7ac <_vfiprintf_r+0x678>
   1a624:	00900693          	li	a3,9
   1a628:	f7f4f493          	andi	s1,s1,-129
   1a62c:	18e6f463          	bgeu	a3,a4,1a7b4 <_vfiprintf_r+0x680>
   1a630:	0dc10c93          	addi	s9,sp,220
   1a634:	4004f693          	andi	a3,s1,1024
   1a638:	000c8a93          	mv	s5,s9
   1a63c:	04d13423          	sd	a3,72(sp)
   1a640:	00013823          	sd	zero,16(sp)
   1a644:	0300006f          	j	1a674 <_vfiprintf_r+0x540>
   1a648:	00070513          	mv	a0,a4
   1a64c:	00a00593          	li	a1,10
   1a650:	02e13423          	sd	a4,40(sp)
   1a654:	02f13023          	sd	a5,32(sp)
   1a658:	33d030ef          	jal	1e194 <__hidden___udivdi3>
   1a65c:	02813683          	ld	a3,40(sp)
   1a660:	00900613          	li	a2,9
   1a664:	02013783          	ld	a5,32(sp)
   1a668:	000b0a93          	mv	s5,s6
   1a66c:	00050713          	mv	a4,a0
   1a670:	06d67063          	bgeu	a2,a3,1a6d0 <_vfiprintf_r+0x59c>
   1a674:	00070513          	mv	a0,a4
   1a678:	00a00593          	li	a1,10
   1a67c:	02f13423          	sd	a5,40(sp)
   1a680:	02e13023          	sd	a4,32(sp)
   1a684:	359030ef          	jal	1e1dc <__umoddi3>
   1a688:	01013783          	ld	a5,16(sp)
   1a68c:	04813683          	ld	a3,72(sp)
   1a690:	0305051b          	addiw	a0,a0,48
   1a694:	0017879b          	addiw	a5,a5,1
   1a698:	00f13823          	sd	a5,16(sp)
   1a69c:	feaa8fa3          	sb	a0,-1(s5)
   1a6a0:	02013703          	ld	a4,32(sp)
   1a6a4:	02813783          	ld	a5,40(sp)
   1a6a8:	fffa8b13          	addi	s6,s5,-1
   1a6ac:	f8068ee3          	beqz	a3,1a648 <_vfiprintf_r+0x514>
   1a6b0:	03013683          	ld	a3,48(sp)
   1a6b4:	01013603          	ld	a2,16(sp)
   1a6b8:	0006c683          	lbu	a3,0(a3)
   1a6bc:	f8c696e3          	bne	a3,a2,1a648 <_vfiprintf_r+0x514>
   1a6c0:	f0168693          	addi	a3,a3,-255
   1a6c4:	f80682e3          	beqz	a3,1a648 <_vfiprintf_r+0x514>
   1a6c8:	00900693          	li	a3,9
   1a6cc:	28e6ece3          	bltu	a3,a4,1b164 <_vfiprintf_r+0x1030>
   1a6d0:	416c8cbb          	subw	s9,s9,s6
   1a6d4:	05714703          	lbu	a4,87(sp)
   1a6d8:	00040a9b          	sext.w	s5,s0
   1a6dc:	01945463          	bge	s0,s9,1a6e4 <_vfiprintf_r+0x5b0>
   1a6e0:	000c8a9b          	sext.w	s5,s9
   1a6e4:	040706e3          	beqz	a4,1af30 <_vfiprintf_r+0xdfc>
   1a6e8:	001a8a9b          	addiw	s5,s5,1
   1a6ec:	0450006f          	j	1af30 <_vfiprintf_r+0xdfc>
   1a6f0:	000d2983          	lw	s3,0(s10)
   1a6f4:	7009d463          	bgez	s3,1adfc <_vfiprintf_r+0xcc8>
   1a6f8:	413009bb          	negw	s3,s3
   1a6fc:	008d0d13          	addi	s10,s10,8
   1a700:	000dc703          	lbu	a4,0(s11)
   1a704:	0044e493          	ori	s1,s1,4
   1a708:	ba5ff06f          	j	1a2ac <_vfiprintf_r+0x178>
   1a70c:	02b00713          	li	a4,43
   1a710:	04e10ba3          	sb	a4,87(sp)
   1a714:	000dc703          	lbu	a4,0(s11)
   1a718:	b95ff06f          	j	1a2ac <_vfiprintf_r+0x178>
   1a71c:	0204f713          	andi	a4,s1,32
   1a720:	04071c63          	bnez	a4,1a778 <_vfiprintf_r+0x644>
   1a724:	0104fa93          	andi	s5,s1,16
   1a728:	008d0613          	addi	a2,s10,8
   1a72c:	720a9263          	bnez	s5,1ae50 <_vfiprintf_r+0xd1c>
   1a730:	0404f693          	andi	a3,s1,64
   1a734:	000d2703          	lw	a4,0(s10)
   1a738:	14068ae3          	beqz	a3,1b08c <_vfiprintf_r+0xf58>
   1a73c:	03071713          	slli	a4,a4,0x30
   1a740:	04010ba3          	sb	zero,87(sp)
   1a744:	03075713          	srli	a4,a4,0x30
   1a748:	70044c63          	bltz	s0,1ae60 <_vfiprintf_r+0xd2c>
   1a74c:	f7f4f493          	andi	s1,s1,-129
   1a750:	70071863          	bnez	a4,1ae60 <_vfiprintf_r+0xd2c>
   1a754:	70041663          	bnez	s0,1ae60 <_vfiprintf_r+0xd2c>
   1a758:	00060d13          	mv	s10,a2
   1a75c:	00000c93          	li	s9,0
   1a760:	0dc10b13          	addi	s6,sp,220
   1a764:	bc5ff06f          	j	1a328 <_vfiprintf_r+0x1f4>
   1a768:	0204f713          	andi	a4,s1,32
   1a76c:	008d0613          	addi	a2,s10,8
   1a770:	0104e493          	ori	s1,s1,16
   1a774:	6c070e63          	beqz	a4,1ae50 <_vfiprintf_r+0xd1c>
   1a778:	04010ba3          	sb	zero,87(sp)
   1a77c:	000d3703          	ld	a4,0(s10)
   1a780:	008d0693          	addi	a3,s10,8
   1a784:	02044263          	bltz	s0,1a7a8 <_vfiprintf_r+0x674>
   1a788:	f7f4f493          	andi	s1,s1,-129
   1a78c:	00041e63          	bnez	s0,1a7a8 <_vfiprintf_r+0x674>
   1a790:	00071c63          	bnez	a4,1a7a8 <_vfiprintf_r+0x674>
   1a794:	00068d13          	mv	s10,a3
   1a798:	00000c93          	li	s9,0
   1a79c:	0dc10b13          	addi	s6,sp,220
   1a7a0:	00000a93          	li	s5,0
   1a7a4:	b85ff06f          	j	1a328 <_vfiprintf_r+0x1f4>
   1a7a8:	00068d13          	mv	s10,a3
   1a7ac:	00900693          	li	a3,9
   1a7b0:	e8e6e0e3          	bltu	a3,a4,1a630 <_vfiprintf_r+0x4fc>
   1a7b4:	0307071b          	addiw	a4,a4,48
   1a7b8:	0ce10da3          	sb	a4,219(sp)
   1a7bc:	00040713          	mv	a4,s0
   1a7c0:	00804463          	bgtz	s0,1a7c8 <_vfiprintf_r+0x694>
   1a7c4:	00100713          	li	a4,1
   1a7c8:	05714683          	lbu	a3,87(sp)
   1a7cc:	00070a9b          	sext.w	s5,a4
   1a7d0:	64069463          	bnez	a3,1ae18 <_vfiprintf_r+0xce4>
   1a7d4:	00100c93          	li	s9,1
   1a7d8:	0db10b13          	addi	s6,sp,219
   1a7dc:	b4dff06f          	j	1a328 <_vfiprintf_r+0x1f4>
   1a7e0:	0104ea93          	ori	s5,s1,16
   1a7e4:	008d0613          	addi	a2,s10,8
   1a7e8:	000d3683          	ld	a3,0(s10)
   1a7ec:	00060d13          	mv	s10,a2
   1a7f0:	04010ba3          	sb	zero,87(sp)
   1a7f4:	bffaf493          	andi	s1,s5,-1025
   1a7f8:	4e044863          	bltz	s0,1ace8 <_vfiprintf_r+0xbb4>
   1a7fc:	b7faf493          	andi	s1,s5,-1153
   1a800:	4e069463          	bnez	a3,1ace8 <_vfiprintf_r+0xbb4>
   1a804:	4e041263          	bnez	s0,1ace8 <_vfiprintf_r+0xbb4>
   1a808:	001afa93          	andi	s5,s5,1
   1a80c:	5e0a8e63          	beqz	s5,1ae08 <_vfiprintf_r+0xcd4>
   1a810:	03000713          	li	a4,48
   1a814:	0ce10da3          	sb	a4,219(sp)
   1a818:	000a8c93          	mv	s9,s5
   1a81c:	0db10b13          	addi	s6,sp,219
   1a820:	b09ff06f          	j	1a328 <_vfiprintf_r+0x1f4>
   1a824:	000dc703          	lbu	a4,0(s11)
   1a828:	06800693          	li	a3,104
   1a82c:	00d702e3          	beq	a4,a3,1b030 <_vfiprintf_r+0xefc>
   1a830:	0404e493          	ori	s1,s1,64
   1a834:	a79ff06f          	j	1a2ac <_vfiprintf_r+0x178>
   1a838:	00013b03          	ld	s6,0(sp)
   1a83c:	00f13823          	sd	a5,16(sp)
   1a840:	000b0513          	mv	a0,s6
   1a844:	dfdfa0ef          	jal	15640 <_localeconv_r>
   1a848:	00853783          	ld	a5,8(a0)
   1a84c:	00078513          	mv	a0,a5
   1a850:	02f13c23          	sd	a5,56(sp)
   1a854:	904fb0ef          	jal	15958 <strlen>
   1a858:	00050713          	mv	a4,a0
   1a85c:	000b0513          	mv	a0,s6
   1a860:	04e13023          	sd	a4,64(sp)
   1a864:	00070b13          	mv	s6,a4
   1a868:	dd9fa0ef          	jal	15640 <_localeconv_r>
   1a86c:	01053783          	ld	a5,16(a0)
   1a870:	000dc703          	lbu	a4,0(s11)
   1a874:	02f13823          	sd	a5,48(sp)
   1a878:	01013783          	ld	a5,16(sp)
   1a87c:	a20b08e3          	beqz	s6,1a2ac <_vfiprintf_r+0x178>
   1a880:	03013683          	ld	a3,48(sp)
   1a884:	a20684e3          	beqz	a3,1a2ac <_vfiprintf_r+0x178>
   1a888:	0006c683          	lbu	a3,0(a3)
   1a88c:	a20680e3          	beqz	a3,1a2ac <_vfiprintf_r+0x178>
   1a890:	4004e493          	ori	s1,s1,1024
   1a894:	a19ff06f          	j	1a2ac <_vfiprintf_r+0x178>
   1a898:	000dc703          	lbu	a4,0(s11)
   1a89c:	0804e493          	ori	s1,s1,128
   1a8a0:	a0dff06f          	j	1a2ac <_vfiprintf_r+0x178>
   1a8a4:	000dc703          	lbu	a4,0(s11)
   1a8a8:	02a00693          	li	a3,42
   1a8ac:	001d8893          	addi	a7,s11,1
   1a8b0:	12d70ee3          	beq	a4,a3,1b1ec <_vfiprintf_r+0x10b8>
   1a8b4:	fd07061b          	addiw	a2,a4,-48
   1a8b8:	00900513          	li	a0,9
   1a8bc:	00000593          	li	a1,0
   1a8c0:	00088d93          	mv	s11,a7
   1a8c4:	00000413          	li	s0,0
   1a8c8:	9ec566e3          	bltu	a0,a2,1a2b4 <_vfiprintf_r+0x180>
   1a8cc:	0025969b          	slliw	a3,a1,0x2
   1a8d0:	0008c703          	lbu	a4,0(a7)
   1a8d4:	00b686bb          	addw	a3,a3,a1
   1a8d8:	0016969b          	slliw	a3,a3,0x1
   1a8dc:	00c685bb          	addw	a1,a3,a2
   1a8e0:	fd07061b          	addiw	a2,a4,-48
   1a8e4:	00188893          	addi	a7,a7,1
   1a8e8:	fec572e3          	bgeu	a0,a2,1a8cc <_vfiprintf_r+0x798>
   1a8ec:	0005841b          	sext.w	s0,a1
   1a8f0:	5c05c863          	bltz	a1,1aec0 <_vfiprintf_r+0xd8c>
   1a8f4:	00088d93          	mv	s11,a7
   1a8f8:	9bdff06f          	j	1a2b4 <_vfiprintf_r+0x180>
   1a8fc:	000dc703          	lbu	a4,0(s11)
   1a900:	0014e493          	ori	s1,s1,1
   1a904:	9a9ff06f          	j	1a2ac <_vfiprintf_r+0x178>
   1a908:	05714683          	lbu	a3,87(sp)
   1a90c:	000dc703          	lbu	a4,0(s11)
   1a910:	98069ee3          	bnez	a3,1a2ac <_vfiprintf_r+0x178>
   1a914:	02000693          	li	a3,32
   1a918:	04d10ba3          	sb	a3,87(sp)
   1a91c:	991ff06f          	j	1a2ac <_vfiprintf_r+0x178>
   1a920:	00008737          	lui	a4,0x8
   1a924:	83070713          	addi	a4,a4,-2000 # 7830 <exit-0x88f0>
   1a928:	04e11c23          	sh	a4,88(sp)
   1a92c:	04010ba3          	sb	zero,87(sp)
   1a930:	000d3683          	ld	a3,0(s10)
   1a934:	008d0713          	addi	a4,s10,8
   1a938:	52044c63          	bltz	s0,1ae70 <_vfiprintf_r+0xd3c>
   1a93c:	f7f4f493          	andi	s1,s1,-129
   1a940:	0024e493          	ori	s1,s1,2
   1a944:	0c0698e3          	bnez	a3,1b214 <_vfiprintf_r+0x10e0>
   1a948:	0c0416e3          	bnez	s0,1b214 <_vfiprintf_r+0x10e0>
   1a94c:	00070d13          	mv	s10,a4
   1a950:	00000c93          	li	s9,0
   1a954:	00000a93          	li	s5,0
   1a958:	0dc10b13          	addi	s6,sp,220
   1a95c:	07013583          	ld	a1,112(sp)
   1a960:	06812603          	lw	a2,104(sp)
   1a964:	0844f313          	andi	t1,s1,132
   1a968:	002a8a9b          	addiw	s5,s5,2
   1a96c:	00058693          	mv	a3,a1
   1a970:	00060713          	mv	a4,a2
   1a974:	a0031ce3          	bnez	t1,1a38c <_vfiprintf_r+0x258>
   1a978:	41598ebb          	subw	t4,s3,s5
   1a97c:	a1d058e3          	blez	t4,1a38c <_vfiprintf_r+0x258>
   1a980:	00200713          	li	a4,2
   1a984:	02e13423          	sd	a4,40(sp)
   1a988:	3b00006f          	j	1ad38 <_vfiprintf_r+0xc04>
   1a98c:	0204f713          	andi	a4,s1,32
   1a990:	008d0613          	addi	a2,s10,8
   1a994:	4c071a63          	bnez	a4,1ae68 <_vfiprintf_r+0xd34>
   1a998:	0104f713          	andi	a4,s1,16
   1a99c:	4c071663          	bnez	a4,1ae68 <_vfiprintf_r+0xd34>
   1a9a0:	0404f713          	andi	a4,s1,64
   1a9a4:	000d2683          	lw	a3,0(s10)
   1a9a8:	70070063          	beqz	a4,1b0a8 <_vfiprintf_r+0xf74>
   1a9ac:	03069693          	slli	a3,a3,0x30
   1a9b0:	0306d693          	srli	a3,a3,0x30
   1a9b4:	00060d13          	mv	s10,a2
   1a9b8:	00048a93          	mv	s5,s1
   1a9bc:	e35ff06f          	j	1a7f0 <_vfiprintf_r+0x6bc>
   1a9c0:	0204f713          	andi	a4,s1,32
   1a9c4:	000d3683          	ld	a3,0(s10)
   1a9c8:	008d0d13          	addi	s10,s10,8
   1a9cc:	02071463          	bnez	a4,1a9f4 <_vfiprintf_r+0x8c0>
   1a9d0:	0104f713          	andi	a4,s1,16
   1a9d4:	02071063          	bnez	a4,1a9f4 <_vfiprintf_r+0x8c0>
   1a9d8:	0404f713          	andi	a4,s1,64
   1a9dc:	72071a63          	bnez	a4,1b110 <_vfiprintf_r+0xfdc>
   1a9e0:	2004f493          	andi	s1,s1,512
   1a9e4:	00813703          	ld	a4,8(sp)
   1a9e8:	7e048e63          	beqz	s1,1b1e4 <_vfiprintf_r+0x10b0>
   1a9ec:	00e68023          	sb	a4,0(a3)
   1a9f0:	825ff06f          	j	1a214 <_vfiprintf_r+0xe0>
   1a9f4:	00813703          	ld	a4,8(sp)
   1a9f8:	00e6b023          	sd	a4,0(a3)
   1a9fc:	819ff06f          	j	1a214 <_vfiprintf_r+0xe0>
   1aa00:	000dc703          	lbu	a4,0(s11)
   1aa04:	06c00693          	li	a3,108
   1aa08:	62d70c63          	beq	a4,a3,1b040 <_vfiprintf_r+0xf0c>
   1aa0c:	0104e493          	ori	s1,s1,16
   1aa10:	89dff06f          	j	1a2ac <_vfiprintf_r+0x178>
   1aa14:	000dc703          	lbu	a4,0(s11)
   1aa18:	0204e493          	ori	s1,s1,32
   1aa1c:	891ff06f          	j	1a2ac <_vfiprintf_r+0x178>
   1aa20:	4159833b          	subw	t1,s3,s5
   1aa24:	98605ee3          	blez	t1,1a3c0 <_vfiprintf_r+0x28c>
   1aa28:	0001f637          	lui	a2,0x1f
   1aa2c:	98060613          	addi	a2,a2,-1664 # 1e980 <zeroes.0>
   1aa30:	01000e13          	li	t3,16
   1aa34:	00c13823          	sd	a2,16(sp)
   1aa38:	00700e93          	li	t4,7
   1aa3c:	006e4863          	blt	t3,t1,1aa4c <_vfiprintf_r+0x918>
   1aa40:	0680006f          	j	1aaa8 <_vfiprintf_r+0x974>
   1aa44:	ff03031b          	addiw	t1,t1,-16
   1aa48:	066e5063          	bge	t3,t1,1aaa8 <_vfiprintf_r+0x974>
   1aa4c:	01013603          	ld	a2,16(sp)
   1aa50:	01068693          	addi	a3,a3,16
   1aa54:	0017071b          	addiw	a4,a4,1
   1aa58:	00c7b023          	sd	a2,0(a5)
   1aa5c:	01c7b423          	sd	t3,8(a5)
   1aa60:	06d13823          	sd	a3,112(sp)
   1aa64:	06e12423          	sw	a4,104(sp)
   1aa68:	01078793          	addi	a5,a5,16
   1aa6c:	fceedce3          	bge	t4,a4,1aa44 <_vfiprintf_r+0x910>
   1aa70:	00013503          	ld	a0,0(sp)
   1aa74:	06010613          	addi	a2,sp,96
   1aa78:	000a0593          	mv	a1,s4
   1aa7c:	02613023          	sd	t1,32(sp)
   1aa80:	f59f90ef          	jal	149d8 <__sprint_r>
   1aa84:	a20510e3          	bnez	a0,1a4a4 <_vfiprintf_r+0x370>
   1aa88:	02013303          	ld	t1,32(sp)
   1aa8c:	01000e13          	li	t3,16
   1aa90:	07013683          	ld	a3,112(sp)
   1aa94:	ff03031b          	addiw	t1,t1,-16
   1aa98:	06812703          	lw	a4,104(sp)
   1aa9c:	000b8793          	mv	a5,s7
   1aaa0:	00700e93          	li	t4,7
   1aaa4:	fa6e44e3          	blt	t3,t1,1aa4c <_vfiprintf_r+0x918>
   1aaa8:	01013603          	ld	a2,16(sp)
   1aaac:	006686b3          	add	a3,a3,t1
   1aab0:	0017071b          	addiw	a4,a4,1
   1aab4:	00c7b023          	sd	a2,0(a5)
   1aab8:	0067b423          	sd	t1,8(a5)
   1aabc:	06d13823          	sd	a3,112(sp)
   1aac0:	06e12423          	sw	a4,104(sp)
   1aac4:	00700613          	li	a2,7
   1aac8:	01078793          	addi	a5,a5,16
   1aacc:	8ee65ae3          	bge	a2,a4,1a3c0 <_vfiprintf_r+0x28c>
   1aad0:	00013503          	ld	a0,0(sp)
   1aad4:	06010613          	addi	a2,sp,96
   1aad8:	000a0593          	mv	a1,s4
   1aadc:	efdf90ef          	jal	149d8 <__sprint_r>
   1aae0:	9c0512e3          	bnez	a0,1a4a4 <_vfiprintf_r+0x370>
   1aae4:	07013683          	ld	a3,112(sp)
   1aae8:	06812703          	lw	a4,104(sp)
   1aaec:	4194043b          	subw	s0,s0,s9
   1aaf0:	000b8793          	mv	a5,s7
   1aaf4:	8c805ae3          	blez	s0,1a3c8 <_vfiprintf_r+0x294>
   1aaf8:	5e895a63          	bge	s2,s0,1b0ec <_vfiprintf_r+0xfb8>
   1aafc:	01813823          	sd	s8,16(sp)
   1ab00:	00700313          	li	t1,7
   1ab04:	00c0006f          	j	1ab10 <_vfiprintf_r+0x9dc>
   1ab08:	ff04041b          	addiw	s0,s0,-16
   1ab0c:	04895863          	bge	s2,s0,1ab5c <_vfiprintf_r+0xa28>
   1ab10:	01068693          	addi	a3,a3,16
   1ab14:	0017071b          	addiw	a4,a4,1
   1ab18:	0187b023          	sd	s8,0(a5)
   1ab1c:	0127b423          	sd	s2,8(a5)
   1ab20:	06d13823          	sd	a3,112(sp)
   1ab24:	06e12423          	sw	a4,104(sp)
   1ab28:	01078793          	addi	a5,a5,16
   1ab2c:	fce35ee3          	bge	t1,a4,1ab08 <_vfiprintf_r+0x9d4>
   1ab30:	00013503          	ld	a0,0(sp)
   1ab34:	06010613          	addi	a2,sp,96
   1ab38:	000a0593          	mv	a1,s4
   1ab3c:	e9df90ef          	jal	149d8 <__sprint_r>
   1ab40:	960512e3          	bnez	a0,1a4a4 <_vfiprintf_r+0x370>
   1ab44:	ff04041b          	addiw	s0,s0,-16
   1ab48:	07013683          	ld	a3,112(sp)
   1ab4c:	06812703          	lw	a4,104(sp)
   1ab50:	000b8793          	mv	a5,s7
   1ab54:	00700313          	li	t1,7
   1ab58:	fa894ce3          	blt	s2,s0,1ab10 <_vfiprintf_r+0x9dc>
   1ab5c:	01013603          	ld	a2,16(sp)
   1ab60:	008686b3          	add	a3,a3,s0
   1ab64:	0017071b          	addiw	a4,a4,1
   1ab68:	00c7b023          	sd	a2,0(a5)
   1ab6c:	0087b423          	sd	s0,8(a5)
   1ab70:	06d13823          	sd	a3,112(sp)
   1ab74:	06e12423          	sw	a4,104(sp)
   1ab78:	00700613          	li	a2,7
   1ab7c:	01078793          	addi	a5,a5,16
   1ab80:	84e654e3          	bge	a2,a4,1a3c8 <_vfiprintf_r+0x294>
   1ab84:	00013503          	ld	a0,0(sp)
   1ab88:	06010613          	addi	a2,sp,96
   1ab8c:	000a0593          	mv	a1,s4
   1ab90:	e49f90ef          	jal	149d8 <__sprint_r>
   1ab94:	900518e3          	bnez	a0,1a4a4 <_vfiprintf_r+0x370>
   1ab98:	07013683          	ld	a3,112(sp)
   1ab9c:	06812703          	lw	a4,104(sp)
   1aba0:	000b8793          	mv	a5,s7
   1aba4:	825ff06f          	j	1a3c8 <_vfiprintf_r+0x294>
   1aba8:	00013503          	ld	a0,0(sp)
   1abac:	06010613          	addi	a2,sp,96
   1abb0:	000a0593          	mv	a1,s4
   1abb4:	e25f90ef          	jal	149d8 <__sprint_r>
   1abb8:	8e0516e3          	bnez	a0,1a4a4 <_vfiprintf_r+0x370>
   1abbc:	07013683          	ld	a3,112(sp)
   1abc0:	000b8793          	mv	a5,s7
   1abc4:	829ff06f          	j	1a3ec <_vfiprintf_r+0x2b8>
   1abc8:	00013503          	ld	a0,0(sp)
   1abcc:	06010613          	addi	a2,sp,96
   1abd0:	000a0593          	mv	a1,s4
   1abd4:	e05f90ef          	jal	149d8 <__sprint_r>
   1abd8:	840500e3          	beqz	a0,1a418 <_vfiprintf_r+0x2e4>
   1abdc:	8c9ff06f          	j	1a4a4 <_vfiprintf_r+0x370>
   1abe0:	00013503          	ld	a0,0(sp)
   1abe4:	06010613          	addi	a2,sp,96
   1abe8:	000a0593          	mv	a1,s4
   1abec:	00613823          	sd	t1,16(sp)
   1abf0:	de9f90ef          	jal	149d8 <__sprint_r>
   1abf4:	8a0518e3          	bnez	a0,1a4a4 <_vfiprintf_r+0x370>
   1abf8:	07013683          	ld	a3,112(sp)
   1abfc:	06812703          	lw	a4,104(sp)
   1ac00:	01013303          	ld	t1,16(sp)
   1ac04:	000b8793          	mv	a5,s7
   1ac08:	fb0ff06f          	j	1a3b8 <_vfiprintf_r+0x284>
   1ac0c:	00013503          	ld	a0,0(sp)
   1ac10:	06010613          	addi	a2,sp,96
   1ac14:	000a0593          	mv	a1,s4
   1ac18:	00613823          	sd	t1,16(sp)
   1ac1c:	dbdf90ef          	jal	149d8 <__sprint_r>
   1ac20:	880512e3          	bnez	a0,1a4a4 <_vfiprintf_r+0x370>
   1ac24:	07013683          	ld	a3,112(sp)
   1ac28:	06812703          	lw	a4,104(sp)
   1ac2c:	01013303          	ld	t1,16(sp)
   1ac30:	000b8793          	mv	a5,s7
   1ac34:	f50ff06f          	j	1a384 <_vfiprintf_r+0x250>
   1ac38:	0001f337          	lui	t1,0x1f
   1ac3c:	01000493          	li	s1,16
   1ac40:	06812703          	lw	a4,104(sp)
   1ac44:	99030313          	addi	t1,t1,-1648 # 1e990 <blanks.1>
   1ac48:	00700c93          	li	s9,7
   1ac4c:	0084c863          	blt	s1,s0,1ac5c <_vfiprintf_r+0xb28>
   1ac50:	05c0006f          	j	1acac <_vfiprintf_r+0xb78>
   1ac54:	ff04041b          	addiw	s0,s0,-16
   1ac58:	0484da63          	bge	s1,s0,1acac <_vfiprintf_r+0xb78>
   1ac5c:	01068693          	addi	a3,a3,16
   1ac60:	0017071b          	addiw	a4,a4,1
   1ac64:	0067b023          	sd	t1,0(a5)
   1ac68:	0097b423          	sd	s1,8(a5)
   1ac6c:	06d13823          	sd	a3,112(sp)
   1ac70:	06e12423          	sw	a4,104(sp)
   1ac74:	01078793          	addi	a5,a5,16
   1ac78:	fcecdee3          	bge	s9,a4,1ac54 <_vfiprintf_r+0xb20>
   1ac7c:	00013503          	ld	a0,0(sp)
   1ac80:	06010613          	addi	a2,sp,96
   1ac84:	000a0593          	mv	a1,s4
   1ac88:	00613823          	sd	t1,16(sp)
   1ac8c:	d4df90ef          	jal	149d8 <__sprint_r>
   1ac90:	80051ae3          	bnez	a0,1a4a4 <_vfiprintf_r+0x370>
   1ac94:	ff04041b          	addiw	s0,s0,-16
   1ac98:	07013683          	ld	a3,112(sp)
   1ac9c:	06812703          	lw	a4,104(sp)
   1aca0:	01013303          	ld	t1,16(sp)
   1aca4:	000b8793          	mv	a5,s7
   1aca8:	fa84cae3          	blt	s1,s0,1ac5c <_vfiprintf_r+0xb28>
   1acac:	008686b3          	add	a3,a3,s0
   1acb0:	0017071b          	addiw	a4,a4,1
   1acb4:	0067b023          	sd	t1,0(a5)
   1acb8:	0087b423          	sd	s0,8(a5)
   1acbc:	06d13823          	sd	a3,112(sp)
   1acc0:	06e12423          	sw	a4,104(sp)
   1acc4:	00700793          	li	a5,7
   1acc8:	f2e7da63          	bge	a5,a4,1a3fc <_vfiprintf_r+0x2c8>
   1accc:	00013503          	ld	a0,0(sp)
   1acd0:	06010613          	addi	a2,sp,96
   1acd4:	000a0593          	mv	a1,s4
   1acd8:	d01f90ef          	jal	149d8 <__sprint_r>
   1acdc:	fc051463          	bnez	a0,1a4a4 <_vfiprintf_r+0x370>
   1ace0:	07013683          	ld	a3,112(sp)
   1ace4:	f18ff06f          	j	1a3fc <_vfiprintf_r+0x2c8>
   1ace8:	0dc10c93          	addi	s9,sp,220
   1acec:	000c8b13          	mv	s6,s9
   1acf0:	0076f713          	andi	a4,a3,7
   1acf4:	000b0613          	mv	a2,s6
   1acf8:	03070713          	addi	a4,a4,48
   1acfc:	0036d693          	srli	a3,a3,0x3
   1ad00:	feeb0fa3          	sb	a4,-1(s6)
   1ad04:	fffb0b13          	addi	s6,s6,-1
   1ad08:	fe0694e3          	bnez	a3,1acf0 <_vfiprintf_r+0xbbc>
   1ad0c:	fd070713          	addi	a4,a4,-48
   1ad10:	03000693          	li	a3,48
   1ad14:	00070663          	beqz	a4,1ad20 <_vfiprintf_r+0xbec>
   1ad18:	0014f713          	andi	a4,s1,1
   1ad1c:	10071a63          	bnez	a4,1ae30 <_vfiprintf_r+0xcfc>
   1ad20:	416c8cbb          	subw	s9,s9,s6
   1ad24:	00040a9b          	sext.w	s5,s0
   1ad28:	e1945063          	bge	s0,s9,1a328 <_vfiprintf_r+0x1f4>
   1ad2c:	000c8a9b          	sext.w	s5,s9
   1ad30:	df8ff06f          	j	1a328 <_vfiprintf_r+0x1f4>
   1ad34:	02013423          	sd	zero,40(sp)
   1ad38:	0001f337          	lui	t1,0x1f
   1ad3c:	01000e13          	li	t3,16
   1ad40:	00058693          	mv	a3,a1
   1ad44:	00060713          	mv	a4,a2
   1ad48:	99030313          	addi	t1,t1,-1648 # 1e990 <blanks.1>
   1ad4c:	00700f13          	li	t5,7
   1ad50:	01de4863          	blt	t3,t4,1ad60 <_vfiprintf_r+0xc2c>
   1ad54:	06c0006f          	j	1adc0 <_vfiprintf_r+0xc8c>
   1ad58:	ff0e8e9b          	addiw	t4,t4,-16
   1ad5c:	07de5263          	bge	t3,t4,1adc0 <_vfiprintf_r+0xc8c>
   1ad60:	01068693          	addi	a3,a3,16
   1ad64:	0017071b          	addiw	a4,a4,1
   1ad68:	0067b023          	sd	t1,0(a5)
   1ad6c:	01c7b423          	sd	t3,8(a5)
   1ad70:	06d13823          	sd	a3,112(sp)
   1ad74:	06e12423          	sw	a4,104(sp)
   1ad78:	01078793          	addi	a5,a5,16
   1ad7c:	fcef5ee3          	bge	t5,a4,1ad58 <_vfiprintf_r+0xc24>
   1ad80:	00013503          	ld	a0,0(sp)
   1ad84:	06010613          	addi	a2,sp,96
   1ad88:	000a0593          	mv	a1,s4
   1ad8c:	02613023          	sd	t1,32(sp)
   1ad90:	01d13823          	sd	t4,16(sp)
   1ad94:	c45f90ef          	jal	149d8 <__sprint_r>
   1ad98:	f0051663          	bnez	a0,1a4a4 <_vfiprintf_r+0x370>
   1ad9c:	01013e83          	ld	t4,16(sp)
   1ada0:	01000e13          	li	t3,16
   1ada4:	07013683          	ld	a3,112(sp)
   1ada8:	ff0e8e9b          	addiw	t4,t4,-16
   1adac:	06812703          	lw	a4,104(sp)
   1adb0:	02013303          	ld	t1,32(sp)
   1adb4:	000b8793          	mv	a5,s7
   1adb8:	00700f13          	li	t5,7
   1adbc:	fbde42e3          	blt	t3,t4,1ad60 <_vfiprintf_r+0xc2c>
   1adc0:	00de86b3          	add	a3,t4,a3
   1adc4:	0017071b          	addiw	a4,a4,1
   1adc8:	06d13823          	sd	a3,112(sp)
   1adcc:	06e12423          	sw	a4,104(sp)
   1add0:	0067b023          	sd	t1,0(a5)
   1add4:	01d7b423          	sd	t4,8(a5)
   1add8:	00700613          	li	a2,7
   1addc:	1ee64663          	blt	a2,a4,1afc8 <_vfiprintf_r+0xe94>
   1ade0:	05714603          	lbu	a2,87(sp)
   1ade4:	01078793          	addi	a5,a5,16
   1ade8:	04061063          	bnez	a2,1ae28 <_vfiprintf_r+0xcf4>
   1adec:	02813603          	ld	a2,40(sp)
   1adf0:	dc060863          	beqz	a2,1a3c0 <_vfiprintf_r+0x28c>
   1adf4:	00000313          	li	t1,0
   1adf8:	d94ff06f          	j	1a38c <_vfiprintf_r+0x258>
   1adfc:	000dc703          	lbu	a4,0(s11)
   1ae00:	008d0d13          	addi	s10,s10,8
   1ae04:	ca8ff06f          	j	1a2ac <_vfiprintf_r+0x178>
   1ae08:	00000c93          	li	s9,0
   1ae0c:	00000413          	li	s0,0
   1ae10:	0dc10b13          	addi	s6,sp,220
   1ae14:	d14ff06f          	j	1a328 <_vfiprintf_r+0x1f4>
   1ae18:	00170a9b          	addiw	s5,a4,1
   1ae1c:	00100c93          	li	s9,1
   1ae20:	0db10b13          	addi	s6,sp,219
   1ae24:	f3cff06f          	j	1a560 <_vfiprintf_r+0x42c>
   1ae28:	00000313          	li	t1,0
   1ae2c:	d2cff06f          	j	1a358 <_vfiprintf_r+0x224>
   1ae30:	ffe60613          	addi	a2,a2,-2
   1ae34:	40cc8cbb          	subw	s9,s9,a2
   1ae38:	fedb0fa3          	sb	a3,-1(s6)
   1ae3c:	000c8a9b          	sext.w	s5,s9
   1ae40:	008cd463          	bge	s9,s0,1ae48 <_vfiprintf_r+0xd14>
   1ae44:	00040a9b          	sext.w	s5,s0
   1ae48:	00060b13          	mv	s6,a2
   1ae4c:	cdcff06f          	j	1a328 <_vfiprintf_r+0x1f4>
   1ae50:	04010ba3          	sb	zero,87(sp)
   1ae54:	000d3703          	ld	a4,0(s10)
   1ae58:	00060693          	mv	a3,a2
   1ae5c:	920456e3          	bgez	s0,1a788 <_vfiprintf_r+0x654>
   1ae60:	00060d13          	mv	s10,a2
   1ae64:	949ff06f          	j	1a7ac <_vfiprintf_r+0x678>
   1ae68:	00048a93          	mv	s5,s1
   1ae6c:	97dff06f          	j	1a7e8 <_vfiprintf_r+0x6b4>
   1ae70:	0001e5b7          	lui	a1,0x1e
   1ae74:	0024e493          	ori	s1,s1,2
   1ae78:	00070d13          	mv	s10,a4
   1ae7c:	2c858593          	addi	a1,a1,712 # 1e2c8 <__clzdi2+0x7c>
   1ae80:	00200613          	li	a2,2
   1ae84:	0dc10c93          	addi	s9,sp,220
   1ae88:	000c8b13          	mv	s6,s9
   1ae8c:	00f6f713          	andi	a4,a3,15
   1ae90:	00e58733          	add	a4,a1,a4
   1ae94:	00074703          	lbu	a4,0(a4)
   1ae98:	0046d693          	srli	a3,a3,0x4
   1ae9c:	fffb0b13          	addi	s6,s6,-1
   1aea0:	00eb0023          	sb	a4,0(s6)
   1aea4:	fe0694e3          	bnez	a3,1ae8c <_vfiprintf_r+0xd58>
   1aea8:	416c8cbb          	subw	s9,s9,s6
   1aeac:	00040a9b          	sext.w	s5,s0
   1aeb0:	01945463          	bge	s0,s9,1aeb8 <_vfiprintf_r+0xd84>
   1aeb4:	000c8a9b          	sext.w	s5,s9
   1aeb8:	aa0612e3          	bnez	a2,1a95c <_vfiprintf_r+0x828>
   1aebc:	0740006f          	j	1af30 <_vfiprintf_r+0xdfc>
   1aec0:	fff00413          	li	s0,-1
   1aec4:	00088d93          	mv	s11,a7
   1aec8:	becff06f          	j	1a2b4 <_vfiprintf_r+0x180>
   1aecc:	0001e5b7          	lui	a1,0x1e
   1aed0:	0204f693          	andi	a3,s1,32
   1aed4:	2e058593          	addi	a1,a1,736 # 1e2e0 <__clzdi2+0x94>
   1aed8:	008d0893          	addi	a7,s10,8
   1aedc:	08069863          	bnez	a3,1af6c <_vfiprintf_r+0xe38>
   1aee0:	0104f693          	andi	a3,s1,16
   1aee4:	08069463          	bnez	a3,1af6c <_vfiprintf_r+0xe38>
   1aee8:	0404f613          	andi	a2,s1,64
   1aeec:	000d2683          	lw	a3,0(s10)
   1aef0:	1c060863          	beqz	a2,1b0c0 <_vfiprintf_r+0xf8c>
   1aef4:	03069693          	slli	a3,a3,0x30
   1aef8:	0306d693          	srli	a3,a3,0x30
   1aefc:	0014f613          	andi	a2,s1,1
   1af00:	00d03533          	snez	a0,a3
   1af04:	00060463          	beqz	a2,1af0c <_vfiprintf_r+0xdd8>
   1af08:	0e051c63          	bnez	a0,1b000 <_vfiprintf_r+0xecc>
   1af0c:	04010ba3          	sb	zero,87(sp)
   1af10:	0a044463          	bltz	s0,1afb8 <_vfiprintf_r+0xe84>
   1af14:	b7f4f493          	andi	s1,s1,-1153
   1af18:	00088d13          	mv	s10,a7
   1af1c:	2e041863          	bnez	s0,1b20c <_vfiprintf_r+0x10d8>
   1af20:	2e051663          	bnez	a0,1b20c <_vfiprintf_r+0x10d8>
   1af24:	00000c93          	li	s9,0
   1af28:	0dc10b13          	addi	s6,sp,220
   1af2c:	00000a93          	li	s5,0
   1af30:	07013683          	ld	a3,112(sp)
   1af34:	06812703          	lw	a4,104(sp)
   1af38:	0844f313          	andi	t1,s1,132
   1af3c:	00068593          	mv	a1,a3
   1af40:	00070613          	mv	a2,a4
   1af44:	be030e63          	beqz	t1,1a340 <_vfiprintf_r+0x20c>
   1af48:	05714603          	lbu	a2,87(sp)
   1af4c:	02013423          	sd	zero,40(sp)
   1af50:	c0061463          	bnez	a2,1a358 <_vfiprintf_r+0x224>
   1af54:	c64ff06f          	j	1a3b8 <_vfiprintf_r+0x284>
   1af58:	0001e5b7          	lui	a1,0x1e
   1af5c:	0204f693          	andi	a3,s1,32
   1af60:	2c858593          	addi	a1,a1,712 # 1e2c8 <__clzdi2+0x7c>
   1af64:	008d0893          	addi	a7,s10,8
   1af68:	f6068ce3          	beqz	a3,1aee0 <_vfiprintf_r+0xdac>
   1af6c:	000d3683          	ld	a3,0(s10)
   1af70:	f8dff06f          	j	1aefc <_vfiprintf_r+0xdc8>
   1af74:	000b0513          	mv	a0,s6
   1af78:	9e1fa0ef          	jal	15958 <strlen>
   1af7c:	00050c9b          	sext.w	s9,a0
   1af80:	01013783          	ld	a5,16(sp)
   1af84:	000c8713          	mv	a4,s9
   1af88:	000cd463          	bgez	s9,1af90 <_vfiprintf_r+0xe5c>
   1af8c:	00000713          	li	a4,0
   1af90:	05714683          	lbu	a3,87(sp)
   1af94:	00070a9b          	sext.w	s5,a4
   1af98:	00068c63          	beqz	a3,1afb0 <_vfiprintf_r+0xe7c>
   1af9c:	00170a9b          	addiw	s5,a4,1
   1afa0:	00000413          	li	s0,0
   1afa4:	dbcff06f          	j	1a560 <_vfiprintf_r+0x42c>
   1afa8:	00040c93          	mv	s9,s0
   1afac:	00040a93          	mv	s5,s0
   1afb0:	00000413          	li	s0,0
   1afb4:	b74ff06f          	j	1a328 <_vfiprintf_r+0x1f4>
   1afb8:	bff4f493          	andi	s1,s1,-1025
   1afbc:	00088d13          	mv	s10,a7
   1afc0:	00000613          	li	a2,0
   1afc4:	ec1ff06f          	j	1ae84 <_vfiprintf_r+0xd50>
   1afc8:	00013503          	ld	a0,0(sp)
   1afcc:	06010613          	addi	a2,sp,96
   1afd0:	000a0593          	mv	a1,s4
   1afd4:	a05f90ef          	jal	149d8 <__sprint_r>
   1afd8:	00050313          	mv	t1,a0
   1afdc:	cc051463          	bnez	a0,1a4a4 <_vfiprintf_r+0x370>
   1afe0:	05714783          	lbu	a5,87(sp)
   1afe4:	07013683          	ld	a3,112(sp)
   1afe8:	06812703          	lw	a4,104(sp)
   1afec:	0e079263          	bnez	a5,1b0d0 <_vfiprintf_r+0xf9c>
   1aff0:	02813783          	ld	a5,40(sp)
   1aff4:	ae078ce3          	beqz	a5,1aaec <_vfiprintf_r+0x9b8>
   1aff8:	000b8793          	mv	a5,s7
   1affc:	b90ff06f          	j	1a38c <_vfiprintf_r+0x258>
   1b000:	04e10ca3          	sb	a4,89(sp)
   1b004:	03000713          	li	a4,48
   1b008:	04010ba3          	sb	zero,87(sp)
   1b00c:	04e10c23          	sb	a4,88(sp)
   1b010:	0c044463          	bltz	s0,1b0d8 <_vfiprintf_r+0xfa4>
   1b014:	b7f4f493          	andi	s1,s1,-1153
   1b018:	0024e493          	ori	s1,s1,2
   1b01c:	00088d13          	mv	s10,a7
   1b020:	00200613          	li	a2,2
   1b024:	e61ff06f          	j	1ae84 <_vfiprintf_r+0xd50>
   1b028:	d70f50ef          	jal	10598 <__sinit>
   1b02c:	938ff06f          	j	1a164 <_vfiprintf_r+0x30>
   1b030:	001dc703          	lbu	a4,1(s11)
   1b034:	2004e493          	ori	s1,s1,512
   1b038:	001d8d93          	addi	s11,s11,1
   1b03c:	a70ff06f          	j	1a2ac <_vfiprintf_r+0x178>
   1b040:	001dc703          	lbu	a4,1(s11)
   1b044:	0204e493          	ori	s1,s1,32
   1b048:	001d8d93          	addi	s11,s11,1
   1b04c:	a60ff06f          	j	1a2ac <_vfiprintf_r+0x178>
   1b050:	00600713          	li	a4,6
   1b054:	00040a9b          	sext.w	s5,s0
   1b058:	0a876263          	bltu	a4,s0,1b0fc <_vfiprintf_r+0xfc8>
   1b05c:	0001e8b7          	lui	a7,0x1e
   1b060:	000a8c93          	mv	s9,s5
   1b064:	2f888b13          	addi	s6,a7,760 # 1e2f8 <__clzdi2+0xac>
   1b068:	00000413          	li	s0,0
   1b06c:	abcff06f          	j	1a328 <_vfiprintf_r+0x1f4>
   1b070:	2004f693          	andi	a3,s1,512
   1b074:	0c068863          	beqz	a3,1b144 <_vfiprintf_r+0x1010>
   1b078:	0187171b          	slliw	a4,a4,0x18
   1b07c:	4187571b          	sraiw	a4,a4,0x18
   1b080:	00060d13          	mv	s10,a2
   1b084:	00070693          	mv	a3,a4
   1b088:	cacff06f          	j	1a534 <_vfiprintf_r+0x400>
   1b08c:	2004f693          	andi	a3,s1,512
   1b090:	04010ba3          	sb	zero,87(sp)
   1b094:	08068e63          	beqz	a3,1b130 <_vfiprintf_r+0xffc>
   1b098:	0ff77713          	zext.b	a4,a4
   1b09c:	ea045863          	bgez	s0,1a74c <_vfiprintf_r+0x618>
   1b0a0:	00060d13          	mv	s10,a2
   1b0a4:	f08ff06f          	j	1a7ac <_vfiprintf_r+0x678>
   1b0a8:	2004f713          	andi	a4,s1,512
   1b0ac:	06070863          	beqz	a4,1b11c <_vfiprintf_r+0xfe8>
   1b0b0:	0ff6f693          	zext.b	a3,a3
   1b0b4:	00060d13          	mv	s10,a2
   1b0b8:	00048a93          	mv	s5,s1
   1b0bc:	f34ff06f          	j	1a7f0 <_vfiprintf_r+0x6bc>
   1b0c0:	2004f613          	andi	a2,s1,512
   1b0c4:	04060063          	beqz	a2,1b104 <_vfiprintf_r+0xfd0>
   1b0c8:	0ff6f693          	zext.b	a3,a3
   1b0cc:	e31ff06f          	j	1aefc <_vfiprintf_r+0xdc8>
   1b0d0:	000b8793          	mv	a5,s7
   1b0d4:	a84ff06f          	j	1a358 <_vfiprintf_r+0x224>
   1b0d8:	bff4f493          	andi	s1,s1,-1025
   1b0dc:	0024e493          	ori	s1,s1,2
   1b0e0:	00088d13          	mv	s10,a7
   1b0e4:	00200613          	li	a2,2
   1b0e8:	d9dff06f          	j	1ae84 <_vfiprintf_r+0xd50>
   1b0ec:	0001f637          	lui	a2,0x1f
   1b0f0:	98060613          	addi	a2,a2,-1664 # 1e980 <zeroes.0>
   1b0f4:	00c13823          	sd	a2,16(sp)
   1b0f8:	a65ff06f          	j	1ab5c <_vfiprintf_r+0xa28>
   1b0fc:	00070a9b          	sext.w	s5,a4
   1b100:	f5dff06f          	j	1b05c <_vfiprintf_r+0xf28>
   1b104:	02069693          	slli	a3,a3,0x20
   1b108:	0206d693          	srli	a3,a3,0x20
   1b10c:	df1ff06f          	j	1aefc <_vfiprintf_r+0xdc8>
   1b110:	00813703          	ld	a4,8(sp)
   1b114:	00e69023          	sh	a4,0(a3)
   1b118:	8fcff06f          	j	1a214 <_vfiprintf_r+0xe0>
   1b11c:	02069693          	slli	a3,a3,0x20
   1b120:	0206d693          	srli	a3,a3,0x20
   1b124:	00060d13          	mv	s10,a2
   1b128:	00048a93          	mv	s5,s1
   1b12c:	ec4ff06f          	j	1a7f0 <_vfiprintf_r+0x6bc>
   1b130:	02071713          	slli	a4,a4,0x20
   1b134:	02075713          	srli	a4,a4,0x20
   1b138:	e0045a63          	bgez	s0,1a74c <_vfiprintf_r+0x618>
   1b13c:	00060d13          	mv	s10,a2
   1b140:	e6cff06f          	j	1a7ac <_vfiprintf_r+0x678>
   1b144:	00060d13          	mv	s10,a2
   1b148:	00070693          	mv	a3,a4
   1b14c:	be8ff06f          	j	1a534 <_vfiprintf_r+0x400>
   1b150:	00013503          	ld	a0,0(sp)
   1b154:	06010613          	addi	a2,sp,96
   1b158:	000a0593          	mv	a1,s4
   1b15c:	87df90ef          	jal	149d8 <__sprint_r>
   1b160:	b44ff06f          	j	1a4a4 <_vfiprintf_r+0x370>
   1b164:	02f13423          	sd	a5,40(sp)
   1b168:	04013783          	ld	a5,64(sp)
   1b16c:	03813583          	ld	a1,56(sp)
   1b170:	00e13823          	sd	a4,16(sp)
   1b174:	40fb0ab3          	sub	s5,s6,a5
   1b178:	00078613          	mv	a2,a5
   1b17c:	000a8513          	mv	a0,s5
   1b180:	bfcfa0ef          	jal	1557c <strncpy>
   1b184:	03013783          	ld	a5,48(sp)
   1b188:	01013503          	ld	a0,16(sp)
   1b18c:	00a00593          	li	a1,10
   1b190:	0017c683          	lbu	a3,1(a5)
   1b194:	fffa8b13          	addi	s6,s5,-1
   1b198:	00d03733          	snez	a4,a3
   1b19c:	00e787b3          	add	a5,a5,a4
   1b1a0:	02f13823          	sd	a5,48(sp)
   1b1a4:	7f1020ef          	jal	1e194 <__hidden___udivdi3>
   1b1a8:	00a00593          	li	a1,10
   1b1ac:	02a13023          	sd	a0,32(sp)
   1b1b0:	02c030ef          	jal	1e1dc <__umoddi3>
   1b1b4:	00100793          	li	a5,1
   1b1b8:	0305069b          	addiw	a3,a0,48
   1b1bc:	00f13823          	sd	a5,16(sp)
   1b1c0:	02013703          	ld	a4,32(sp)
   1b1c4:	02813783          	ld	a5,40(sp)
   1b1c8:	feda8fa3          	sb	a3,-1(s5)
   1b1cc:	ce4ff06f          	j	1a6b0 <_vfiprintf_r+0x57c>
   1b1d0:	dc070ce3          	beqz	a4,1afa8 <_vfiprintf_r+0xe74>
   1b1d4:	00140a9b          	addiw	s5,s0,1
   1b1d8:	00040c93          	mv	s9,s0
   1b1dc:	00000413          	li	s0,0
   1b1e0:	b80ff06f          	j	1a560 <_vfiprintf_r+0x42c>
   1b1e4:	00e6a023          	sw	a4,0(a3)
   1b1e8:	82cff06f          	j	1a214 <_vfiprintf_r+0xe0>
   1b1ec:	000d2703          	lw	a4,0(s10)
   1b1f0:	008d0d13          	addi	s10,s10,8
   1b1f4:	0007041b          	sext.w	s0,a4
   1b1f8:	00075463          	bgez	a4,1b200 <_vfiprintf_r+0x10cc>
   1b1fc:	fff00413          	li	s0,-1
   1b200:	001dc703          	lbu	a4,1(s11)
   1b204:	00088d93          	mv	s11,a7
   1b208:	8a4ff06f          	j	1a2ac <_vfiprintf_r+0x178>
   1b20c:	00000613          	li	a2,0
   1b210:	c75ff06f          	j	1ae84 <_vfiprintf_r+0xd50>
   1b214:	0001e5b7          	lui	a1,0x1e
   1b218:	00070d13          	mv	s10,a4
   1b21c:	2c858593          	addi	a1,a1,712 # 1e2c8 <__clzdi2+0x7c>
   1b220:	00200613          	li	a2,2
   1b224:	c61ff06f          	j	1ae84 <_vfiprintf_r+0xd50>

000000000001b228 <vfiprintf>:
   1b228:	00050713          	mv	a4,a0
   1b22c:	2201b503          	ld	a0,544(gp) # 20698 <_impure_ptr>
   1b230:	00060693          	mv	a3,a2
   1b234:	00058613          	mv	a2,a1
   1b238:	00070593          	mv	a1,a4
   1b23c:	ef9fe06f          	j	1a134 <_vfiprintf_r>

000000000001b240 <__sbprintf>:
   1b240:	0105d783          	lhu	a5,16(a1)
   1b244:	0ac5ae83          	lw	t4,172(a1)
   1b248:	0125de03          	lhu	t3,18(a1)
   1b24c:	0305b303          	ld	t1,48(a1)
   1b250:	0405b883          	ld	a7,64(a1)
   1b254:	b2010113          	addi	sp,sp,-1248
   1b258:	ffd7f793          	andi	a5,a5,-3
   1b25c:	0c010813          	addi	a6,sp,192
   1b260:	40000713          	li	a4,1024
   1b264:	4c813823          	sd	s0,1232(sp)
   1b268:	00058413          	mv	s0,a1
   1b26c:	01010593          	addi	a1,sp,16
   1b270:	4c913423          	sd	s1,1224(sp)
   1b274:	02f11023          	sh	a5,32(sp)
   1b278:	4c113c23          	sd	ra,1240(sp)
   1b27c:	02012c23          	sw	zero,56(sp)
   1b280:	0bd12e23          	sw	t4,188(sp)
   1b284:	03c11123          	sh	t3,34(sp)
   1b288:	04613023          	sd	t1,64(sp)
   1b28c:	05113823          	sd	a7,80(sp)
   1b290:	01013823          	sd	a6,16(sp)
   1b294:	03013423          	sd	a6,40(sp)
   1b298:	00e12e23          	sw	a4,28(sp)
   1b29c:	02e12823          	sw	a4,48(sp)
   1b2a0:	00050493          	mv	s1,a0
   1b2a4:	e91fe0ef          	jal	1a134 <_vfiprintf_r>
   1b2a8:	00050793          	mv	a5,a0
   1b2ac:	02055a63          	bgez	a0,1b2e0 <__sbprintf+0xa0>
   1b2b0:	02015703          	lhu	a4,32(sp)
   1b2b4:	04077713          	andi	a4,a4,64
   1b2b8:	00070863          	beqz	a4,1b2c8 <__sbprintf+0x88>
   1b2bc:	01045703          	lhu	a4,16(s0)
   1b2c0:	04076713          	ori	a4,a4,64
   1b2c4:	00e41823          	sh	a4,16(s0)
   1b2c8:	4d813083          	ld	ra,1240(sp)
   1b2cc:	4d013403          	ld	s0,1232(sp)
   1b2d0:	4c813483          	ld	s1,1224(sp)
   1b2d4:	00078513          	mv	a0,a5
   1b2d8:	4e010113          	addi	sp,sp,1248
   1b2dc:	00008067          	ret
   1b2e0:	00a13423          	sd	a0,8(sp)
   1b2e4:	01010593          	addi	a1,sp,16
   1b2e8:	00048513          	mv	a0,s1
   1b2ec:	a99f90ef          	jal	14d84 <_fflush_r>
   1b2f0:	00813783          	ld	a5,8(sp)
   1b2f4:	fa050ee3          	beqz	a0,1b2b0 <__sbprintf+0x70>
   1b2f8:	fff00793          	li	a5,-1
   1b2fc:	fb5ff06f          	j	1b2b0 <__sbprintf+0x70>

000000000001b300 <__errno>:
   1b300:	2201b503          	ld	a0,544(gp) # 20698 <_impure_ptr>
   1b304:	00008067          	ret

000000000001b308 <abort>:
   1b308:	ff010113          	addi	sp,sp,-16
   1b30c:	00600513          	li	a0,6
   1b310:	00113423          	sd	ra,8(sp)
   1b314:	274000ef          	jal	1b588 <raise>
   1b318:	00100513          	li	a0,1
   1b31c:	594000ef          	jal	1b8b0 <_exit>

000000000001b320 <_init_signal_r>:
   1b320:	15053703          	ld	a4,336(a0)
   1b324:	00070663          	beqz	a4,1b330 <_init_signal_r+0x10>
   1b328:	00000513          	li	a0,0
   1b32c:	00008067          	ret
   1b330:	fe010113          	addi	sp,sp,-32
   1b334:	10000593          	li	a1,256
   1b338:	00113c23          	sd	ra,24(sp)
   1b33c:	00a13423          	sd	a0,8(sp)
   1b340:	ecdf50ef          	jal	1120c <_malloc_r>
   1b344:	00813783          	ld	a5,8(sp)
   1b348:	14a7b823          	sd	a0,336(a5)
   1b34c:	02050263          	beqz	a0,1b370 <_init_signal_r+0x50>
   1b350:	10050793          	addi	a5,a0,256
   1b354:	00053023          	sd	zero,0(a0)
   1b358:	00850513          	addi	a0,a0,8
   1b35c:	fef51ce3          	bne	a0,a5,1b354 <_init_signal_r+0x34>
   1b360:	00000513          	li	a0,0
   1b364:	01813083          	ld	ra,24(sp)
   1b368:	02010113          	addi	sp,sp,32
   1b36c:	00008067          	ret
   1b370:	fff00513          	li	a0,-1
   1b374:	ff1ff06f          	j	1b364 <_init_signal_r+0x44>

000000000001b378 <_signal_r>:
   1b378:	01f00713          	li	a4,31
   1b37c:	02b76063          	bltu	a4,a1,1b39c <_signal_r+0x24>
   1b380:	15053703          	ld	a4,336(a0)
   1b384:	02070463          	beqz	a4,1b3ac <_signal_r+0x34>
   1b388:	00359593          	slli	a1,a1,0x3
   1b38c:	00b70733          	add	a4,a4,a1
   1b390:	00073503          	ld	a0,0(a4)
   1b394:	00c73023          	sd	a2,0(a4)
   1b398:	00008067          	ret
   1b39c:	01600713          	li	a4,22
   1b3a0:	00e52023          	sw	a4,0(a0)
   1b3a4:	fff00513          	li	a0,-1
   1b3a8:	00008067          	ret
   1b3ac:	fd010113          	addi	sp,sp,-48
   1b3b0:	00b13423          	sd	a1,8(sp)
   1b3b4:	10000593          	li	a1,256
   1b3b8:	00c13823          	sd	a2,16(sp)
   1b3bc:	02113423          	sd	ra,40(sp)
   1b3c0:	00a13c23          	sd	a0,24(sp)
   1b3c4:	e49f50ef          	jal	1120c <_malloc_r>
   1b3c8:	01813683          	ld	a3,24(sp)
   1b3cc:	00050713          	mv	a4,a0
   1b3d0:	10050593          	addi	a1,a0,256
   1b3d4:	14a6b823          	sd	a0,336(a3)
   1b3d8:	00813783          	ld	a5,8(sp)
   1b3dc:	00050693          	mv	a3,a0
   1b3e0:	01013603          	ld	a2,16(sp)
   1b3e4:	fff00513          	li	a0,-1
   1b3e8:	02070063          	beqz	a4,1b408 <_signal_r+0x90>
   1b3ec:	0006b023          	sd	zero,0(a3)
   1b3f0:	00868693          	addi	a3,a3,8
   1b3f4:	feb69ce3          	bne	a3,a1,1b3ec <_signal_r+0x74>
   1b3f8:	00379593          	slli	a1,a5,0x3
   1b3fc:	00b70733          	add	a4,a4,a1
   1b400:	00073503          	ld	a0,0(a4)
   1b404:	00c73023          	sd	a2,0(a4)
   1b408:	02813083          	ld	ra,40(sp)
   1b40c:	03010113          	addi	sp,sp,48
   1b410:	00008067          	ret

000000000001b414 <_raise_r>:
   1b414:	01f00793          	li	a5,31
   1b418:	08b7ea63          	bltu	a5,a1,1b4ac <_raise_r+0x98>
   1b41c:	15053783          	ld	a5,336(a0)
   1b420:	fe010113          	addi	sp,sp,-32
   1b424:	00113c23          	sd	ra,24(sp)
   1b428:	00050713          	mv	a4,a0
   1b42c:	00058613          	mv	a2,a1
   1b430:	04078063          	beqz	a5,1b470 <_raise_r+0x5c>
   1b434:	00359693          	slli	a3,a1,0x3
   1b438:	00d787b3          	add	a5,a5,a3
   1b43c:	0007b683          	ld	a3,0(a5)
   1b440:	02068863          	beqz	a3,1b470 <_raise_r+0x5c>
   1b444:	00100513          	li	a0,1
   1b448:	00a68c63          	beq	a3,a0,1b460 <_raise_r+0x4c>
   1b44c:	fff00593          	li	a1,-1
   1b450:	04b68463          	beq	a3,a1,1b498 <_raise_r+0x84>
   1b454:	0007b023          	sd	zero,0(a5)
   1b458:	00060513          	mv	a0,a2
   1b45c:	000680e7          	jalr	a3
   1b460:	01813083          	ld	ra,24(sp)
   1b464:	00000513          	li	a0,0
   1b468:	02010113          	addi	sp,sp,32
   1b46c:	00008067          	ret
   1b470:	00070513          	mv	a0,a4
   1b474:	00c13423          	sd	a2,8(sp)
   1b478:	00e13023          	sd	a4,0(sp)
   1b47c:	3f0000ef          	jal	1b86c <_getpid_r>
   1b480:	00813603          	ld	a2,8(sp)
   1b484:	01813083          	ld	ra,24(sp)
   1b488:	00050593          	mv	a1,a0
   1b48c:	00013503          	ld	a0,0(sp)
   1b490:	02010113          	addi	sp,sp,32
   1b494:	3740006f          	j	1b808 <_kill_r>
   1b498:	01813083          	ld	ra,24(sp)
   1b49c:	01600793          	li	a5,22
   1b4a0:	00f72023          	sw	a5,0(a4)
   1b4a4:	02010113          	addi	sp,sp,32
   1b4a8:	00008067          	ret
   1b4ac:	01600793          	li	a5,22
   1b4b0:	00f52023          	sw	a5,0(a0)
   1b4b4:	fff00513          	li	a0,-1
   1b4b8:	00008067          	ret

000000000001b4bc <__sigtramp_r>:
   1b4bc:	01f00793          	li	a5,31
   1b4c0:	0cb7e063          	bltu	a5,a1,1b580 <__sigtramp_r+0xc4>
   1b4c4:	15053783          	ld	a5,336(a0)
   1b4c8:	fe010113          	addi	sp,sp,-32
   1b4cc:	00113c23          	sd	ra,24(sp)
   1b4d0:	00058713          	mv	a4,a1
   1b4d4:	06078463          	beqz	a5,1b53c <__sigtramp_r+0x80>
   1b4d8:	00371693          	slli	a3,a4,0x3
   1b4dc:	00d787b3          	add	a5,a5,a3
   1b4e0:	0007b683          	ld	a3,0(a5)
   1b4e4:	02068863          	beqz	a3,1b514 <__sigtramp_r+0x58>
   1b4e8:	fff00613          	li	a2,-1
   1b4ec:	04c68463          	beq	a3,a2,1b534 <__sigtramp_r+0x78>
   1b4f0:	00100613          	li	a2,1
   1b4f4:	02c68863          	beq	a3,a2,1b524 <__sigtramp_r+0x68>
   1b4f8:	00070513          	mv	a0,a4
   1b4fc:	0007b023          	sd	zero,0(a5)
   1b500:	000680e7          	jalr	a3
   1b504:	00000513          	li	a0,0
   1b508:	01813083          	ld	ra,24(sp)
   1b50c:	02010113          	addi	sp,sp,32
   1b510:	00008067          	ret
   1b514:	01813083          	ld	ra,24(sp)
   1b518:	00100513          	li	a0,1
   1b51c:	02010113          	addi	sp,sp,32
   1b520:	00008067          	ret
   1b524:	01813083          	ld	ra,24(sp)
   1b528:	00300513          	li	a0,3
   1b52c:	02010113          	addi	sp,sp,32
   1b530:	00008067          	ret
   1b534:	00200513          	li	a0,2
   1b538:	fd1ff06f          	j	1b508 <__sigtramp_r+0x4c>
   1b53c:	00b13423          	sd	a1,8(sp)
   1b540:	10000593          	li	a1,256
   1b544:	00a13023          	sd	a0,0(sp)
   1b548:	cc5f50ef          	jal	1120c <_malloc_r>
   1b54c:	00013683          	ld	a3,0(sp)
   1b550:	00050793          	mv	a5,a0
   1b554:	14a6b823          	sd	a0,336(a3)
   1b558:	02050063          	beqz	a0,1b578 <__sigtramp_r+0xbc>
   1b55c:	00813703          	ld	a4,8(sp)
   1b560:	00050693          	mv	a3,a0
   1b564:	10050613          	addi	a2,a0,256
   1b568:	0006b023          	sd	zero,0(a3)
   1b56c:	00868693          	addi	a3,a3,8
   1b570:	fec69ce3          	bne	a3,a2,1b568 <__sigtramp_r+0xac>
   1b574:	f65ff06f          	j	1b4d8 <__sigtramp_r+0x1c>
   1b578:	fff00513          	li	a0,-1
   1b57c:	f8dff06f          	j	1b508 <__sigtramp_r+0x4c>
   1b580:	fff00513          	li	a0,-1
   1b584:	00008067          	ret

000000000001b588 <raise>:
   1b588:	01f00793          	li	a5,31
   1b58c:	2201b803          	ld	a6,544(gp) # 20698 <_impure_ptr>
   1b590:	08a7e863          	bltu	a5,a0,1b620 <raise+0x98>
   1b594:	15083783          	ld	a5,336(a6)
   1b598:	fe010113          	addi	sp,sp,-32
   1b59c:	00113c23          	sd	ra,24(sp)
   1b5a0:	00050613          	mv	a2,a0
   1b5a4:	02078e63          	beqz	a5,1b5e0 <raise+0x58>
   1b5a8:	00351713          	slli	a4,a0,0x3
   1b5ac:	00e787b3          	add	a5,a5,a4
   1b5b0:	0007b703          	ld	a4,0(a5)
   1b5b4:	02070663          	beqz	a4,1b5e0 <raise+0x58>
   1b5b8:	00100693          	li	a3,1
   1b5bc:	00d70a63          	beq	a4,a3,1b5d0 <raise+0x48>
   1b5c0:	fff00613          	li	a2,-1
   1b5c4:	04c70263          	beq	a4,a2,1b608 <raise+0x80>
   1b5c8:	0007b023          	sd	zero,0(a5)
   1b5cc:	000700e7          	jalr	a4
   1b5d0:	01813083          	ld	ra,24(sp)
   1b5d4:	00000513          	li	a0,0
   1b5d8:	02010113          	addi	sp,sp,32
   1b5dc:	00008067          	ret
   1b5e0:	00080513          	mv	a0,a6
   1b5e4:	00c13423          	sd	a2,8(sp)
   1b5e8:	01013023          	sd	a6,0(sp)
   1b5ec:	280000ef          	jal	1b86c <_getpid_r>
   1b5f0:	00813603          	ld	a2,8(sp)
   1b5f4:	01813083          	ld	ra,24(sp)
   1b5f8:	00050593          	mv	a1,a0
   1b5fc:	00013503          	ld	a0,0(sp)
   1b600:	02010113          	addi	sp,sp,32
   1b604:	2040006f          	j	1b808 <_kill_r>
   1b608:	01813083          	ld	ra,24(sp)
   1b60c:	01600793          	li	a5,22
   1b610:	00f82023          	sw	a5,0(a6)
   1b614:	00068513          	mv	a0,a3
   1b618:	02010113          	addi	sp,sp,32
   1b61c:	00008067          	ret
   1b620:	01600793          	li	a5,22
   1b624:	00f82023          	sw	a5,0(a6)
   1b628:	fff00513          	li	a0,-1
   1b62c:	00008067          	ret

000000000001b630 <signal>:
   1b630:	01f00793          	li	a5,31
   1b634:	2201b603          	ld	a2,544(gp) # 20698 <_impure_ptr>
   1b638:	02a7e063          	bltu	a5,a0,1b658 <signal+0x28>
   1b63c:	15063703          	ld	a4,336(a2)
   1b640:	02070463          	beqz	a4,1b668 <signal+0x38>
   1b644:	00351513          	slli	a0,a0,0x3
   1b648:	00a70733          	add	a4,a4,a0
   1b64c:	00073503          	ld	a0,0(a4)
   1b650:	00b73023          	sd	a1,0(a4)
   1b654:	00008067          	ret
   1b658:	01600793          	li	a5,22
   1b65c:	00f62023          	sw	a5,0(a2)
   1b660:	fff00513          	li	a0,-1
   1b664:	00008067          	ret
   1b668:	fd010113          	addi	sp,sp,-48
   1b66c:	00b13c23          	sd	a1,24(sp)
   1b670:	00a13823          	sd	a0,16(sp)
   1b674:	10000593          	li	a1,256
   1b678:	00060513          	mv	a0,a2
   1b67c:	00c13423          	sd	a2,8(sp)
   1b680:	02113423          	sd	ra,40(sp)
   1b684:	b89f50ef          	jal	1120c <_malloc_r>
   1b688:	00813603          	ld	a2,8(sp)
   1b68c:	00050713          	mv	a4,a0
   1b690:	10050593          	addi	a1,a0,256
   1b694:	14a63823          	sd	a0,336(a2)
   1b698:	01013783          	ld	a5,16(sp)
   1b69c:	00050613          	mv	a2,a0
   1b6a0:	01813683          	ld	a3,24(sp)
   1b6a4:	fff00513          	li	a0,-1
   1b6a8:	02070063          	beqz	a4,1b6c8 <signal+0x98>
   1b6ac:	00063023          	sd	zero,0(a2)
   1b6b0:	00860613          	addi	a2,a2,8
   1b6b4:	fec59ce3          	bne	a1,a2,1b6ac <signal+0x7c>
   1b6b8:	00379513          	slli	a0,a5,0x3
   1b6bc:	00a70733          	add	a4,a4,a0
   1b6c0:	00073503          	ld	a0,0(a4)
   1b6c4:	00d73023          	sd	a3,0(a4)
   1b6c8:	02813083          	ld	ra,40(sp)
   1b6cc:	03010113          	addi	sp,sp,48
   1b6d0:	00008067          	ret

000000000001b6d4 <_init_signal>:
   1b6d4:	2201b783          	ld	a5,544(gp) # 20698 <_impure_ptr>
   1b6d8:	1507b703          	ld	a4,336(a5)
   1b6dc:	00070663          	beqz	a4,1b6e8 <_init_signal+0x14>
   1b6e0:	00000513          	li	a0,0
   1b6e4:	00008067          	ret
   1b6e8:	fe010113          	addi	sp,sp,-32
   1b6ec:	00078513          	mv	a0,a5
   1b6f0:	10000593          	li	a1,256
   1b6f4:	00f13423          	sd	a5,8(sp)
   1b6f8:	00113c23          	sd	ra,24(sp)
   1b6fc:	b11f50ef          	jal	1120c <_malloc_r>
   1b700:	00813783          	ld	a5,8(sp)
   1b704:	14a7b823          	sd	a0,336(a5)
   1b708:	02050263          	beqz	a0,1b72c <_init_signal+0x58>
   1b70c:	10050793          	addi	a5,a0,256
   1b710:	00053023          	sd	zero,0(a0)
   1b714:	00850513          	addi	a0,a0,8
   1b718:	fef51ce3          	bne	a0,a5,1b710 <_init_signal+0x3c>
   1b71c:	00000513          	li	a0,0
   1b720:	01813083          	ld	ra,24(sp)
   1b724:	02010113          	addi	sp,sp,32
   1b728:	00008067          	ret
   1b72c:	fff00513          	li	a0,-1
   1b730:	ff1ff06f          	j	1b720 <_init_signal+0x4c>

000000000001b734 <__sigtramp>:
   1b734:	01f00793          	li	a5,31
   1b738:	0ca7e463          	bltu	a5,a0,1b800 <__sigtramp+0xcc>
   1b73c:	2201b683          	ld	a3,544(gp) # 20698 <_impure_ptr>
   1b740:	fe010113          	addi	sp,sp,-32
   1b744:	00113c23          	sd	ra,24(sp)
   1b748:	1506b783          	ld	a5,336(a3)
   1b74c:	00050713          	mv	a4,a0
   1b750:	06078463          	beqz	a5,1b7b8 <__sigtramp+0x84>
   1b754:	00371693          	slli	a3,a4,0x3
   1b758:	00d787b3          	add	a5,a5,a3
   1b75c:	0007b683          	ld	a3,0(a5)
   1b760:	02068863          	beqz	a3,1b790 <__sigtramp+0x5c>
   1b764:	fff00613          	li	a2,-1
   1b768:	04c68463          	beq	a3,a2,1b7b0 <__sigtramp+0x7c>
   1b76c:	00100613          	li	a2,1
   1b770:	02c68863          	beq	a3,a2,1b7a0 <__sigtramp+0x6c>
   1b774:	00070513          	mv	a0,a4
   1b778:	0007b023          	sd	zero,0(a5)
   1b77c:	000680e7          	jalr	a3
   1b780:	00000513          	li	a0,0
   1b784:	01813083          	ld	ra,24(sp)
   1b788:	02010113          	addi	sp,sp,32
   1b78c:	00008067          	ret
   1b790:	01813083          	ld	ra,24(sp)
   1b794:	00100513          	li	a0,1
   1b798:	02010113          	addi	sp,sp,32
   1b79c:	00008067          	ret
   1b7a0:	01813083          	ld	ra,24(sp)
   1b7a4:	00300513          	li	a0,3
   1b7a8:	02010113          	addi	sp,sp,32
   1b7ac:	00008067          	ret
   1b7b0:	00200513          	li	a0,2
   1b7b4:	fd1ff06f          	j	1b784 <__sigtramp+0x50>
   1b7b8:	00a13423          	sd	a0,8(sp)
   1b7bc:	10000593          	li	a1,256
   1b7c0:	00068513          	mv	a0,a3
   1b7c4:	00d13023          	sd	a3,0(sp)
   1b7c8:	a45f50ef          	jal	1120c <_malloc_r>
   1b7cc:	00013683          	ld	a3,0(sp)
   1b7d0:	00050793          	mv	a5,a0
   1b7d4:	14a6b823          	sd	a0,336(a3)
   1b7d8:	02050063          	beqz	a0,1b7f8 <__sigtramp+0xc4>
   1b7dc:	00813703          	ld	a4,8(sp)
   1b7e0:	00050693          	mv	a3,a0
   1b7e4:	10050613          	addi	a2,a0,256
   1b7e8:	0006b023          	sd	zero,0(a3)
   1b7ec:	00868693          	addi	a3,a3,8
   1b7f0:	fed61ce3          	bne	a2,a3,1b7e8 <__sigtramp+0xb4>
   1b7f4:	f61ff06f          	j	1b754 <__sigtramp+0x20>
   1b7f8:	fff00513          	li	a0,-1
   1b7fc:	f89ff06f          	j	1b784 <__sigtramp+0x50>
   1b800:	fff00513          	li	a0,-1
   1b804:	00008067          	ret

000000000001b808 <_kill_r>:
   1b808:	fe010113          	addi	sp,sp,-32
   1b80c:	00058793          	mv	a5,a1
   1b810:	00813823          	sd	s0,16(sp)
   1b814:	00913423          	sd	s1,8(sp)
   1b818:	00060593          	mv	a1,a2
   1b81c:	00050493          	mv	s1,a0
   1b820:	00078513          	mv	a0,a5
   1b824:	00113c23          	sd	ra,24(sp)
   1b828:	2401a023          	sw	zero,576(gp) # 206b8 <errno>
   1b82c:	164000ef          	jal	1b990 <_kill>
   1b830:	fff00793          	li	a5,-1
   1b834:	00f50c63          	beq	a0,a5,1b84c <_kill_r+0x44>
   1b838:	01813083          	ld	ra,24(sp)
   1b83c:	01013403          	ld	s0,16(sp)
   1b840:	00813483          	ld	s1,8(sp)
   1b844:	02010113          	addi	sp,sp,32
   1b848:	00008067          	ret
   1b84c:	2401a783          	lw	a5,576(gp) # 206b8 <errno>
   1b850:	fe0784e3          	beqz	a5,1b838 <_kill_r+0x30>
   1b854:	01813083          	ld	ra,24(sp)
   1b858:	01013403          	ld	s0,16(sp)
   1b85c:	00f4a023          	sw	a5,0(s1)
   1b860:	00813483          	ld	s1,8(sp)
   1b864:	02010113          	addi	sp,sp,32
   1b868:	00008067          	ret

000000000001b86c <_getpid_r>:
   1b86c:	0dc0006f          	j	1b948 <_getpid>

000000000001b870 <_close>:
   1b870:	03900893          	li	a7,57
   1b874:	00000073          	ecall
   1b878:	00054663          	bltz	a0,1b884 <_close+0x14>
   1b87c:	0005051b          	sext.w	a0,a0
   1b880:	00008067          	ret
   1b884:	fe010113          	addi	sp,sp,-32
   1b888:	00113c23          	sd	ra,24(sp)
   1b88c:	00a13423          	sd	a0,8(sp)
   1b890:	a71ff0ef          	jal	1b300 <__errno>
   1b894:	00813783          	ld	a5,8(sp)
   1b898:	01813083          	ld	ra,24(sp)
   1b89c:	40f007bb          	negw	a5,a5
   1b8a0:	00f52023          	sw	a5,0(a0)
   1b8a4:	fff00513          	li	a0,-1
   1b8a8:	02010113          	addi	sp,sp,32
   1b8ac:	00008067          	ret

000000000001b8b0 <_exit>:
   1b8b0:	05d00893          	li	a7,93
   1b8b4:	00000073          	ecall
   1b8b8:	00054463          	bltz	a0,1b8c0 <_exit+0x10>
   1b8bc:	0000006f          	j	1b8bc <_exit+0xc>
   1b8c0:	fe010113          	addi	sp,sp,-32
   1b8c4:	00113c23          	sd	ra,24(sp)
   1b8c8:	00a13423          	sd	a0,8(sp)
   1b8cc:	a35ff0ef          	jal	1b300 <__errno>
   1b8d0:	00813783          	ld	a5,8(sp)
   1b8d4:	40f007bb          	negw	a5,a5
   1b8d8:	00f52023          	sw	a5,0(a0)
   1b8dc:	0000006f          	j	1b8dc <_exit+0x2c>

000000000001b8e0 <_fstat>:
   1b8e0:	f6010113          	addi	sp,sp,-160
   1b8e4:	00058713          	mv	a4,a1
   1b8e8:	08113c23          	sd	ra,152(sp)
   1b8ec:	08813823          	sd	s0,144(sp)
   1b8f0:	05000893          	li	a7,80
   1b8f4:	01010593          	addi	a1,sp,16
   1b8f8:	00000073          	ecall
   1b8fc:	02054463          	bltz	a0,1b924 <_fstat+0x44>
   1b900:	0005041b          	sext.w	s0,a0
   1b904:	01010593          	addi	a1,sp,16
   1b908:	00070513          	mv	a0,a4
   1b90c:	1e0000ef          	jal	1baec <_conv_stat>
   1b910:	09813083          	ld	ra,152(sp)
   1b914:	00040513          	mv	a0,s0
   1b918:	09013403          	ld	s0,144(sp)
   1b91c:	0a010113          	addi	sp,sp,160
   1b920:	00008067          	ret
   1b924:	00e13023          	sd	a4,0(sp)
   1b928:	00a13423          	sd	a0,8(sp)
   1b92c:	9d5ff0ef          	jal	1b300 <__errno>
   1b930:	00813783          	ld	a5,8(sp)
   1b934:	00013703          	ld	a4,0(sp)
   1b938:	fff00413          	li	s0,-1
   1b93c:	40f007bb          	negw	a5,a5
   1b940:	00f52023          	sw	a5,0(a0)
   1b944:	fc1ff06f          	j	1b904 <_fstat+0x24>

000000000001b948 <_getpid>:
   1b948:	00100513          	li	a0,1
   1b94c:	00008067          	ret

000000000001b950 <_isatty>:
   1b950:	f8010113          	addi	sp,sp,-128
   1b954:	00810593          	addi	a1,sp,8
   1b958:	06113c23          	sd	ra,120(sp)
   1b95c:	f85ff0ef          	jal	1b8e0 <_fstat>
   1b960:	fff00793          	li	a5,-1
   1b964:	00f50e63          	beq	a0,a5,1b980 <_isatty+0x30>
   1b968:	00c12503          	lw	a0,12(sp)
   1b96c:	07813083          	ld	ra,120(sp)
   1b970:	00d5551b          	srliw	a0,a0,0xd
   1b974:	00157513          	andi	a0,a0,1
   1b978:	08010113          	addi	sp,sp,128
   1b97c:	00008067          	ret
   1b980:	07813083          	ld	ra,120(sp)
   1b984:	00000513          	li	a0,0
   1b988:	08010113          	addi	sp,sp,128
   1b98c:	00008067          	ret

000000000001b990 <_kill>:
   1b990:	ff010113          	addi	sp,sp,-16
   1b994:	00113423          	sd	ra,8(sp)
   1b998:	969ff0ef          	jal	1b300 <__errno>
   1b99c:	00813083          	ld	ra,8(sp)
   1b9a0:	01600793          	li	a5,22
   1b9a4:	00f52023          	sw	a5,0(a0)
   1b9a8:	fff00513          	li	a0,-1
   1b9ac:	01010113          	addi	sp,sp,16
   1b9b0:	00008067          	ret

000000000001b9b4 <_lseek>:
   1b9b4:	03e00893          	li	a7,62
   1b9b8:	00000073          	ecall
   1b9bc:	00054463          	bltz	a0,1b9c4 <_lseek+0x10>
   1b9c0:	00008067          	ret
   1b9c4:	fe010113          	addi	sp,sp,-32
   1b9c8:	00113c23          	sd	ra,24(sp)
   1b9cc:	00a13423          	sd	a0,8(sp)
   1b9d0:	931ff0ef          	jal	1b300 <__errno>
   1b9d4:	00813783          	ld	a5,8(sp)
   1b9d8:	01813083          	ld	ra,24(sp)
   1b9dc:	40f007bb          	negw	a5,a5
   1b9e0:	00f52023          	sw	a5,0(a0)
   1b9e4:	fff00793          	li	a5,-1
   1b9e8:	00078513          	mv	a0,a5
   1b9ec:	02010113          	addi	sp,sp,32
   1b9f0:	00008067          	ret

000000000001b9f4 <_read>:
   1b9f4:	03f00893          	li	a7,63
   1b9f8:	00000073          	ecall
   1b9fc:	00054463          	bltz	a0,1ba04 <_read+0x10>
   1ba00:	00008067          	ret
   1ba04:	fe010113          	addi	sp,sp,-32
   1ba08:	00113c23          	sd	ra,24(sp)
   1ba0c:	00a13423          	sd	a0,8(sp)
   1ba10:	8f1ff0ef          	jal	1b300 <__errno>
   1ba14:	00813783          	ld	a5,8(sp)
   1ba18:	01813083          	ld	ra,24(sp)
   1ba1c:	40f007bb          	negw	a5,a5
   1ba20:	00f52023          	sw	a5,0(a0)
   1ba24:	fff00793          	li	a5,-1
   1ba28:	00078513          	mv	a0,a5
   1ba2c:	02010113          	addi	sp,sp,32
   1ba30:	00008067          	ret

000000000001ba34 <_sbrk>:
   1ba34:	2701b783          	ld	a5,624(gp) # 206e8 <heap_end.0>
   1ba38:	ff010113          	addi	sp,sp,-16
   1ba3c:	00113423          	sd	ra,8(sp)
   1ba40:	00050713          	mv	a4,a0
   1ba44:	02079063          	bnez	a5,1ba64 <_sbrk+0x30>
   1ba48:	0d600893          	li	a7,214
   1ba4c:	00000513          	li	a0,0
   1ba50:	00000073          	ecall
   1ba54:	fff00793          	li	a5,-1
   1ba58:	02f50c63          	beq	a0,a5,1ba90 <_sbrk+0x5c>
   1ba5c:	00050793          	mv	a5,a0
   1ba60:	26a1b823          	sd	a0,624(gp) # 206e8 <heap_end.0>
   1ba64:	00f70533          	add	a0,a4,a5
   1ba68:	0d600893          	li	a7,214
   1ba6c:	00000073          	ecall
   1ba70:	2701b783          	ld	a5,624(gp) # 206e8 <heap_end.0>
   1ba74:	00f70733          	add	a4,a4,a5
   1ba78:	00e51c63          	bne	a0,a4,1ba90 <_sbrk+0x5c>
   1ba7c:	00813083          	ld	ra,8(sp)
   1ba80:	26a1b823          	sd	a0,624(gp) # 206e8 <heap_end.0>
   1ba84:	00078513          	mv	a0,a5
   1ba88:	01010113          	addi	sp,sp,16
   1ba8c:	00008067          	ret
   1ba90:	871ff0ef          	jal	1b300 <__errno>
   1ba94:	00813083          	ld	ra,8(sp)
   1ba98:	00c00793          	li	a5,12
   1ba9c:	00f52023          	sw	a5,0(a0)
   1baa0:	fff00513          	li	a0,-1
   1baa4:	01010113          	addi	sp,sp,16
   1baa8:	00008067          	ret

000000000001baac <_write>:
   1baac:	04000893          	li	a7,64
   1bab0:	00000073          	ecall
   1bab4:	00054463          	bltz	a0,1babc <_write+0x10>
   1bab8:	00008067          	ret
   1babc:	fe010113          	addi	sp,sp,-32
   1bac0:	00113c23          	sd	ra,24(sp)
   1bac4:	00a13423          	sd	a0,8(sp)
   1bac8:	839ff0ef          	jal	1b300 <__errno>
   1bacc:	00813783          	ld	a5,8(sp)
   1bad0:	01813083          	ld	ra,24(sp)
   1bad4:	40f007bb          	negw	a5,a5
   1bad8:	00f52023          	sw	a5,0(a0)
   1badc:	fff00793          	li	a5,-1
   1bae0:	00078513          	mv	a0,a5
   1bae4:	02010113          	addi	sp,sp,32
   1bae8:	00008067          	ret

000000000001baec <_conv_stat>:
   1baec:	0005b383          	ld	t2,0(a1)
   1baf0:	0085b283          	ld	t0,8(a1)
   1baf4:	0105af83          	lw	t6,16(a1)
   1baf8:	0145af03          	lw	t5,20(a1)
   1bafc:	0185ae83          	lw	t4,24(a1)
   1bb00:	01c5ae03          	lw	t3,28(a1)
   1bb04:	0205b303          	ld	t1,32(a1)
   1bb08:	0305b883          	ld	a7,48(a1)
   1bb0c:	0405b803          	ld	a6,64(a1)
   1bb10:	0385a603          	lw	a2,56(a1)
   1bb14:	0485b683          	ld	a3,72(a1)
   1bb18:	0585b703          	ld	a4,88(a1)
   1bb1c:	0685b783          	ld	a5,104(a1)
   1bb20:	00751023          	sh	t2,0(a0)
   1bb24:	00551123          	sh	t0,2(a0)
   1bb28:	01f52223          	sw	t6,4(a0)
   1bb2c:	01e51423          	sh	t5,8(a0)
   1bb30:	01d51523          	sh	t4,10(a0)
   1bb34:	01c51623          	sh	t3,12(a0)
   1bb38:	00651723          	sh	t1,14(a0)
   1bb3c:	01153823          	sd	a7,16(a0)
   1bb40:	05053823          	sd	a6,80(a0)
   1bb44:	04c53423          	sd	a2,72(a0)
   1bb48:	00d53c23          	sd	a3,24(a0)
   1bb4c:	02e53423          	sd	a4,40(a0)
   1bb50:	02f53c23          	sd	a5,56(a0)
   1bb54:	00008067          	ret

000000000001bb58 <__adddf3>:
   1bb58:	fe010113          	addi	sp,sp,-32
   1bb5c:	fff00713          	li	a4,-1
   1bb60:	00c75713          	srli	a4,a4,0xc
   1bb64:	0345d613          	srli	a2,a1,0x34
   1bb68:	01213023          	sd	s2,0(sp)
   1bb6c:	03455913          	srli	s2,a0,0x34
   1bb70:	00a777b3          	and	a5,a4,a0
   1bb74:	00813823          	sd	s0,16(sp)
   1bb78:	00b77733          	and	a4,a4,a1
   1bb7c:	7ff97913          	andi	s2,s2,2047
   1bb80:	7ff67613          	andi	a2,a2,2047
   1bb84:	00113c23          	sd	ra,24(sp)
   1bb88:	00913423          	sd	s1,8(sp)
   1bb8c:	03f55413          	srli	s0,a0,0x3f
   1bb90:	03f5d593          	srli	a1,a1,0x3f
   1bb94:	00379793          	slli	a5,a5,0x3
   1bb98:	00371713          	slli	a4,a4,0x3
   1bb9c:	40c906bb          	subw	a3,s2,a2
   1bba0:	1eb41663          	bne	s0,a1,1bd8c <__adddf3+0x234>
   1bba4:	08d05e63          	blez	a3,1bc40 <__adddf3+0xe8>
   1bba8:	04061c63          	bnez	a2,1bc00 <__adddf3+0xa8>
   1bbac:	04070663          	beqz	a4,1bbf8 <__adddf3+0xa0>
   1bbb0:	fff6869b          	addiw	a3,a3,-1
   1bbb4:	02069e63          	bnez	a3,1bbf0 <__adddf3+0x98>
   1bbb8:	00e787b3          	add	a5,a5,a4
   1bbbc:	00879713          	slli	a4,a5,0x8
   1bbc0:	18075463          	bgez	a4,1bd48 <__adddf3+0x1f0>
   1bbc4:	00190913          	addi	s2,s2,1
   1bbc8:	7ff00713          	li	a4,2047
   1bbcc:	3ce90663          	beq	s2,a4,1bf98 <__adddf3+0x440>
   1bbd0:	1ff00713          	li	a4,511
   1bbd4:	03671713          	slli	a4,a4,0x36
   1bbd8:	0017d693          	srli	a3,a5,0x1
   1bbdc:	fff70713          	addi	a4,a4,-1
   1bbe0:	00e6f733          	and	a4,a3,a4
   1bbe4:	0017f793          	andi	a5,a5,1
   1bbe8:	00f767b3          	or	a5,a4,a5
   1bbec:	15c0006f          	j	1bd48 <__adddf3+0x1f0>
   1bbf0:	7ff00613          	li	a2,2047
   1bbf4:	02c91063          	bne	s2,a2,1bc14 <__adddf3+0xbc>
   1bbf8:	00078713          	mv	a4,a5
   1bbfc:	2a40006f          	j	1bea0 <__adddf3+0x348>
   1bc00:	7ff00613          	li	a2,2047
   1bc04:	fec90ae3          	beq	s2,a2,1bbf8 <__adddf3+0xa0>
   1bc08:	00100613          	li	a2,1
   1bc0c:	03761613          	slli	a2,a2,0x37
   1bc10:	00c76733          	or	a4,a4,a2
   1bc14:	03800593          	li	a1,56
   1bc18:	00100613          	li	a2,1
   1bc1c:	00d5ce63          	blt	a1,a3,1bc38 <__adddf3+0xe0>
   1bc20:	04000613          	li	a2,64
   1bc24:	00d755b3          	srl	a1,a4,a3
   1bc28:	40d606bb          	subw	a3,a2,a3
   1bc2c:	00d71733          	sll	a4,a4,a3
   1bc30:	00e03733          	snez	a4,a4
   1bc34:	00e5e633          	or	a2,a1,a4
   1bc38:	00c787b3          	add	a5,a5,a2
   1bc3c:	f81ff06f          	j	1bbbc <__adddf3+0x64>
   1bc40:	06068a63          	beqz	a3,1bcb4 <__adddf3+0x15c>
   1bc44:	02091663          	bnez	s2,1bc70 <__adddf3+0x118>
   1bc48:	34078263          	beqz	a5,1bf8c <__adddf3+0x434>
   1bc4c:	fff6c693          	not	a3,a3
   1bc50:	00069863          	bnez	a3,1bc60 <__adddf3+0x108>
   1bc54:	00e787b3          	add	a5,a5,a4
   1bc58:	00060913          	mv	s2,a2
   1bc5c:	f61ff06f          	j	1bbbc <__adddf3+0x64>
   1bc60:	7ff00593          	li	a1,2047
   1bc64:	02b61263          	bne	a2,a1,1bc88 <__adddf3+0x130>
   1bc68:	7ff00913          	li	s2,2047
   1bc6c:	2340006f          	j	1bea0 <__adddf3+0x348>
   1bc70:	7ff00593          	li	a1,2047
   1bc74:	feb60ae3          	beq	a2,a1,1bc68 <__adddf3+0x110>
   1bc78:	00100593          	li	a1,1
   1bc7c:	03759593          	slli	a1,a1,0x37
   1bc80:	40d006bb          	negw	a3,a3
   1bc84:	00b7e7b3          	or	a5,a5,a1
   1bc88:	03800513          	li	a0,56
   1bc8c:	00100593          	li	a1,1
   1bc90:	00d54e63          	blt	a0,a3,1bcac <__adddf3+0x154>
   1bc94:	04000593          	li	a1,64
   1bc98:	00d7d533          	srl	a0,a5,a3
   1bc9c:	40d586bb          	subw	a3,a1,a3
   1bca0:	00d797b3          	sll	a5,a5,a3
   1bca4:	00f037b3          	snez	a5,a5
   1bca8:	00f565b3          	or	a1,a0,a5
   1bcac:	00e587b3          	add	a5,a1,a4
   1bcb0:	fa9ff06f          	j	1bc58 <__adddf3+0x100>
   1bcb4:	00190693          	addi	a3,s2,1
   1bcb8:	7fe6f613          	andi	a2,a3,2046
   1bcbc:	06061c63          	bnez	a2,1bd34 <__adddf3+0x1dc>
   1bcc0:	06091263          	bnez	s2,1bd24 <__adddf3+0x1cc>
   1bcc4:	2a078e63          	beqz	a5,1bf80 <__adddf3+0x428>
   1bcc8:	08070c63          	beqz	a4,1bd60 <__adddf3+0x208>
   1bccc:	00f70733          	add	a4,a4,a5
   1bcd0:	00871793          	slli	a5,a4,0x8
   1bcd4:	1c07d663          	bgez	a5,1bea0 <__adddf3+0x348>
   1bcd8:	1ff00793          	li	a5,511
   1bcdc:	03479793          	slli	a5,a5,0x34
   1bce0:	00375713          	srli	a4,a4,0x3
   1bce4:	fff78793          	addi	a5,a5,-1
   1bce8:	00f777b3          	and	a5,a4,a5
   1bcec:	00100913          	li	s2,1
   1bcf0:	7ff97513          	andi	a0,s2,2047
   1bcf4:	00c79793          	slli	a5,a5,0xc
   1bcf8:	03451513          	slli	a0,a0,0x34
   1bcfc:	00c7d793          	srli	a5,a5,0xc
   1bd00:	03f41413          	slli	s0,s0,0x3f
   1bd04:	00f56533          	or	a0,a0,a5
   1bd08:	01813083          	ld	ra,24(sp)
   1bd0c:	00856533          	or	a0,a0,s0
   1bd10:	01013403          	ld	s0,16(sp)
   1bd14:	00813483          	ld	s1,8(sp)
   1bd18:	00013903          	ld	s2,0(sp)
   1bd1c:	02010113          	addi	sp,sp,32
   1bd20:	00008067          	ret
   1bd24:	f40782e3          	beqz	a5,1bc68 <__adddf3+0x110>
   1bd28:	1c071863          	bnez	a4,1bef8 <__adddf3+0x3a0>
   1bd2c:	00078713          	mv	a4,a5
   1bd30:	f39ff06f          	j	1bc68 <__adddf3+0x110>
   1bd34:	7ff00613          	li	a2,2047
   1bd38:	24c68e63          	beq	a3,a2,1bf94 <__adddf3+0x43c>
   1bd3c:	00e78733          	add	a4,a5,a4
   1bd40:	00175793          	srli	a5,a4,0x1
   1bd44:	00068913          	mv	s2,a3
   1bd48:	0077f713          	andi	a4,a5,7
   1bd4c:	00070a63          	beqz	a4,1bd60 <__adddf3+0x208>
   1bd50:	00f7f713          	andi	a4,a5,15
   1bd54:	00400693          	li	a3,4
   1bd58:	00d70463          	beq	a4,a3,1bd60 <__adddf3+0x208>
   1bd5c:	00d787b3          	add	a5,a5,a3
   1bd60:	00879713          	slli	a4,a5,0x8
   1bd64:	e8075ae3          	bgez	a4,1bbf8 <__adddf3+0xa0>
   1bd68:	00190913          	addi	s2,s2,1
   1bd6c:	7ff00713          	li	a4,2047
   1bd70:	22e90463          	beq	s2,a4,1bf98 <__adddf3+0x440>
   1bd74:	1ff00713          	li	a4,511
   1bd78:	03471713          	slli	a4,a4,0x34
   1bd7c:	0037d793          	srli	a5,a5,0x3
   1bd80:	fff70713          	addi	a4,a4,-1
   1bd84:	00e7f7b3          	and	a5,a5,a4
   1bd88:	f69ff06f          	j	1bcf0 <__adddf3+0x198>
   1bd8c:	06d05c63          	blez	a3,1be04 <__adddf3+0x2ac>
   1bd90:	04061e63          	bnez	a2,1bdec <__adddf3+0x294>
   1bd94:	e60702e3          	beqz	a4,1bbf8 <__adddf3+0xa0>
   1bd98:	fff6869b          	addiw	a3,a3,-1
   1bd9c:	00069e63          	bnez	a3,1bdb8 <__adddf3+0x260>
   1bda0:	40e787b3          	sub	a5,a5,a4
   1bda4:	00879713          	slli	a4,a5,0x8
   1bda8:	fa0750e3          	bgez	a4,1bd48 <__adddf3+0x1f0>
   1bdac:	00979493          	slli	s1,a5,0x9
   1bdb0:	0094d493          	srli	s1,s1,0x9
   1bdb4:	16c0006f          	j	1bf20 <__adddf3+0x3c8>
   1bdb8:	7ff00613          	li	a2,2047
   1bdbc:	e2c90ee3          	beq	s2,a2,1bbf8 <__adddf3+0xa0>
   1bdc0:	03800593          	li	a1,56
   1bdc4:	00100613          	li	a2,1
   1bdc8:	00d5ce63          	blt	a1,a3,1bde4 <__adddf3+0x28c>
   1bdcc:	04000613          	li	a2,64
   1bdd0:	00d755b3          	srl	a1,a4,a3
   1bdd4:	40d606bb          	subw	a3,a2,a3
   1bdd8:	00d71733          	sll	a4,a4,a3
   1bddc:	00e03733          	snez	a4,a4
   1bde0:	00e5e633          	or	a2,a1,a4
   1bde4:	40c787b3          	sub	a5,a5,a2
   1bde8:	fbdff06f          	j	1bda4 <__adddf3+0x24c>
   1bdec:	7ff00613          	li	a2,2047
   1bdf0:	e0c904e3          	beq	s2,a2,1bbf8 <__adddf3+0xa0>
   1bdf4:	00100613          	li	a2,1
   1bdf8:	03761613          	slli	a2,a2,0x37
   1bdfc:	00c76733          	or	a4,a4,a2
   1be00:	fc1ff06f          	j	1bdc0 <__adddf3+0x268>
   1be04:	00068813          	mv	a6,a3
   1be08:	06068c63          	beqz	a3,1be80 <__adddf3+0x328>
   1be0c:	02091863          	bnez	s2,1be3c <__adddf3+0x2e4>
   1be10:	16078c63          	beqz	a5,1bf88 <__adddf3+0x430>
   1be14:	fff6c693          	not	a3,a3
   1be18:	00069a63          	bnez	a3,1be2c <__adddf3+0x2d4>
   1be1c:	40f707b3          	sub	a5,a4,a5
   1be20:	00060913          	mv	s2,a2
   1be24:	00058413          	mv	s0,a1
   1be28:	f7dff06f          	j	1bda4 <__adddf3+0x24c>
   1be2c:	7ff00513          	li	a0,2047
   1be30:	02a61263          	bne	a2,a0,1be54 <__adddf3+0x2fc>
   1be34:	00058413          	mv	s0,a1
   1be38:	e31ff06f          	j	1bc68 <__adddf3+0x110>
   1be3c:	7ff00693          	li	a3,2047
   1be40:	fed60ae3          	beq	a2,a3,1be34 <__adddf3+0x2dc>
   1be44:	00100513          	li	a0,1
   1be48:	03751513          	slli	a0,a0,0x37
   1be4c:	410006bb          	negw	a3,a6
   1be50:	00a7e7b3          	or	a5,a5,a0
   1be54:	03800813          	li	a6,56
   1be58:	00100513          	li	a0,1
   1be5c:	00d84e63          	blt	a6,a3,1be78 <__adddf3+0x320>
   1be60:	04000513          	li	a0,64
   1be64:	00d7d833          	srl	a6,a5,a3
   1be68:	40d506bb          	subw	a3,a0,a3
   1be6c:	00d797b3          	sll	a5,a5,a3
   1be70:	00f037b3          	snez	a5,a5
   1be74:	00f86533          	or	a0,a6,a5
   1be78:	40a707b3          	sub	a5,a4,a0
   1be7c:	fa5ff06f          	j	1be20 <__adddf3+0x2c8>
   1be80:	00190693          	addi	a3,s2,1
   1be84:	7fe6f693          	andi	a3,a3,2046
   1be88:	08069263          	bnez	a3,1bf0c <__adddf3+0x3b4>
   1be8c:	06091463          	bnez	s2,1bef4 <__adddf3+0x39c>
   1be90:	02079663          	bnez	a5,1bebc <__adddf3+0x364>
   1be94:	00000413          	li	s0,0
   1be98:	e4070ce3          	beqz	a4,1bcf0 <__adddf3+0x198>
   1be9c:	00058413          	mv	s0,a1
   1bea0:	00375793          	srli	a5,a4,0x3
   1bea4:	7ff00713          	li	a4,2047
   1bea8:	e4e914e3          	bne	s2,a4,1bcf0 <__adddf3+0x198>
   1beac:	e40782e3          	beqz	a5,1bcf0 <__adddf3+0x198>
   1beb0:	00100793          	li	a5,1
   1beb4:	03379793          	slli	a5,a5,0x33
   1beb8:	0340006f          	j	1beec <__adddf3+0x394>
   1bebc:	ea0702e3          	beqz	a4,1bd60 <__adddf3+0x208>
   1bec0:	40e786b3          	sub	a3,a5,a4
   1bec4:	00869613          	slli	a2,a3,0x8
   1bec8:	00065c63          	bgez	a2,1bee0 <__adddf3+0x388>
   1becc:	40f707b3          	sub	a5,a4,a5
   1bed0:	00058413          	mv	s0,a1
   1bed4:	00000913          	li	s2,0
   1bed8:	e0078ce3          	beqz	a5,1bcf0 <__adddf3+0x198>
   1bedc:	e6dff06f          	j	1bd48 <__adddf3+0x1f0>
   1bee0:	00068713          	mv	a4,a3
   1bee4:	fa069ee3          	bnez	a3,1bea0 <__adddf3+0x348>
   1bee8:	00000793          	li	a5,0
   1beec:	00000413          	li	s0,0
   1bef0:	e01ff06f          	j	1bcf0 <__adddf3+0x198>
   1bef4:	e2079ae3          	bnez	a5,1bd28 <__adddf3+0x1d0>
   1bef8:	00100793          	li	a5,1
   1befc:	00000413          	li	s0,0
   1bf00:	7ff00913          	li	s2,2047
   1bf04:	03379793          	slli	a5,a5,0x33
   1bf08:	de9ff06f          	j	1bcf0 <__adddf3+0x198>
   1bf0c:	40e784b3          	sub	s1,a5,a4
   1bf10:	00849693          	slli	a3,s1,0x8
   1bf14:	0406d263          	bgez	a3,1bf58 <__adddf3+0x400>
   1bf18:	40f704b3          	sub	s1,a4,a5
   1bf1c:	00058413          	mv	s0,a1
   1bf20:	00048513          	mv	a0,s1
   1bf24:	328020ef          	jal	1e24c <__clzdi2>
   1bf28:	ff85051b          	addiw	a0,a0,-8
   1bf2c:	00a494b3          	sll	s1,s1,a0
   1bf30:	03254c63          	blt	a0,s2,1bf68 <__adddf3+0x410>
   1bf34:	4125053b          	subw	a0,a0,s2
   1bf38:	0015051b          	addiw	a0,a0,1
   1bf3c:	04000713          	li	a4,64
   1bf40:	40a7073b          	subw	a4,a4,a0
   1bf44:	00a4d7b3          	srl	a5,s1,a0
   1bf48:	00e494b3          	sll	s1,s1,a4
   1bf4c:	009034b3          	snez	s1,s1
   1bf50:	0097e7b3          	or	a5,a5,s1
   1bf54:	f81ff06f          	j	1bed4 <__adddf3+0x37c>
   1bf58:	fc0494e3          	bnez	s1,1bf20 <__adddf3+0x3c8>
   1bf5c:	00000793          	li	a5,0
   1bf60:	00000913          	li	s2,0
   1bf64:	f89ff06f          	j	1beec <__adddf3+0x394>
   1bf68:	fff00793          	li	a5,-1
   1bf6c:	03779793          	slli	a5,a5,0x37
   1bf70:	fff78793          	addi	a5,a5,-1
   1bf74:	40a90933          	sub	s2,s2,a0
   1bf78:	00f4f7b3          	and	a5,s1,a5
   1bf7c:	dcdff06f          	j	1bd48 <__adddf3+0x1f0>
   1bf80:	00070793          	mv	a5,a4
   1bf84:	f51ff06f          	j	1bed4 <__adddf3+0x37c>
   1bf88:	00058413          	mv	s0,a1
   1bf8c:	00060913          	mv	s2,a2
   1bf90:	f11ff06f          	j	1bea0 <__adddf3+0x348>
   1bf94:	00068913          	mv	s2,a3
   1bf98:	00000793          	li	a5,0
   1bf9c:	d55ff06f          	j	1bcf0 <__adddf3+0x198>

000000000001bfa0 <__divdf3>:
   1bfa0:	fb010113          	addi	sp,sp,-80
   1bfa4:	02913c23          	sd	s1,56(sp)
   1bfa8:	03455493          	srli	s1,a0,0x34
   1bfac:	03413023          	sd	s4,32(sp)
   1bfb0:	01513c23          	sd	s5,24(sp)
   1bfb4:	01713423          	sd	s7,8(sp)
   1bfb8:	00c51a13          	slli	s4,a0,0xc
   1bfbc:	04113423          	sd	ra,72(sp)
   1bfc0:	04813023          	sd	s0,64(sp)
   1bfc4:	03213823          	sd	s2,48(sp)
   1bfc8:	03313423          	sd	s3,40(sp)
   1bfcc:	01613823          	sd	s6,16(sp)
   1bfd0:	01813023          	sd	s8,0(sp)
   1bfd4:	7ff4f493          	andi	s1,s1,2047
   1bfd8:	00058b93          	mv	s7,a1
   1bfdc:	00ca5a13          	srli	s4,s4,0xc
   1bfe0:	03f55a93          	srli	s5,a0,0x3f
   1bfe4:	08048863          	beqz	s1,1c074 <__divdf3+0xd4>
   1bfe8:	7ff00793          	li	a5,2047
   1bfec:	0af48663          	beq	s1,a5,1c098 <__divdf3+0xf8>
   1bff0:	00100793          	li	a5,1
   1bff4:	003a1a13          	slli	s4,s4,0x3
   1bff8:	03779793          	slli	a5,a5,0x37
   1bffc:	00fa6a33          	or	s4,s4,a5
   1c000:	c0148493          	addi	s1,s1,-1023
   1c004:	00000b13          	li	s6,0
   1c008:	034bd793          	srli	a5,s7,0x34
   1c00c:	00cb9413          	slli	s0,s7,0xc
   1c010:	7ff7f793          	andi	a5,a5,2047
   1c014:	00c45413          	srli	s0,s0,0xc
   1c018:	03fbdb93          	srli	s7,s7,0x3f
   1c01c:	08078e63          	beqz	a5,1c0b8 <__divdf3+0x118>
   1c020:	7ff00713          	li	a4,2047
   1c024:	0ae78c63          	beq	a5,a4,1c0dc <__divdf3+0x13c>
   1c028:	00100713          	li	a4,1
   1c02c:	00341413          	slli	s0,s0,0x3
   1c030:	03771713          	slli	a4,a4,0x37
   1c034:	00e46433          	or	s0,s0,a4
   1c038:	c0178793          	addi	a5,a5,-1023
   1c03c:	00000713          	li	a4,0
   1c040:	40f489b3          	sub	s3,s1,a5
   1c044:	002b1793          	slli	a5,s6,0x2
   1c048:	00e7e7b3          	or	a5,a5,a4
   1c04c:	fff78793          	addi	a5,a5,-1
   1c050:	00e00693          	li	a3,14
   1c054:	017ac933          	xor	s2,s5,s7
   1c058:	0af6ec63          	bltu	a3,a5,1c110 <__divdf3+0x170>
   1c05c:	0001f6b7          	lui	a3,0x1f
   1c060:	00279793          	slli	a5,a5,0x2
   1c064:	9a068693          	addi	a3,a3,-1632 # 1e9a0 <blanks.1+0x10>
   1c068:	00d787b3          	add	a5,a5,a3
   1c06c:	0007a783          	lw	a5,0(a5)
   1c070:	00078067          	jr	a5
   1c074:	020a0c63          	beqz	s4,1c0ac <__divdf3+0x10c>
   1c078:	000a0513          	mv	a0,s4
   1c07c:	1d0020ef          	jal	1e24c <__clzdi2>
   1c080:	0005079b          	sext.w	a5,a0
   1c084:	c0d00493          	li	s1,-1011
   1c088:	ff85051b          	addiw	a0,a0,-8
   1c08c:	00aa1a33          	sll	s4,s4,a0
   1c090:	40f484b3          	sub	s1,s1,a5
   1c094:	f71ff06f          	j	1c004 <__divdf3+0x64>
   1c098:	0004849b          	sext.w	s1,s1
   1c09c:	00200b13          	li	s6,2
   1c0a0:	f60a04e3          	beqz	s4,1c008 <__divdf3+0x68>
   1c0a4:	00300b13          	li	s6,3
   1c0a8:	f61ff06f          	j	1c008 <__divdf3+0x68>
   1c0ac:	00000493          	li	s1,0
   1c0b0:	00100b13          	li	s6,1
   1c0b4:	f55ff06f          	j	1c008 <__divdf3+0x68>
   1c0b8:	02040c63          	beqz	s0,1c0f0 <__divdf3+0x150>
   1c0bc:	00040513          	mv	a0,s0
   1c0c0:	18c020ef          	jal	1e24c <__clzdi2>
   1c0c4:	0005071b          	sext.w	a4,a0
   1c0c8:	c0d00793          	li	a5,-1011
   1c0cc:	ff85051b          	addiw	a0,a0,-8
   1c0d0:	00a41433          	sll	s0,s0,a0
   1c0d4:	40e787b3          	sub	a5,a5,a4
   1c0d8:	f65ff06f          	j	1c03c <__divdf3+0x9c>
   1c0dc:	0007879b          	sext.w	a5,a5
   1c0e0:	00200713          	li	a4,2
   1c0e4:	f4040ee3          	beqz	s0,1c040 <__divdf3+0xa0>
   1c0e8:	00300713          	li	a4,3
   1c0ec:	f55ff06f          	j	1c040 <__divdf3+0xa0>
   1c0f0:	00000793          	li	a5,0
   1c0f4:	00100713          	li	a4,1
   1c0f8:	f49ff06f          	j	1c040 <__divdf3+0xa0>
   1c0fc:	00100793          	li	a5,1
   1c100:	03379793          	slli	a5,a5,0x33
   1c104:	7ff00513          	li	a0,2047
   1c108:	00000913          	li	s2,0
   1c10c:	1180006f          	j	1c224 <__divdf3+0x284>
   1c110:	00841b13          	slli	s6,s0,0x8
   1c114:	148a7c63          	bgeu	s4,s0,1c26c <__divdf3+0x2cc>
   1c118:	fff98993          	addi	s3,s3,-1
   1c11c:	00000413          	li	s0,0
   1c120:	020b5a93          	srli	s5,s6,0x20
   1c124:	000a8593          	mv	a1,s5
   1c128:	020b1c13          	slli	s8,s6,0x20
   1c12c:	000a0513          	mv	a0,s4
   1c130:	064020ef          	jal	1e194 <__hidden___udivdi3>
   1c134:	020c5c13          	srli	s8,s8,0x20
   1c138:	00050593          	mv	a1,a0
   1c13c:	00050493          	mv	s1,a0
   1c140:	000c0513          	mv	a0,s8
   1c144:	7e5010ef          	jal	1e128 <__muldi3>
   1c148:	00050b93          	mv	s7,a0
   1c14c:	000a8593          	mv	a1,s5
   1c150:	000a0513          	mv	a0,s4
   1c154:	088020ef          	jal	1e1dc <__umoddi3>
   1c158:	02051513          	slli	a0,a0,0x20
   1c15c:	02045793          	srli	a5,s0,0x20
   1c160:	00a7e7b3          	or	a5,a5,a0
   1c164:	0177fa63          	bgeu	a5,s7,1c178 <__divdf3+0x1d8>
   1c168:	00fb07b3          	add	a5,s6,a5
   1c16c:	0177f463          	bgeu	a5,s7,1c174 <__divdf3+0x1d4>
   1c170:	1167f463          	bgeu	a5,s6,1c278 <__divdf3+0x2d8>
   1c174:	fff48493          	addi	s1,s1,-1
   1c178:	41778433          	sub	s0,a5,s7
   1c17c:	000a8593          	mv	a1,s5
   1c180:	00040513          	mv	a0,s0
   1c184:	010020ef          	jal	1e194 <__hidden___udivdi3>
   1c188:	00050593          	mv	a1,a0
   1c18c:	00050a13          	mv	s4,a0
   1c190:	000c0513          	mv	a0,s8
   1c194:	795010ef          	jal	1e128 <__muldi3>
   1c198:	00050b93          	mv	s7,a0
   1c19c:	000a8593          	mv	a1,s5
   1c1a0:	00040513          	mv	a0,s0
   1c1a4:	038020ef          	jal	1e1dc <__umoddi3>
   1c1a8:	02051793          	slli	a5,a0,0x20
   1c1ac:	0177fe63          	bgeu	a5,s7,1c1c8 <__divdf3+0x228>
   1c1b0:	01678733          	add	a4,a5,s6
   1c1b4:	00f736b3          	sltu	a3,a4,a5
   1c1b8:	00070793          	mv	a5,a4
   1c1bc:	01777463          	bgeu	a4,s7,1c1c4 <__divdf3+0x224>
   1c1c0:	0c068263          	beqz	a3,1c284 <__divdf3+0x2e4>
   1c1c4:	fffa0a13          	addi	s4,s4,-1
   1c1c8:	02049413          	slli	s0,s1,0x20
   1c1cc:	417787b3          	sub	a5,a5,s7
   1c1d0:	01446433          	or	s0,s0,s4
   1c1d4:	00f037b3          	snez	a5,a5
   1c1d8:	00f46433          	or	s0,s0,a5
   1c1dc:	3ff98513          	addi	a0,s3,1023
   1c1e0:	0ea05463          	blez	a0,1c2c8 <__divdf3+0x328>
   1c1e4:	00747793          	andi	a5,s0,7
   1c1e8:	00078a63          	beqz	a5,1c1fc <__divdf3+0x25c>
   1c1ec:	00f47793          	andi	a5,s0,15
   1c1f0:	00400713          	li	a4,4
   1c1f4:	00e78463          	beq	a5,a4,1c1fc <__divdf3+0x25c>
   1c1f8:	00e40433          	add	s0,s0,a4
   1c1fc:	00741793          	slli	a5,s0,0x7
   1c200:	0007dc63          	bgez	a5,1c218 <__divdf3+0x278>
   1c204:	fff00793          	li	a5,-1
   1c208:	03879793          	slli	a5,a5,0x38
   1c20c:	fff78793          	addi	a5,a5,-1
   1c210:	00f47433          	and	s0,s0,a5
   1c214:	40098513          	addi	a0,s3,1024
   1c218:	7fe00793          	li	a5,2046
   1c21c:	10a7c863          	blt	a5,a0,1c32c <__divdf3+0x38c>
   1c220:	00345793          	srli	a5,s0,0x3
   1c224:	04813083          	ld	ra,72(sp)
   1c228:	04013403          	ld	s0,64(sp)
   1c22c:	00c79793          	slli	a5,a5,0xc
   1c230:	03451513          	slli	a0,a0,0x34
   1c234:	00c7d793          	srli	a5,a5,0xc
   1c238:	03f91913          	slli	s2,s2,0x3f
   1c23c:	00f56533          	or	a0,a0,a5
   1c240:	03813483          	ld	s1,56(sp)
   1c244:	02813983          	ld	s3,40(sp)
   1c248:	02013a03          	ld	s4,32(sp)
   1c24c:	01813a83          	ld	s5,24(sp)
   1c250:	01013b03          	ld	s6,16(sp)
   1c254:	00813b83          	ld	s7,8(sp)
   1c258:	00013c03          	ld	s8,0(sp)
   1c25c:	01256533          	or	a0,a0,s2
   1c260:	03013903          	ld	s2,48(sp)
   1c264:	05010113          	addi	sp,sp,80
   1c268:	00008067          	ret
   1c26c:	03fa1413          	slli	s0,s4,0x3f
   1c270:	001a5a13          	srli	s4,s4,0x1
   1c274:	eadff06f          	j	1c120 <__divdf3+0x180>
   1c278:	ffe48493          	addi	s1,s1,-2
   1c27c:	016787b3          	add	a5,a5,s6
   1c280:	ef9ff06f          	j	1c178 <__divdf3+0x1d8>
   1c284:	ffea0a13          	addi	s4,s4,-2
   1c288:	016707b3          	add	a5,a4,s6
   1c28c:	f3dff06f          	j	1c1c8 <__divdf3+0x228>
   1c290:	000b8913          	mv	s2,s7
   1c294:	00200793          	li	a5,2
   1c298:	08f70a63          	beq	a4,a5,1c32c <__divdf3+0x38c>
   1c29c:	00300693          	li	a3,3
   1c2a0:	00100793          	li	a5,1
   1c2a4:	e4d70ee3          	beq	a4,a3,1c100 <__divdf3+0x160>
   1c2a8:	f2f71ae3          	bne	a4,a5,1c1dc <__divdf3+0x23c>
   1c2ac:	00000793          	li	a5,0
   1c2b0:	00000513          	li	a0,0
   1c2b4:	f71ff06f          	j	1c224 <__divdf3+0x284>
   1c2b8:	000a8913          	mv	s2,s5
   1c2bc:	000a0413          	mv	s0,s4
   1c2c0:	000b0713          	mv	a4,s6
   1c2c4:	fd1ff06f          	j	1c294 <__divdf3+0x2f4>
   1c2c8:	04050e63          	beqz	a0,1c324 <__divdf3+0x384>
   1c2cc:	fc900793          	li	a5,-55
   1c2d0:	fcf54ee3          	blt	a0,a5,1c2ac <__divdf3+0x30c>
   1c2d4:	00100713          	li	a4,1
   1c2d8:	40a70733          	sub	a4,a4,a0
   1c2dc:	04000693          	li	a3,64
   1c2e0:	00e457b3          	srl	a5,s0,a4
   1c2e4:	40e6873b          	subw	a4,a3,a4
   1c2e8:	00e41433          	sll	s0,s0,a4
   1c2ec:	00803433          	snez	s0,s0
   1c2f0:	0087e7b3          	or	a5,a5,s0
   1c2f4:	0077f713          	andi	a4,a5,7
   1c2f8:	00070a63          	beqz	a4,1c30c <__divdf3+0x36c>
   1c2fc:	00f7f713          	andi	a4,a5,15
   1c300:	00400693          	li	a3,4
   1c304:	00d70463          	beq	a4,a3,1c30c <__divdf3+0x36c>
   1c308:	00d787b3          	add	a5,a5,a3
   1c30c:	00879713          	slli	a4,a5,0x8
   1c310:	0037d793          	srli	a5,a5,0x3
   1c314:	f8075ee3          	bgez	a4,1c2b0 <__divdf3+0x310>
   1c318:	00000793          	li	a5,0
   1c31c:	00100513          	li	a0,1
   1c320:	f05ff06f          	j	1c224 <__divdf3+0x284>
   1c324:	00100713          	li	a4,1
   1c328:	fb5ff06f          	j	1c2dc <__divdf3+0x33c>
   1c32c:	00000793          	li	a5,0
   1c330:	7ff00513          	li	a0,2047
   1c334:	ef1ff06f          	j	1c224 <__divdf3+0x284>

000000000001c338 <__eqdf2>:
   1c338:	00050693          	mv	a3,a0
   1c33c:	fff00793          	li	a5,-1
   1c340:	00c7d793          	srli	a5,a5,0xc
   1c344:	00a7f533          	and	a0,a5,a0
   1c348:	0346d613          	srli	a2,a3,0x34
   1c34c:	0345d713          	srli	a4,a1,0x34
   1c350:	7ff67613          	andi	a2,a2,2047
   1c354:	03f6d893          	srli	a7,a3,0x3f
   1c358:	00b7f7b3          	and	a5,a5,a1
   1c35c:	7ff77713          	andi	a4,a4,2047
   1c360:	03f5d813          	srli	a6,a1,0x3f
   1c364:	00050863          	beqz	a0,1c374 <__eqdf2+0x3c>
   1c368:	80160613          	addi	a2,a2,-2047
   1c36c:	00100513          	li	a0,1
   1c370:	04060063          	beqz	a2,1c3b0 <__eqdf2+0x78>
   1c374:	00078863          	beqz	a5,1c384 <__eqdf2+0x4c>
   1c378:	80170793          	addi	a5,a4,-2047
   1c37c:	00100513          	li	a0,1
   1c380:	02078863          	beqz	a5,1c3b0 <__eqdf2+0x78>
   1c384:	fff00713          	li	a4,-1
   1c388:	00b6c5b3          	xor	a1,a3,a1
   1c38c:	00175713          	srli	a4,a4,0x1
   1c390:	00e5f5b3          	and	a1,a1,a4
   1c394:	00100793          	li	a5,1
   1c398:	00059a63          	bnez	a1,1c3ac <__eqdf2+0x74>
   1c39c:	00000793          	li	a5,0
   1c3a0:	01088663          	beq	a7,a6,1c3ac <__eqdf2+0x74>
   1c3a4:	00d77733          	and	a4,a4,a3
   1c3a8:	00e037b3          	snez	a5,a4
   1c3ac:	00078513          	mv	a0,a5
   1c3b0:	00008067          	ret

000000000001c3b4 <__gedf2>:
   1c3b4:	fff00693          	li	a3,-1
   1c3b8:	00c6d693          	srli	a3,a3,0xc
   1c3bc:	00a6f333          	and	t1,a3,a0
   1c3c0:	03455893          	srli	a7,a0,0x34
   1c3c4:	0345d813          	srli	a6,a1,0x34
   1c3c8:	7ff8f893          	andi	a7,a7,2047
   1c3cc:	03f55613          	srli	a2,a0,0x3f
   1c3d0:	00b6f6b3          	and	a3,a3,a1
   1c3d4:	7ff87813          	andi	a6,a6,2047
   1c3d8:	03f5de13          	srli	t3,a1,0x3f
   1c3dc:	00030863          	beqz	t1,1c3ec <__gedf2+0x38>
   1c3e0:	80188713          	addi	a4,a7,-2047
   1c3e4:	ffe00793          	li	a5,-2
   1c3e8:	04070663          	beqz	a4,1c434 <__gedf2+0x80>
   1c3ec:	00068863          	beqz	a3,1c3fc <__gedf2+0x48>
   1c3f0:	80180713          	addi	a4,a6,-2047
   1c3f4:	ffe00793          	li	a5,-2
   1c3f8:	02070e63          	beqz	a4,1c434 <__gedf2+0x80>
   1c3fc:	fff00713          	li	a4,-1
   1c400:	00175793          	srli	a5,a4,0x1
   1c404:	00b7f5b3          	and	a1,a5,a1
   1c408:	00a7f7b3          	and	a5,a5,a0
   1c40c:	00079c63          	bnez	a5,1c424 <__gedf2+0x70>
   1c410:	02058263          	beqz	a1,1c434 <__gedf2+0x80>
   1c414:	00100793          	li	a5,1
   1c418:	000e1e63          	bnez	t3,1c434 <__gedf2+0x80>
   1c41c:	00070793          	mv	a5,a4
   1c420:	0140006f          	j	1c434 <__gedf2+0x80>
   1c424:	00059c63          	bnez	a1,1c43c <__gedf2+0x88>
   1c428:	00070793          	mv	a5,a4
   1c42c:	00061463          	bnez	a2,1c434 <__gedf2+0x80>
   1c430:	00100793          	li	a5,1
   1c434:	00078513          	mv	a0,a5
   1c438:	00008067          	ret
   1c43c:	ffc616e3          	bne	a2,t3,1c428 <__gedf2+0x74>
   1c440:	ff1844e3          	blt	a6,a7,1c428 <__gedf2+0x74>
   1c444:	0108d863          	bge	a7,a6,1c454 <__gedf2+0xa0>
   1c448:	00100793          	li	a5,1
   1c44c:	fe0614e3          	bnez	a2,1c434 <__gedf2+0x80>
   1c450:	fcdff06f          	j	1c41c <__gedf2+0x68>
   1c454:	fc66eae3          	bltu	a3,t1,1c428 <__gedf2+0x74>
   1c458:	00000793          	li	a5,0
   1c45c:	fcd37ce3          	bgeu	t1,a3,1c434 <__gedf2+0x80>
   1c460:	fe9ff06f          	j	1c448 <__gedf2+0x94>

000000000001c464 <__ledf2>:
   1c464:	fff00693          	li	a3,-1
   1c468:	00c6d693          	srli	a3,a3,0xc
   1c46c:	00a6f333          	and	t1,a3,a0
   1c470:	03455893          	srli	a7,a0,0x34
   1c474:	0345d813          	srli	a6,a1,0x34
   1c478:	7ff8f893          	andi	a7,a7,2047
   1c47c:	03f55613          	srli	a2,a0,0x3f
   1c480:	00b6f6b3          	and	a3,a3,a1
   1c484:	7ff87813          	andi	a6,a6,2047
   1c488:	03f5de13          	srli	t3,a1,0x3f
   1c48c:	00030863          	beqz	t1,1c49c <__ledf2+0x38>
   1c490:	80188713          	addi	a4,a7,-2047
   1c494:	00200793          	li	a5,2
   1c498:	04070663          	beqz	a4,1c4e4 <__ledf2+0x80>
   1c49c:	00068863          	beqz	a3,1c4ac <__ledf2+0x48>
   1c4a0:	80180713          	addi	a4,a6,-2047
   1c4a4:	00200793          	li	a5,2
   1c4a8:	02070e63          	beqz	a4,1c4e4 <__ledf2+0x80>
   1c4ac:	fff00713          	li	a4,-1
   1c4b0:	00175793          	srli	a5,a4,0x1
   1c4b4:	00b7f5b3          	and	a1,a5,a1
   1c4b8:	00a7f7b3          	and	a5,a5,a0
   1c4bc:	00079c63          	bnez	a5,1c4d4 <__ledf2+0x70>
   1c4c0:	02058263          	beqz	a1,1c4e4 <__ledf2+0x80>
   1c4c4:	00100793          	li	a5,1
   1c4c8:	000e1e63          	bnez	t3,1c4e4 <__ledf2+0x80>
   1c4cc:	00070793          	mv	a5,a4
   1c4d0:	0140006f          	j	1c4e4 <__ledf2+0x80>
   1c4d4:	00059c63          	bnez	a1,1c4ec <__ledf2+0x88>
   1c4d8:	00070793          	mv	a5,a4
   1c4dc:	00061463          	bnez	a2,1c4e4 <__ledf2+0x80>
   1c4e0:	00100793          	li	a5,1
   1c4e4:	00078513          	mv	a0,a5
   1c4e8:	00008067          	ret
   1c4ec:	ffc616e3          	bne	a2,t3,1c4d8 <__ledf2+0x74>
   1c4f0:	ff1844e3          	blt	a6,a7,1c4d8 <__ledf2+0x74>
   1c4f4:	0108d863          	bge	a7,a6,1c504 <__ledf2+0xa0>
   1c4f8:	00100793          	li	a5,1
   1c4fc:	fe0614e3          	bnez	a2,1c4e4 <__ledf2+0x80>
   1c500:	fcdff06f          	j	1c4cc <__ledf2+0x68>
   1c504:	fc66eae3          	bltu	a3,t1,1c4d8 <__ledf2+0x74>
   1c508:	00000793          	li	a5,0
   1c50c:	fcd37ce3          	bgeu	t1,a3,1c4e4 <__ledf2+0x80>
   1c510:	fe9ff06f          	j	1c4f8 <__ledf2+0x94>

000000000001c514 <__muldf3>:
   1c514:	fc010113          	addi	sp,sp,-64
   1c518:	03213023          	sd	s2,32(sp)
   1c51c:	03455913          	srli	s2,a0,0x34
   1c520:	02913423          	sd	s1,40(sp)
   1c524:	01313c23          	sd	s3,24(sp)
   1c528:	01513423          	sd	s5,8(sp)
   1c52c:	00c51493          	slli	s1,a0,0xc
   1c530:	02113c23          	sd	ra,56(sp)
   1c534:	02813823          	sd	s0,48(sp)
   1c538:	01413823          	sd	s4,16(sp)
   1c53c:	7ff97913          	andi	s2,s2,2047
   1c540:	00058a93          	mv	s5,a1
   1c544:	00c4d493          	srli	s1,s1,0xc
   1c548:	03f55993          	srli	s3,a0,0x3f
   1c54c:	1c090263          	beqz	s2,1c710 <__muldf3+0x1fc>
   1c550:	7ff00793          	li	a5,2047
   1c554:	1ef90063          	beq	s2,a5,1c734 <__muldf3+0x220>
   1c558:	00100793          	li	a5,1
   1c55c:	00349493          	slli	s1,s1,0x3
   1c560:	03779793          	slli	a5,a5,0x37
   1c564:	00f4e4b3          	or	s1,s1,a5
   1c568:	c0190913          	addi	s2,s2,-1023
   1c56c:	00000a13          	li	s4,0
   1c570:	034ad793          	srli	a5,s5,0x34
   1c574:	00ca9413          	slli	s0,s5,0xc
   1c578:	7ff7f793          	andi	a5,a5,2047
   1c57c:	00c45413          	srli	s0,s0,0xc
   1c580:	03fada93          	srli	s5,s5,0x3f
   1c584:	1c078863          	beqz	a5,1c754 <__muldf3+0x240>
   1c588:	7ff00713          	li	a4,2047
   1c58c:	1ee78663          	beq	a5,a4,1c778 <__muldf3+0x264>
   1c590:	00100713          	li	a4,1
   1c594:	00341413          	slli	s0,s0,0x3
   1c598:	03771713          	slli	a4,a4,0x37
   1c59c:	00e46433          	or	s0,s0,a4
   1c5a0:	c0178793          	addi	a5,a5,-1023
   1c5a4:	00000693          	li	a3,0
   1c5a8:	002a1713          	slli	a4,s4,0x2
   1c5ac:	00f90933          	add	s2,s2,a5
   1c5b0:	00d76733          	or	a4,a4,a3
   1c5b4:	00a00793          	li	a5,10
   1c5b8:	00190813          	addi	a6,s2,1
   1c5bc:	22e7c063          	blt	a5,a4,1c7dc <__muldf3+0x2c8>
   1c5c0:	00200613          	li	a2,2
   1c5c4:	0159c9b3          	xor	s3,s3,s5
   1c5c8:	00100793          	li	a5,1
   1c5cc:	1ce64663          	blt	a2,a4,1c798 <__muldf3+0x284>
   1c5d0:	fff70713          	addi	a4,a4,-1
   1c5d4:	1ee7f263          	bgeu	a5,a4,1c7b8 <__muldf3+0x2a4>
   1c5d8:	02045793          	srli	a5,s0,0x20
   1c5dc:	02041413          	slli	s0,s0,0x20
   1c5e0:	02049513          	slli	a0,s1,0x20
   1c5e4:	02045413          	srli	s0,s0,0x20
   1c5e8:	0204de13          	srli	t3,s1,0x20
   1c5ec:	02055513          	srli	a0,a0,0x20
   1c5f0:	00040593          	mv	a1,s0
   1c5f4:	335010ef          	jal	1e128 <__muldi3>
   1c5f8:	00050893          	mv	a7,a0
   1c5fc:	02049513          	slli	a0,s1,0x20
   1c600:	02055513          	srli	a0,a0,0x20
   1c604:	00078593          	mv	a1,a5
   1c608:	321010ef          	jal	1e128 <__muldi3>
   1c60c:	00050713          	mv	a4,a0
   1c610:	00040593          	mv	a1,s0
   1c614:	000e0513          	mv	a0,t3
   1c618:	311010ef          	jal	1e128 <__muldi3>
   1c61c:	00050313          	mv	t1,a0
   1c620:	00078593          	mv	a1,a5
   1c624:	000e0513          	mv	a0,t3
   1c628:	301010ef          	jal	1e128 <__muldi3>
   1c62c:	0208d793          	srli	a5,a7,0x20
   1c630:	00670733          	add	a4,a4,t1
   1c634:	00e787b3          	add	a5,a5,a4
   1c638:	0067f863          	bgeu	a5,t1,1c648 <__muldf3+0x134>
   1c63c:	00100713          	li	a4,1
   1c640:	02071713          	slli	a4,a4,0x20
   1c644:	00e50533          	add	a0,a0,a4
   1c648:	02089893          	slli	a7,a7,0x20
   1c64c:	02079713          	slli	a4,a5,0x20
   1c650:	0208d893          	srli	a7,a7,0x20
   1c654:	01170733          	add	a4,a4,a7
   1c658:	0207d793          	srli	a5,a5,0x20
   1c65c:	00971413          	slli	s0,a4,0x9
   1c660:	00a787b3          	add	a5,a5,a0
   1c664:	03775713          	srli	a4,a4,0x37
   1c668:	00979793          	slli	a5,a5,0x9
   1c66c:	00803433          	snez	s0,s0
   1c670:	00e46433          	or	s0,s0,a4
   1c674:	00779713          	slli	a4,a5,0x7
   1c678:	0087e433          	or	s0,a5,s0
   1c67c:	16075e63          	bgez	a4,1c7f8 <__muldf3+0x2e4>
   1c680:	00145793          	srli	a5,s0,0x1
   1c684:	00147413          	andi	s0,s0,1
   1c688:	0087e433          	or	s0,a5,s0
   1c68c:	3ff80513          	addi	a0,a6,1023
   1c690:	16a05863          	blez	a0,1c800 <__muldf3+0x2ec>
   1c694:	00747793          	andi	a5,s0,7
   1c698:	00078a63          	beqz	a5,1c6ac <__muldf3+0x198>
   1c69c:	00f47793          	andi	a5,s0,15
   1c6a0:	00400713          	li	a4,4
   1c6a4:	00e78463          	beq	a5,a4,1c6ac <__muldf3+0x198>
   1c6a8:	00e40433          	add	s0,s0,a4
   1c6ac:	00741793          	slli	a5,s0,0x7
   1c6b0:	0007dc63          	bgez	a5,1c6c8 <__muldf3+0x1b4>
   1c6b4:	fff00793          	li	a5,-1
   1c6b8:	03879793          	slli	a5,a5,0x38
   1c6bc:	fff78793          	addi	a5,a5,-1
   1c6c0:	00f47433          	and	s0,s0,a5
   1c6c4:	40080513          	addi	a0,a6,1024
   1c6c8:	7fe00793          	li	a5,2046
   1c6cc:	1aa7c663          	blt	a5,a0,1c878 <__muldf3+0x364>
   1c6d0:	00345793          	srli	a5,s0,0x3
   1c6d4:	03813083          	ld	ra,56(sp)
   1c6d8:	03013403          	ld	s0,48(sp)
   1c6dc:	00c79793          	slli	a5,a5,0xc
   1c6e0:	03451513          	slli	a0,a0,0x34
   1c6e4:	00c7d793          	srli	a5,a5,0xc
   1c6e8:	03f99993          	slli	s3,s3,0x3f
   1c6ec:	00f56533          	or	a0,a0,a5
   1c6f0:	02813483          	ld	s1,40(sp)
   1c6f4:	02013903          	ld	s2,32(sp)
   1c6f8:	01013a03          	ld	s4,16(sp)
   1c6fc:	00813a83          	ld	s5,8(sp)
   1c700:	01356533          	or	a0,a0,s3
   1c704:	01813983          	ld	s3,24(sp)
   1c708:	04010113          	addi	sp,sp,64
   1c70c:	00008067          	ret
   1c710:	02048c63          	beqz	s1,1c748 <__muldf3+0x234>
   1c714:	00048513          	mv	a0,s1
   1c718:	335010ef          	jal	1e24c <__clzdi2>
   1c71c:	0005079b          	sext.w	a5,a0
   1c720:	c0d00913          	li	s2,-1011
   1c724:	ff85051b          	addiw	a0,a0,-8
   1c728:	00a494b3          	sll	s1,s1,a0
   1c72c:	40f90933          	sub	s2,s2,a5
   1c730:	e3dff06f          	j	1c56c <__muldf3+0x58>
   1c734:	0009091b          	sext.w	s2,s2
   1c738:	00200a13          	li	s4,2
   1c73c:	e2048ae3          	beqz	s1,1c570 <__muldf3+0x5c>
   1c740:	00300a13          	li	s4,3
   1c744:	e2dff06f          	j	1c570 <__muldf3+0x5c>
   1c748:	00000913          	li	s2,0
   1c74c:	00100a13          	li	s4,1
   1c750:	e21ff06f          	j	1c570 <__muldf3+0x5c>
   1c754:	02040c63          	beqz	s0,1c78c <__muldf3+0x278>
   1c758:	00040513          	mv	a0,s0
   1c75c:	2f1010ef          	jal	1e24c <__clzdi2>
   1c760:	0005071b          	sext.w	a4,a0
   1c764:	c0d00793          	li	a5,-1011
   1c768:	ff85051b          	addiw	a0,a0,-8
   1c76c:	00a41433          	sll	s0,s0,a0
   1c770:	40e787b3          	sub	a5,a5,a4
   1c774:	e31ff06f          	j	1c5a4 <__muldf3+0x90>
   1c778:	0007879b          	sext.w	a5,a5
   1c77c:	00200693          	li	a3,2
   1c780:	e20404e3          	beqz	s0,1c5a8 <__muldf3+0x94>
   1c784:	00300693          	li	a3,3
   1c788:	e21ff06f          	j	1c5a8 <__muldf3+0x94>
   1c78c:	00000793          	li	a5,0
   1c790:	00100693          	li	a3,1
   1c794:	e15ff06f          	j	1c5a8 <__muldf3+0x94>
   1c798:	00e79733          	sll	a4,a5,a4
   1c79c:	53077613          	andi	a2,a4,1328
   1c7a0:	04061663          	bnez	a2,1c7ec <__muldf3+0x2d8>
   1c7a4:	24077613          	andi	a2,a4,576
   1c7a8:	0c061063          	bnez	a2,1c868 <__muldf3+0x354>
   1c7ac:	08877713          	andi	a4,a4,136
   1c7b0:	e20704e3          	beqz	a4,1c5d8 <__muldf3+0xc4>
   1c7b4:	000a8993          	mv	s3,s5
   1c7b8:	00200793          	li	a5,2
   1c7bc:	0af68e63          	beq	a3,a5,1c878 <__muldf3+0x364>
   1c7c0:	00300713          	li	a4,3
   1c7c4:	00100793          	li	a5,1
   1c7c8:	0ae68063          	beq	a3,a4,1c868 <__muldf3+0x354>
   1c7cc:	ecf690e3          	bne	a3,a5,1c68c <__muldf3+0x178>
   1c7d0:	00000793          	li	a5,0
   1c7d4:	00000513          	li	a0,0
   1c7d8:	efdff06f          	j	1c6d4 <__muldf3+0x1c0>
   1c7dc:	00f00793          	li	a5,15
   1c7e0:	08f70263          	beq	a4,a5,1c864 <__muldf3+0x350>
   1c7e4:	00b00793          	li	a5,11
   1c7e8:	fcf706e3          	beq	a4,a5,1c7b4 <__muldf3+0x2a0>
   1c7ec:	00048413          	mv	s0,s1
   1c7f0:	000a0693          	mv	a3,s4
   1c7f4:	fc5ff06f          	j	1c7b8 <__muldf3+0x2a4>
   1c7f8:	00090813          	mv	a6,s2
   1c7fc:	e91ff06f          	j	1c68c <__muldf3+0x178>
   1c800:	04050e63          	beqz	a0,1c85c <__muldf3+0x348>
   1c804:	fc900793          	li	a5,-55
   1c808:	fcf544e3          	blt	a0,a5,1c7d0 <__muldf3+0x2bc>
   1c80c:	00100713          	li	a4,1
   1c810:	40a70733          	sub	a4,a4,a0
   1c814:	04000693          	li	a3,64
   1c818:	00e457b3          	srl	a5,s0,a4
   1c81c:	40e6873b          	subw	a4,a3,a4
   1c820:	00e41433          	sll	s0,s0,a4
   1c824:	00803433          	snez	s0,s0
   1c828:	0087e7b3          	or	a5,a5,s0
   1c82c:	0077f713          	andi	a4,a5,7
   1c830:	00070a63          	beqz	a4,1c844 <__muldf3+0x330>
   1c834:	00f7f713          	andi	a4,a5,15
   1c838:	00400693          	li	a3,4
   1c83c:	00d70463          	beq	a4,a3,1c844 <__muldf3+0x330>
   1c840:	00d787b3          	add	a5,a5,a3
   1c844:	00879713          	slli	a4,a5,0x8
   1c848:	0037d793          	srli	a5,a5,0x3
   1c84c:	f80754e3          	bgez	a4,1c7d4 <__muldf3+0x2c0>
   1c850:	00000793          	li	a5,0
   1c854:	00100513          	li	a0,1
   1c858:	e7dff06f          	j	1c6d4 <__muldf3+0x1c0>
   1c85c:	00100713          	li	a4,1
   1c860:	fb5ff06f          	j	1c814 <__muldf3+0x300>
   1c864:	00100793          	li	a5,1
   1c868:	03379793          	slli	a5,a5,0x33
   1c86c:	7ff00513          	li	a0,2047
   1c870:	00000993          	li	s3,0
   1c874:	e61ff06f          	j	1c6d4 <__muldf3+0x1c0>
   1c878:	00000793          	li	a5,0
   1c87c:	7ff00513          	li	a0,2047
   1c880:	e55ff06f          	j	1c6d4 <__muldf3+0x1c0>

000000000001c884 <__subdf3>:
   1c884:	0345d613          	srli	a2,a1,0x34
   1c888:	fff00713          	li	a4,-1
   1c88c:	fe010113          	addi	sp,sp,-32
   1c890:	00c75713          	srli	a4,a4,0xc
   1c894:	7ff67613          	andi	a2,a2,2047
   1c898:	00a777b3          	and	a5,a4,a0
   1c89c:	00b776b3          	and	a3,a4,a1
   1c8a0:	00813823          	sd	s0,16(sp)
   1c8a4:	00913423          	sd	s1,8(sp)
   1c8a8:	03455413          	srli	s0,a0,0x34
   1c8ac:	03f55493          	srli	s1,a0,0x3f
   1c8b0:	80160513          	addi	a0,a2,-2047
   1c8b4:	00369713          	slli	a4,a3,0x3
   1c8b8:	00a03533          	snez	a0,a0
   1c8bc:	0016b693          	seqz	a3,a3
   1c8c0:	00d566b3          	or	a3,a0,a3
   1c8c4:	03f5d593          	srli	a1,a1,0x3f
   1c8c8:	7ff47413          	andi	s0,s0,2047
   1c8cc:	00d5c5b3          	xor	a1,a1,a3
   1c8d0:	00113c23          	sd	ra,24(sp)
   1c8d4:	01213023          	sd	s2,0(sp)
   1c8d8:	00379793          	slli	a5,a5,0x3
   1c8dc:	40c406bb          	subw	a3,s0,a2
   1c8e0:	1e959663          	bne	a1,s1,1cacc <__subdf3+0x248>
   1c8e4:	08d05e63          	blez	a3,1c980 <__subdf3+0xfc>
   1c8e8:	04061c63          	bnez	a2,1c940 <__subdf3+0xbc>
   1c8ec:	04070663          	beqz	a4,1c938 <__subdf3+0xb4>
   1c8f0:	fff6869b          	addiw	a3,a3,-1
   1c8f4:	02069e63          	bnez	a3,1c930 <__subdf3+0xac>
   1c8f8:	00e787b3          	add	a5,a5,a4
   1c8fc:	00879713          	slli	a4,a5,0x8
   1c900:	18075463          	bgez	a4,1ca88 <__subdf3+0x204>
   1c904:	00140413          	addi	s0,s0,1
   1c908:	7ff00713          	li	a4,2047
   1c90c:	3ce40463          	beq	s0,a4,1ccd4 <__subdf3+0x450>
   1c910:	1ff00713          	li	a4,511
   1c914:	03671713          	slli	a4,a4,0x36
   1c918:	0017d693          	srli	a3,a5,0x1
   1c91c:	fff70713          	addi	a4,a4,-1
   1c920:	00e6f733          	and	a4,a3,a4
   1c924:	0017f793          	andi	a5,a5,1
   1c928:	00f767b3          	or	a5,a4,a5
   1c92c:	15c0006f          	j	1ca88 <__subdf3+0x204>
   1c930:	7ff00613          	li	a2,2047
   1c934:	02c41063          	bne	s0,a2,1c954 <__subdf3+0xd0>
   1c938:	00078713          	mv	a4,a5
   1c93c:	3780006f          	j	1ccb4 <__subdf3+0x430>
   1c940:	7ff00613          	li	a2,2047
   1c944:	fec40ae3          	beq	s0,a2,1c938 <__subdf3+0xb4>
   1c948:	00100613          	li	a2,1
   1c94c:	03761613          	slli	a2,a2,0x37
   1c950:	00c76733          	or	a4,a4,a2
   1c954:	03800593          	li	a1,56
   1c958:	00100613          	li	a2,1
   1c95c:	00d5ce63          	blt	a1,a3,1c978 <__subdf3+0xf4>
   1c960:	04000613          	li	a2,64
   1c964:	00d755b3          	srl	a1,a4,a3
   1c968:	40d606bb          	subw	a3,a2,a3
   1c96c:	00d71733          	sll	a4,a4,a3
   1c970:	00e03733          	snez	a4,a4
   1c974:	00e5e633          	or	a2,a1,a4
   1c978:	00c787b3          	add	a5,a5,a2
   1c97c:	f81ff06f          	j	1c8fc <__subdf3+0x78>
   1c980:	06068a63          	beqz	a3,1c9f4 <__subdf3+0x170>
   1c984:	02041663          	bnez	s0,1c9b0 <__subdf3+0x12c>
   1c988:	32078463          	beqz	a5,1ccb0 <__subdf3+0x42c>
   1c98c:	fff6c693          	not	a3,a3
   1c990:	00069863          	bnez	a3,1c9a0 <__subdf3+0x11c>
   1c994:	00e787b3          	add	a5,a5,a4
   1c998:	00060413          	mv	s0,a2
   1c99c:	f61ff06f          	j	1c8fc <__subdf3+0x78>
   1c9a0:	7ff00593          	li	a1,2047
   1c9a4:	02b61263          	bne	a2,a1,1c9c8 <__subdf3+0x144>
   1c9a8:	7ff00413          	li	s0,2047
   1c9ac:	3080006f          	j	1ccb4 <__subdf3+0x430>
   1c9b0:	7ff00593          	li	a1,2047
   1c9b4:	feb60ae3          	beq	a2,a1,1c9a8 <__subdf3+0x124>
   1c9b8:	00100593          	li	a1,1
   1c9bc:	03759593          	slli	a1,a1,0x37
   1c9c0:	40d006bb          	negw	a3,a3
   1c9c4:	00b7e7b3          	or	a5,a5,a1
   1c9c8:	03800513          	li	a0,56
   1c9cc:	00100593          	li	a1,1
   1c9d0:	00d54e63          	blt	a0,a3,1c9ec <__subdf3+0x168>
   1c9d4:	04000593          	li	a1,64
   1c9d8:	00d7d533          	srl	a0,a5,a3
   1c9dc:	40d586bb          	subw	a3,a1,a3
   1c9e0:	00d797b3          	sll	a5,a5,a3
   1c9e4:	00f037b3          	snez	a5,a5
   1c9e8:	00f565b3          	or	a1,a0,a5
   1c9ec:	00e587b3          	add	a5,a1,a4
   1c9f0:	fa9ff06f          	j	1c998 <__subdf3+0x114>
   1c9f4:	00140693          	addi	a3,s0,1
   1c9f8:	7fe6f613          	andi	a2,a3,2046
   1c9fc:	06061c63          	bnez	a2,1ca74 <__subdf3+0x1f0>
   1ca00:	06041263          	bnez	s0,1ca64 <__subdf3+0x1e0>
   1ca04:	2a078263          	beqz	a5,1cca8 <__subdf3+0x424>
   1ca08:	08070c63          	beqz	a4,1caa0 <__subdf3+0x21c>
   1ca0c:	00f70733          	add	a4,a4,a5
   1ca10:	00871793          	slli	a5,a4,0x8
   1ca14:	2a07d063          	bgez	a5,1ccb4 <__subdf3+0x430>
   1ca18:	1ff00793          	li	a5,511
   1ca1c:	03479793          	slli	a5,a5,0x34
   1ca20:	00375713          	srli	a4,a4,0x3
   1ca24:	fff78793          	addi	a5,a5,-1
   1ca28:	00f777b3          	and	a5,a4,a5
   1ca2c:	00100413          	li	s0,1
   1ca30:	7ff47413          	andi	s0,s0,2047
   1ca34:	00c79793          	slli	a5,a5,0xc
   1ca38:	03441413          	slli	s0,s0,0x34
   1ca3c:	00c7d793          	srli	a5,a5,0xc
   1ca40:	00f46433          	or	s0,s0,a5
   1ca44:	03f49513          	slli	a0,s1,0x3f
   1ca48:	01813083          	ld	ra,24(sp)
   1ca4c:	00a46533          	or	a0,s0,a0
   1ca50:	01013403          	ld	s0,16(sp)
   1ca54:	00813483          	ld	s1,8(sp)
   1ca58:	00013903          	ld	s2,0(sp)
   1ca5c:	02010113          	addi	sp,sp,32
   1ca60:	00008067          	ret
   1ca64:	f40782e3          	beqz	a5,1c9a8 <__subdf3+0x124>
   1ca68:	1a071c63          	bnez	a4,1cc20 <__subdf3+0x39c>
   1ca6c:	00078713          	mv	a4,a5
   1ca70:	f39ff06f          	j	1c9a8 <__subdf3+0x124>
   1ca74:	7ff00613          	li	a2,2047
   1ca78:	24c68c63          	beq	a3,a2,1ccd0 <__subdf3+0x44c>
   1ca7c:	00e78733          	add	a4,a5,a4
   1ca80:	00175793          	srli	a5,a4,0x1
   1ca84:	00068413          	mv	s0,a3
   1ca88:	0077f713          	andi	a4,a5,7
   1ca8c:	00070a63          	beqz	a4,1caa0 <__subdf3+0x21c>
   1ca90:	00f7f713          	andi	a4,a5,15
   1ca94:	00400693          	li	a3,4
   1ca98:	00d70463          	beq	a4,a3,1caa0 <__subdf3+0x21c>
   1ca9c:	00d787b3          	add	a5,a5,a3
   1caa0:	00879713          	slli	a4,a5,0x8
   1caa4:	e8075ae3          	bgez	a4,1c938 <__subdf3+0xb4>
   1caa8:	00140413          	addi	s0,s0,1
   1caac:	7ff00713          	li	a4,2047
   1cab0:	22e40263          	beq	s0,a4,1ccd4 <__subdf3+0x450>
   1cab4:	1ff00713          	li	a4,511
   1cab8:	03471713          	slli	a4,a4,0x34
   1cabc:	0037d793          	srli	a5,a5,0x3
   1cac0:	fff70713          	addi	a4,a4,-1
   1cac4:	00e7f7b3          	and	a5,a5,a4
   1cac8:	f69ff06f          	j	1ca30 <__subdf3+0x1ac>
   1cacc:	06d05c63          	blez	a3,1cb44 <__subdf3+0x2c0>
   1cad0:	04061e63          	bnez	a2,1cb2c <__subdf3+0x2a8>
   1cad4:	e60702e3          	beqz	a4,1c938 <__subdf3+0xb4>
   1cad8:	fff6869b          	addiw	a3,a3,-1
   1cadc:	00069e63          	bnez	a3,1caf8 <__subdf3+0x274>
   1cae0:	40e787b3          	sub	a5,a5,a4
   1cae4:	00879713          	slli	a4,a5,0x8
   1cae8:	fa0750e3          	bgez	a4,1ca88 <__subdf3+0x204>
   1caec:	00979913          	slli	s2,a5,0x9
   1caf0:	00995913          	srli	s2,s2,0x9
   1caf4:	1540006f          	j	1cc48 <__subdf3+0x3c4>
   1caf8:	7ff00613          	li	a2,2047
   1cafc:	e2c40ee3          	beq	s0,a2,1c938 <__subdf3+0xb4>
   1cb00:	03800593          	li	a1,56
   1cb04:	00100613          	li	a2,1
   1cb08:	00d5ce63          	blt	a1,a3,1cb24 <__subdf3+0x2a0>
   1cb0c:	04000613          	li	a2,64
   1cb10:	00d755b3          	srl	a1,a4,a3
   1cb14:	40d606bb          	subw	a3,a2,a3
   1cb18:	00d71733          	sll	a4,a4,a3
   1cb1c:	00e03733          	snez	a4,a4
   1cb20:	00e5e633          	or	a2,a1,a4
   1cb24:	40c787b3          	sub	a5,a5,a2
   1cb28:	fbdff06f          	j	1cae4 <__subdf3+0x260>
   1cb2c:	7ff00613          	li	a2,2047
   1cb30:	e0c404e3          	beq	s0,a2,1c938 <__subdf3+0xb4>
   1cb34:	00100613          	li	a2,1
   1cb38:	03761613          	slli	a2,a2,0x37
   1cb3c:	00c76733          	or	a4,a4,a2
   1cb40:	fc1ff06f          	j	1cb00 <__subdf3+0x27c>
   1cb44:	00068513          	mv	a0,a3
   1cb48:	06068c63          	beqz	a3,1cbc0 <__subdf3+0x33c>
   1cb4c:	02041863          	bnez	s0,1cb7c <__subdf3+0x2f8>
   1cb50:	02078263          	beqz	a5,1cb74 <__subdf3+0x2f0>
   1cb54:	fff6c693          	not	a3,a3
   1cb58:	00069a63          	bnez	a3,1cb6c <__subdf3+0x2e8>
   1cb5c:	40f707b3          	sub	a5,a4,a5
   1cb60:	00060413          	mv	s0,a2
   1cb64:	00058493          	mv	s1,a1
   1cb68:	f7dff06f          	j	1cae4 <__subdf3+0x260>
   1cb6c:	7ff00513          	li	a0,2047
   1cb70:	02a61263          	bne	a2,a0,1cb94 <__subdf3+0x310>
   1cb74:	00060413          	mv	s0,a2
   1cb78:	0640006f          	j	1cbdc <__subdf3+0x358>
   1cb7c:	7ff00693          	li	a3,2047
   1cb80:	fed60ae3          	beq	a2,a3,1cb74 <__subdf3+0x2f0>
   1cb84:	40a006bb          	negw	a3,a0
   1cb88:	00100513          	li	a0,1
   1cb8c:	03751513          	slli	a0,a0,0x37
   1cb90:	00a7e7b3          	or	a5,a5,a0
   1cb94:	03800813          	li	a6,56
   1cb98:	00100513          	li	a0,1
   1cb9c:	00d84e63          	blt	a6,a3,1cbb8 <__subdf3+0x334>
   1cba0:	04000513          	li	a0,64
   1cba4:	00d7d833          	srl	a6,a5,a3
   1cba8:	40d506bb          	subw	a3,a0,a3
   1cbac:	00d797b3          	sll	a5,a5,a3
   1cbb0:	00f037b3          	snez	a5,a5
   1cbb4:	00f86533          	or	a0,a6,a5
   1cbb8:	40a707b3          	sub	a5,a4,a0
   1cbbc:	fa5ff06f          	j	1cb60 <__subdf3+0x2dc>
   1cbc0:	00140693          	addi	a3,s0,1
   1cbc4:	7fe6f693          	andi	a3,a3,2046
   1cbc8:	06069663          	bnez	a3,1cc34 <__subdf3+0x3b0>
   1cbcc:	04041863          	bnez	s0,1cc1c <__subdf3+0x398>
   1cbd0:	00079a63          	bnez	a5,1cbe4 <__subdf3+0x360>
   1cbd4:	00000493          	li	s1,0
   1cbd8:	e4070ce3          	beqz	a4,1ca30 <__subdf3+0x1ac>
   1cbdc:	00058493          	mv	s1,a1
   1cbe0:	0d40006f          	j	1ccb4 <__subdf3+0x430>
   1cbe4:	ea070ee3          	beqz	a4,1caa0 <__subdf3+0x21c>
   1cbe8:	40e786b3          	sub	a3,a5,a4
   1cbec:	00869613          	slli	a2,a3,0x8
   1cbf0:	00065c63          	bgez	a2,1cc08 <__subdf3+0x384>
   1cbf4:	40f707b3          	sub	a5,a4,a5
   1cbf8:	00058493          	mv	s1,a1
   1cbfc:	00000413          	li	s0,0
   1cc00:	e20788e3          	beqz	a5,1ca30 <__subdf3+0x1ac>
   1cc04:	e85ff06f          	j	1ca88 <__subdf3+0x204>
   1cc08:	00068713          	mv	a4,a3
   1cc0c:	0a069463          	bnez	a3,1ccb4 <__subdf3+0x430>
   1cc10:	00000793          	li	a5,0
   1cc14:	00000493          	li	s1,0
   1cc18:	e19ff06f          	j	1ca30 <__subdf3+0x1ac>
   1cc1c:	e40796e3          	bnez	a5,1ca68 <__subdf3+0x1e4>
   1cc20:	00100793          	li	a5,1
   1cc24:	00000493          	li	s1,0
   1cc28:	7ff00413          	li	s0,2047
   1cc2c:	03379793          	slli	a5,a5,0x33
   1cc30:	e01ff06f          	j	1ca30 <__subdf3+0x1ac>
   1cc34:	40e78933          	sub	s2,a5,a4
   1cc38:	00891693          	slli	a3,s2,0x8
   1cc3c:	0406d263          	bgez	a3,1cc80 <__subdf3+0x3fc>
   1cc40:	40f70933          	sub	s2,a4,a5
   1cc44:	00058493          	mv	s1,a1
   1cc48:	00090513          	mv	a0,s2
   1cc4c:	600010ef          	jal	1e24c <__clzdi2>
   1cc50:	ff85051b          	addiw	a0,a0,-8
   1cc54:	00a91933          	sll	s2,s2,a0
   1cc58:	02854c63          	blt	a0,s0,1cc90 <__subdf3+0x40c>
   1cc5c:	4085053b          	subw	a0,a0,s0
   1cc60:	0015051b          	addiw	a0,a0,1
   1cc64:	04000713          	li	a4,64
   1cc68:	40a7073b          	subw	a4,a4,a0
   1cc6c:	00a957b3          	srl	a5,s2,a0
   1cc70:	00e91933          	sll	s2,s2,a4
   1cc74:	01203933          	snez	s2,s2
   1cc78:	0127e7b3          	or	a5,a5,s2
   1cc7c:	f81ff06f          	j	1cbfc <__subdf3+0x378>
   1cc80:	fc0914e3          	bnez	s2,1cc48 <__subdf3+0x3c4>
   1cc84:	00000793          	li	a5,0
   1cc88:	00000413          	li	s0,0
   1cc8c:	f89ff06f          	j	1cc14 <__subdf3+0x390>
   1cc90:	fff00793          	li	a5,-1
   1cc94:	03779793          	slli	a5,a5,0x37
   1cc98:	fff78793          	addi	a5,a5,-1
   1cc9c:	40a40433          	sub	s0,s0,a0
   1cca0:	00f977b3          	and	a5,s2,a5
   1cca4:	de5ff06f          	j	1ca88 <__subdf3+0x204>
   1cca8:	00070793          	mv	a5,a4
   1ccac:	f51ff06f          	j	1cbfc <__subdf3+0x378>
   1ccb0:	00060413          	mv	s0,a2
   1ccb4:	00375793          	srli	a5,a4,0x3
   1ccb8:	7ff00713          	li	a4,2047
   1ccbc:	d6e41ae3          	bne	s0,a4,1ca30 <__subdf3+0x1ac>
   1ccc0:	d60788e3          	beqz	a5,1ca30 <__subdf3+0x1ac>
   1ccc4:	00100793          	li	a5,1
   1ccc8:	03379793          	slli	a5,a5,0x33
   1cccc:	f49ff06f          	j	1cc14 <__subdf3+0x390>
   1ccd0:	00068413          	mv	s0,a3
   1ccd4:	00000793          	li	a5,0
   1ccd8:	d59ff06f          	j	1ca30 <__subdf3+0x1ac>

000000000001ccdc <__fixdfsi>:
   1ccdc:	03455693          	srli	a3,a0,0x34
   1cce0:	00c51793          	slli	a5,a0,0xc
   1cce4:	7ff6f693          	andi	a3,a3,2047
   1cce8:	3fe00613          	li	a2,1022
   1ccec:	00c7d793          	srli	a5,a5,0xc
   1ccf0:	03f55713          	srli	a4,a0,0x3f
   1ccf4:	04d65263          	bge	a2,a3,1cd38 <__fixdfsi+0x5c>
   1ccf8:	41d00613          	li	a2,1053
   1ccfc:	00d65a63          	bge	a2,a3,1cd10 <__fixdfsi+0x34>
   1cd00:	80000537          	lui	a0,0x80000
   1cd04:	fff54513          	not	a0,a0
   1cd08:	00a7053b          	addw	a0,a4,a0
   1cd0c:	00008067          	ret
   1cd10:	00100613          	li	a2,1
   1cd14:	03461613          	slli	a2,a2,0x34
   1cd18:	00c7e533          	or	a0,a5,a2
   1cd1c:	43300793          	li	a5,1075
   1cd20:	40d787bb          	subw	a5,a5,a3
   1cd24:	00f55533          	srl	a0,a0,a5
   1cd28:	0005051b          	sext.w	a0,a0
   1cd2c:	00070863          	beqz	a4,1cd3c <__fixdfsi+0x60>
   1cd30:	40a0053b          	negw	a0,a0
   1cd34:	00008067          	ret
   1cd38:	00000513          	li	a0,0
   1cd3c:	00008067          	ret

000000000001cd40 <__floatsidf>:
   1cd40:	fe010113          	addi	sp,sp,-32
   1cd44:	00113c23          	sd	ra,24(sp)
   1cd48:	00813823          	sd	s0,16(sp)
   1cd4c:	00913423          	sd	s1,8(sp)
   1cd50:	06050063          	beqz	a0,1cdb0 <__floatsidf+0x70>
   1cd54:	41f5579b          	sraiw	a5,a0,0x1f
   1cd58:	00f54433          	xor	s0,a0,a5
   1cd5c:	40f4043b          	subw	s0,s0,a5
   1cd60:	02041413          	slli	s0,s0,0x20
   1cd64:	02045413          	srli	s0,s0,0x20
   1cd68:	01f5549b          	srliw	s1,a0,0x1f
   1cd6c:	00040513          	mv	a0,s0
   1cd70:	4dc010ef          	jal	1e24c <__clzdi2>
   1cd74:	43e00793          	li	a5,1086
   1cd78:	40a787bb          	subw	a5,a5,a0
   1cd7c:	ff55051b          	addiw	a0,a0,-11 # 7ffffff5 <__BSS_END__+0x7ffdf37d>
   1cd80:	00a41433          	sll	s0,s0,a0
   1cd84:	00c41413          	slli	s0,s0,0xc
   1cd88:	00c45413          	srli	s0,s0,0xc
   1cd8c:	03479793          	slli	a5,a5,0x34
   1cd90:	01813083          	ld	ra,24(sp)
   1cd94:	0087e7b3          	or	a5,a5,s0
   1cd98:	01013403          	ld	s0,16(sp)
   1cd9c:	03f49513          	slli	a0,s1,0x3f
   1cda0:	00a7e533          	or	a0,a5,a0
   1cda4:	00813483          	ld	s1,8(sp)
   1cda8:	02010113          	addi	sp,sp,32
   1cdac:	00008067          	ret
   1cdb0:	00000493          	li	s1,0
   1cdb4:	00000413          	li	s0,0
   1cdb8:	00000793          	li	a5,0
   1cdbc:	fc9ff06f          	j	1cd84 <__floatsidf+0x44>

000000000001cdc0 <__eqtf2>:
   1cdc0:	000088b7          	lui	a7,0x8
   1cdc4:	0305d813          	srli	a6,a1,0x30
   1cdc8:	fff88893          	addi	a7,a7,-1 # 7fff <exit-0x8121>
   1cdcc:	fff00713          	li	a4,-1
   1cdd0:	01075713          	srli	a4,a4,0x10
   1cdd4:	0306d793          	srli	a5,a3,0x30
   1cdd8:	01187833          	and	a6,a6,a7
   1cddc:	00e5f333          	and	t1,a1,a4
   1cde0:	00050e13          	mv	t3,a0
   1cde4:	00e6f733          	and	a4,a3,a4
   1cde8:	03f5d593          	srli	a1,a1,0x3f
   1cdec:	0117f7b3          	and	a5,a5,a7
   1cdf0:	03f6d693          	srli	a3,a3,0x3f
   1cdf4:	01181e63          	bne	a6,a7,1ce10 <__eqtf2+0x50>
   1cdf8:	006568b3          	or	a7,a0,t1
   1cdfc:	00100513          	li	a0,1
   1ce00:	04089c63          	bnez	a7,1ce58 <__eqtf2+0x98>
   1ce04:	01078863          	beq	a5,a6,1ce14 <__eqtf2+0x54>
   1ce08:	00100793          	li	a5,1
   1ce0c:	0440006f          	j	1ce50 <__eqtf2+0x90>
   1ce10:	01179863          	bne	a5,a7,1ce20 <__eqtf2+0x60>
   1ce14:	00c768b3          	or	a7,a4,a2
   1ce18:	00100513          	li	a0,1
   1ce1c:	02089e63          	bnez	a7,1ce58 <__eqtf2+0x98>
   1ce20:	40f807b3          	sub	a5,a6,a5
   1ce24:	40ce0633          	sub	a2,t3,a2
   1ce28:	00f037b3          	snez	a5,a5
   1ce2c:	00c03633          	snez	a2,a2
   1ce30:	00c7e7b3          	or	a5,a5,a2
   1ce34:	fc079ae3          	bnez	a5,1ce08 <__eqtf2+0x48>
   1ce38:	fce318e3          	bne	t1,a4,1ce08 <__eqtf2+0x48>
   1ce3c:	00d58a63          	beq	a1,a3,1ce50 <__eqtf2+0x90>
   1ce40:	00100793          	li	a5,1
   1ce44:	00081663          	bnez	a6,1ce50 <__eqtf2+0x90>
   1ce48:	006e6333          	or	t1,t3,t1
   1ce4c:	006037b3          	snez	a5,t1
   1ce50:	00078513          	mv	a0,a5
   1ce54:	00008067          	ret
   1ce58:	00008067          	ret

000000000001ce5c <__getf2>:
   1ce5c:	000087b7          	lui	a5,0x8
   1ce60:	0305d813          	srli	a6,a1,0x30
   1ce64:	fff78793          	addi	a5,a5,-1 # 7fff <exit-0x8121>
   1ce68:	fff00313          	li	t1,-1
   1ce6c:	01035313          	srli	t1,t1,0x10
   1ce70:	0306d713          	srli	a4,a3,0x30
   1ce74:	00f87833          	and	a6,a6,a5
   1ce78:	0065f8b3          	and	a7,a1,t1
   1ce7c:	00f77733          	and	a4,a4,a5
   1ce80:	03f5d593          	srli	a1,a1,0x3f
   1ce84:	03f6de13          	srli	t3,a3,0x3f
   1ce88:	02f80463          	beq	a6,a5,1ceb0 <__getf2+0x54>
   1ce8c:	0066f6b3          	and	a3,a3,t1
   1ce90:	00008337          	lui	t1,0x8
   1ce94:	fff30313          	addi	t1,t1,-1 # 7fff <exit-0x8121>
   1ce98:	00070793          	mv	a5,a4
   1ce9c:	02671463          	bne	a4,t1,1cec4 <__getf2+0x68>
   1cea0:	00c6e333          	or	t1,a3,a2
   1cea4:	02030063          	beqz	t1,1cec4 <__getf2+0x68>
   1cea8:	ffe00793          	li	a5,-2
   1ceac:	0100006f          	j	1cebc <__getf2+0x60>
   1ceb0:	00a8eeb3          	or	t4,a7,a0
   1ceb4:	ffe00793          	li	a5,-2
   1ceb8:	fc0e8ae3          	beqz	t4,1ce8c <__getf2+0x30>
   1cebc:	00078513          	mv	a0,a5
   1cec0:	00008067          	ret
   1cec4:	00000313          	li	t1,0
   1cec8:	00081663          	bnez	a6,1ced4 <__getf2+0x78>
   1cecc:	00a8e333          	or	t1,a7,a0
   1ced0:	00133313          	seqz	t1,t1
   1ced4:	04071c63          	bnez	a4,1cf2c <__getf2+0xd0>
   1ced8:	00c6eeb3          	or	t4,a3,a2
   1cedc:	00030c63          	beqz	t1,1cef4 <__getf2+0x98>
   1cee0:	fc0e8ee3          	beqz	t4,1cebc <__getf2+0x60>
   1cee4:	00100793          	li	a5,1
   1cee8:	fc0e1ae3          	bnez	t3,1cebc <__getf2+0x60>
   1ceec:	fff00793          	li	a5,-1
   1cef0:	fcdff06f          	j	1cebc <__getf2+0x60>
   1cef4:	020e9e63          	bnez	t4,1cf30 <__getf2+0xd4>
   1cef8:	fff00793          	li	a5,-1
   1cefc:	04058263          	beqz	a1,1cf40 <__getf2+0xe4>
   1cf00:	fbdff06f          	j	1cebc <__getf2+0x60>
   1cf04:	fee840e3          	blt	a6,a4,1cee4 <__getf2+0x88>
   1cf08:	ff16e8e3          	bltu	a3,a7,1cef8 <__getf2+0x9c>
   1cf0c:	00a67463          	bgeu	a2,a0,1cf14 <__getf2+0xb8>
   1cf10:	fed884e3          	beq	a7,a3,1cef8 <__getf2+0x9c>
   1cf14:	00c56663          	bltu	a0,a2,1cf20 <__getf2+0xc4>
   1cf18:	00000793          	li	a5,0
   1cf1c:	fad8f0e3          	bgeu	a7,a3,1cebc <__getf2+0x60>
   1cf20:	00100793          	li	a5,1
   1cf24:	f8059ce3          	bnez	a1,1cebc <__getf2+0x60>
   1cf28:	fc5ff06f          	j	1ceec <__getf2+0x90>
   1cf2c:	fa031ce3          	bnez	t1,1cee4 <__getf2+0x88>
   1cf30:	fcbe14e3          	bne	t3,a1,1cef8 <__getf2+0x9c>
   1cf34:	fd0758e3          	bge	a4,a6,1cf04 <__getf2+0xa8>
   1cf38:	fff00793          	li	a5,-1
   1cf3c:	f80e10e3          	bnez	t3,1cebc <__getf2+0x60>
   1cf40:	00100793          	li	a5,1
   1cf44:	f79ff06f          	j	1cebc <__getf2+0x60>

000000000001cf48 <__letf2>:
   1cf48:	000087b7          	lui	a5,0x8
   1cf4c:	0305d813          	srli	a6,a1,0x30
   1cf50:	fff78793          	addi	a5,a5,-1 # 7fff <exit-0x8121>
   1cf54:	fff00313          	li	t1,-1
   1cf58:	01035313          	srli	t1,t1,0x10
   1cf5c:	0306d713          	srli	a4,a3,0x30
   1cf60:	00f87833          	and	a6,a6,a5
   1cf64:	0065f8b3          	and	a7,a1,t1
   1cf68:	00f77733          	and	a4,a4,a5
   1cf6c:	03f5d593          	srli	a1,a1,0x3f
   1cf70:	03f6de13          	srli	t3,a3,0x3f
   1cf74:	02f80463          	beq	a6,a5,1cf9c <__letf2+0x54>
   1cf78:	0066f6b3          	and	a3,a3,t1
   1cf7c:	00008337          	lui	t1,0x8
   1cf80:	fff30313          	addi	t1,t1,-1 # 7fff <exit-0x8121>
   1cf84:	00070793          	mv	a5,a4
   1cf88:	02671463          	bne	a4,t1,1cfb0 <__letf2+0x68>
   1cf8c:	00c6e333          	or	t1,a3,a2
   1cf90:	02030063          	beqz	t1,1cfb0 <__letf2+0x68>
   1cf94:	00200793          	li	a5,2
   1cf98:	0100006f          	j	1cfa8 <__letf2+0x60>
   1cf9c:	00a8eeb3          	or	t4,a7,a0
   1cfa0:	00200793          	li	a5,2
   1cfa4:	fc0e8ae3          	beqz	t4,1cf78 <__letf2+0x30>
   1cfa8:	00078513          	mv	a0,a5
   1cfac:	00008067          	ret
   1cfb0:	00000313          	li	t1,0
   1cfb4:	00081663          	bnez	a6,1cfc0 <__letf2+0x78>
   1cfb8:	00a8e333          	or	t1,a7,a0
   1cfbc:	00133313          	seqz	t1,t1
   1cfc0:	04071c63          	bnez	a4,1d018 <__letf2+0xd0>
   1cfc4:	00c6eeb3          	or	t4,a3,a2
   1cfc8:	00030c63          	beqz	t1,1cfe0 <__letf2+0x98>
   1cfcc:	fc0e8ee3          	beqz	t4,1cfa8 <__letf2+0x60>
   1cfd0:	00100793          	li	a5,1
   1cfd4:	fc0e1ae3          	bnez	t3,1cfa8 <__letf2+0x60>
   1cfd8:	fff00793          	li	a5,-1
   1cfdc:	fcdff06f          	j	1cfa8 <__letf2+0x60>
   1cfe0:	020e9e63          	bnez	t4,1d01c <__letf2+0xd4>
   1cfe4:	fff00793          	li	a5,-1
   1cfe8:	04058263          	beqz	a1,1d02c <__letf2+0xe4>
   1cfec:	fbdff06f          	j	1cfa8 <__letf2+0x60>
   1cff0:	fee840e3          	blt	a6,a4,1cfd0 <__letf2+0x88>
   1cff4:	ff16e8e3          	bltu	a3,a7,1cfe4 <__letf2+0x9c>
   1cff8:	00a67463          	bgeu	a2,a0,1d000 <__letf2+0xb8>
   1cffc:	fed884e3          	beq	a7,a3,1cfe4 <__letf2+0x9c>
   1d000:	00c56663          	bltu	a0,a2,1d00c <__letf2+0xc4>
   1d004:	00000793          	li	a5,0
   1d008:	fad8f0e3          	bgeu	a7,a3,1cfa8 <__letf2+0x60>
   1d00c:	00100793          	li	a5,1
   1d010:	f8059ce3          	bnez	a1,1cfa8 <__letf2+0x60>
   1d014:	fc5ff06f          	j	1cfd8 <__letf2+0x90>
   1d018:	fa031ce3          	bnez	t1,1cfd0 <__letf2+0x88>
   1d01c:	fcbe14e3          	bne	t3,a1,1cfe4 <__letf2+0x9c>
   1d020:	fd0758e3          	bge	a4,a6,1cff0 <__letf2+0xa8>
   1d024:	fff00793          	li	a5,-1
   1d028:	f80e10e3          	bnez	t3,1cfa8 <__letf2+0x60>
   1d02c:	00100793          	li	a5,1
   1d030:	f79ff06f          	j	1cfa8 <__letf2+0x60>

000000000001d034 <__multf3>:
   1d034:	fb010113          	addi	sp,sp,-80
   1d038:	000087b7          	lui	a5,0x8
   1d03c:	03213823          	sd	s2,48(sp)
   1d040:	fff78793          	addi	a5,a5,-1 # 7fff <exit-0x8121>
   1d044:	0305d913          	srli	s2,a1,0x30
   1d048:	04813023          	sd	s0,64(sp)
   1d04c:	02913c23          	sd	s1,56(sp)
   1d050:	03313423          	sd	s3,40(sp)
   1d054:	03413023          	sd	s4,32(sp)
   1d058:	01713423          	sd	s7,8(sp)
   1d05c:	01059493          	slli	s1,a1,0x10
   1d060:	04113423          	sd	ra,72(sp)
   1d064:	01513c23          	sd	s5,24(sp)
   1d068:	01613823          	sd	s6,16(sp)
   1d06c:	00f97933          	and	s2,s2,a5
   1d070:	00050413          	mv	s0,a0
   1d074:	00060b93          	mv	s7,a2
   1d078:	00068993          	mv	s3,a3
   1d07c:	0104d493          	srli	s1,s1,0x10
   1d080:	03f5da13          	srli	s4,a1,0x3f
   1d084:	0c090e63          	beqz	s2,1d160 <__multf3+0x12c>
   1d088:	14f90463          	beq	s2,a5,1d1d0 <__multf3+0x19c>
   1d08c:	00349493          	slli	s1,s1,0x3
   1d090:	03d55793          	srli	a5,a0,0x3d
   1d094:	0097e7b3          	or	a5,a5,s1
   1d098:	00100493          	li	s1,1
   1d09c:	03349493          	slli	s1,s1,0x33
   1d0a0:	0097e4b3          	or	s1,a5,s1
   1d0a4:	ffffc7b7          	lui	a5,0xffffc
   1d0a8:	00178793          	addi	a5,a5,1 # ffffffffffffc001 <__BSS_END__+0xfffffffffffdb389>
   1d0ac:	00351a93          	slli	s5,a0,0x3
   1d0b0:	00f90933          	add	s2,s2,a5
   1d0b4:	00000b13          	li	s6,0
   1d0b8:	00008737          	lui	a4,0x8
   1d0bc:	0309d793          	srli	a5,s3,0x30
   1d0c0:	fff70713          	addi	a4,a4,-1 # 7fff <exit-0x8121>
   1d0c4:	01099413          	slli	s0,s3,0x10
   1d0c8:	00e7f7b3          	and	a5,a5,a4
   1d0cc:	01045413          	srli	s0,s0,0x10
   1d0d0:	03f9d993          	srli	s3,s3,0x3f
   1d0d4:	12078a63          	beqz	a5,1d208 <__multf3+0x1d4>
   1d0d8:	1ae78263          	beq	a5,a4,1d27c <__multf3+0x248>
   1d0dc:	00341413          	slli	s0,s0,0x3
   1d0e0:	03dbd713          	srli	a4,s7,0x3d
   1d0e4:	00876733          	or	a4,a4,s0
   1d0e8:	00100413          	li	s0,1
   1d0ec:	03341413          	slli	s0,s0,0x33
   1d0f0:	00876433          	or	s0,a4,s0
   1d0f4:	ffffc737          	lui	a4,0xffffc
   1d0f8:	00170713          	addi	a4,a4,1 # ffffffffffffc001 <__BSS_END__+0xfffffffffffdb389>
   1d0fc:	003b9593          	slli	a1,s7,0x3
   1d100:	00e787b3          	add	a5,a5,a4
   1d104:	00000693          	li	a3,0
   1d108:	002b1713          	slli	a4,s6,0x2
   1d10c:	01278333          	add	t1,a5,s2
   1d110:	00d76733          	or	a4,a4,a3
   1d114:	00a00793          	li	a5,10
   1d118:	00130893          	addi	a7,t1,1
   1d11c:	1ae7ce63          	blt	a5,a4,1d2d8 <__multf3+0x2a4>
   1d120:	00200613          	li	a2,2
   1d124:	013a4833          	xor	a6,s4,s3
   1d128:	00100793          	li	a5,1
   1d12c:	18e64463          	blt	a2,a4,1d2b4 <__multf3+0x280>
   1d130:	fff70713          	addi	a4,a4,-1
   1d134:	1ce7e263          	bltu	a5,a4,1d2f8 <__multf3+0x2c4>
   1d138:	00068b13          	mv	s6,a3
   1d13c:	00200793          	li	a5,2
   1d140:	5efb0463          	beq	s6,a5,1d728 <__multf3+0x6f4>
   1d144:	00300713          	li	a4,3
   1d148:	00100793          	li	a5,1
   1d14c:	5ceb0a63          	beq	s6,a4,1d720 <__multf3+0x6ec>
   1d150:	42fb1863          	bne	s6,a5,1d580 <__multf3+0x54c>
   1d154:	00000593          	li	a1,0
   1d158:	00000513          	li	a0,0
   1d15c:	55c0006f          	j	1d6b8 <__multf3+0x684>
   1d160:	00956ab3          	or	s5,a0,s1
   1d164:	080a8263          	beqz	s5,1d1e8 <__multf3+0x1b4>
   1d168:	04048463          	beqz	s1,1d1b0 <__multf3+0x17c>
   1d16c:	00048513          	mv	a0,s1
   1d170:	0dc010ef          	jal	1e24c <__clzdi2>
   1d174:	0005051b          	sext.w	a0,a0
   1d178:	ff150793          	addi	a5,a0,-15
   1d17c:	03d00713          	li	a4,61
   1d180:	0037869b          	addiw	a3,a5,3
   1d184:	40f707bb          	subw	a5,a4,a5
   1d188:	00d494b3          	sll	s1,s1,a3
   1d18c:	00f457b3          	srl	a5,s0,a5
   1d190:	0097e7b3          	or	a5,a5,s1
   1d194:	00d414b3          	sll	s1,s0,a3
   1d198:	ffffc937          	lui	s2,0xffffc
   1d19c:	01190913          	addi	s2,s2,17 # ffffffffffffc011 <__BSS_END__+0xfffffffffffdb399>
   1d1a0:	00048a93          	mv	s5,s1
   1d1a4:	40a90933          	sub	s2,s2,a0
   1d1a8:	00078493          	mv	s1,a5
   1d1ac:	f09ff06f          	j	1d0b4 <__multf3+0x80>
   1d1b0:	09c010ef          	jal	1e24c <__clzdi2>
   1d1b4:	0405051b          	addiw	a0,a0,64
   1d1b8:	ff150793          	addi	a5,a0,-15
   1d1bc:	03c00713          	li	a4,60
   1d1c0:	faf75ee3          	bge	a4,a5,1d17c <__multf3+0x148>
   1d1c4:	fc37879b          	addiw	a5,a5,-61
   1d1c8:	00f417b3          	sll	a5,s0,a5
   1d1cc:	fcdff06f          	j	1d198 <__multf3+0x164>
   1d1d0:	00956ab3          	or	s5,a0,s1
   1d1d4:	020a9263          	bnez	s5,1d1f8 <__multf3+0x1c4>
   1d1d8:	00000493          	li	s1,0
   1d1dc:	0009091b          	sext.w	s2,s2
   1d1e0:	00200b13          	li	s6,2
   1d1e4:	ed5ff06f          	j	1d0b8 <__multf3+0x84>
   1d1e8:	00000493          	li	s1,0
   1d1ec:	00000913          	li	s2,0
   1d1f0:	00100b13          	li	s6,1
   1d1f4:	ec5ff06f          	j	1d0b8 <__multf3+0x84>
   1d1f8:	00050a93          	mv	s5,a0
   1d1fc:	0009091b          	sext.w	s2,s2
   1d200:	00300b13          	li	s6,3
   1d204:	eb5ff06f          	j	1d0b8 <__multf3+0x84>
   1d208:	008be5b3          	or	a1,s7,s0
   1d20c:	08058463          	beqz	a1,1d294 <__multf3+0x260>
   1d210:	04040463          	beqz	s0,1d258 <__multf3+0x224>
   1d214:	00040513          	mv	a0,s0
   1d218:	034010ef          	jal	1e24c <__clzdi2>
   1d21c:	0005051b          	sext.w	a0,a0
   1d220:	ff150793          	addi	a5,a0,-15
   1d224:	03d00713          	li	a4,61
   1d228:	0037869b          	addiw	a3,a5,3
   1d22c:	40f707bb          	subw	a5,a4,a5
   1d230:	00d41433          	sll	s0,s0,a3
   1d234:	00fbd7b3          	srl	a5,s7,a5
   1d238:	0087e733          	or	a4,a5,s0
   1d23c:	00db9433          	sll	s0,s7,a3
   1d240:	ffffc7b7          	lui	a5,0xffffc
   1d244:	01178793          	addi	a5,a5,17 # ffffffffffffc011 <__BSS_END__+0xfffffffffffdb399>
   1d248:	00040593          	mv	a1,s0
   1d24c:	40a787b3          	sub	a5,a5,a0
   1d250:	00070413          	mv	s0,a4
   1d254:	eb1ff06f          	j	1d104 <__multf3+0xd0>
   1d258:	000b8513          	mv	a0,s7
   1d25c:	7f1000ef          	jal	1e24c <__clzdi2>
   1d260:	0405051b          	addiw	a0,a0,64
   1d264:	ff150793          	addi	a5,a0,-15
   1d268:	03c00713          	li	a4,60
   1d26c:	faf75ce3          	bge	a4,a5,1d224 <__multf3+0x1f0>
   1d270:	fc37879b          	addiw	a5,a5,-61
   1d274:	00fb9733          	sll	a4,s7,a5
   1d278:	fc9ff06f          	j	1d240 <__multf3+0x20c>
   1d27c:	008be5b3          	or	a1,s7,s0
   1d280:	02059263          	bnez	a1,1d2a4 <__multf3+0x270>
   1d284:	00000413          	li	s0,0
   1d288:	0007879b          	sext.w	a5,a5
   1d28c:	00200693          	li	a3,2
   1d290:	e79ff06f          	j	1d108 <__multf3+0xd4>
   1d294:	00000413          	li	s0,0
   1d298:	00000793          	li	a5,0
   1d29c:	00100693          	li	a3,1
   1d2a0:	e69ff06f          	j	1d108 <__multf3+0xd4>
   1d2a4:	000b8593          	mv	a1,s7
   1d2a8:	0007879b          	sext.w	a5,a5
   1d2ac:	00300693          	li	a3,3
   1d2b0:	e59ff06f          	j	1d108 <__multf3+0xd4>
   1d2b4:	00e79733          	sll	a4,a5,a4
   1d2b8:	53077513          	andi	a0,a4,1328
   1d2bc:	02051863          	bnez	a0,1d2ec <__multf3+0x2b8>
   1d2c0:	24077613          	andi	a2,a4,576
   1d2c4:	42061c63          	bnez	a2,1d6fc <__multf3+0x6c8>
   1d2c8:	08877713          	andi	a4,a4,136
   1d2cc:	02070663          	beqz	a4,1d2f8 <__multf3+0x2c4>
   1d2d0:	00098813          	mv	a6,s3
   1d2d4:	e65ff06f          	j	1d138 <__multf3+0x104>
   1d2d8:	00f00793          	li	a5,15
   1d2dc:	42f70a63          	beq	a4,a5,1d710 <__multf3+0x6dc>
   1d2e0:	00b00793          	li	a5,11
   1d2e4:	000a0813          	mv	a6,s4
   1d2e8:	fef704e3          	beq	a4,a5,1d2d0 <__multf3+0x29c>
   1d2ec:	00048413          	mv	s0,s1
   1d2f0:	000a8593          	mv	a1,s5
   1d2f4:	e49ff06f          	j	1d13c <__multf3+0x108>
   1d2f8:	02059393          	slli	t2,a1,0x20
   1d2fc:	008587b3          	add	a5,a1,s0
   1d300:	01548733          	add	a4,s1,s5
   1d304:	020a9513          	slli	a0,s5,0x20
   1d308:	0203d393          	srli	t2,t2,0x20
   1d30c:	00b7b2b3          	sltu	t0,a5,a1
   1d310:	0205de13          	srli	t3,a1,0x20
   1d314:	00973fb3          	sltu	t6,a4,s1
   1d318:	020ad913          	srli	s2,s5,0x20
   1d31c:	02055513          	srli	a0,a0,0x20
   1d320:	00038593          	mv	a1,t2
   1d324:	605000ef          	jal	1e128 <__muldi3>
   1d328:	00050f13          	mv	t5,a0
   1d32c:	020a9513          	slli	a0,s5,0x20
   1d330:	02055513          	srli	a0,a0,0x20
   1d334:	000e0593          	mv	a1,t3
   1d338:	5f1000ef          	jal	1e128 <__muldi3>
   1d33c:	00050e93          	mv	t4,a0
   1d340:	00038593          	mv	a1,t2
   1d344:	00090513          	mv	a0,s2
   1d348:	5e1000ef          	jal	1e128 <__muldi3>
   1d34c:	00050393          	mv	t2,a0
   1d350:	000e0593          	mv	a1,t3
   1d354:	00090513          	mv	a0,s2
   1d358:	5d1000ef          	jal	1e128 <__muldi3>
   1d35c:	020f5e13          	srli	t3,t5,0x20
   1d360:	007e8eb3          	add	t4,t4,t2
   1d364:	01de0e33          	add	t3,t3,t4
   1d368:	007e7863          	bgeu	t3,t2,1d378 <__multf3+0x344>
   1d36c:	00100693          	li	a3,1
   1d370:	02069693          	slli	a3,a3,0x20
   1d374:	00d50533          	add	a0,a0,a3
   1d378:	020e5e93          	srli	t4,t3,0x20
   1d37c:	00ae8eb3          	add	t4,t4,a0
   1d380:	020f1513          	slli	a0,t5,0x20
   1d384:	02055513          	srli	a0,a0,0x20
   1d388:	020e1e13          	slli	t3,t3,0x20
   1d38c:	00ae0e33          	add	t3,t3,a0
   1d390:	02079593          	slli	a1,a5,0x20
   1d394:	02071513          	slli	a0,a4,0x20
   1d398:	02055513          	srli	a0,a0,0x20
   1d39c:	0205d593          	srli	a1,a1,0x20
   1d3a0:	589000ef          	jal	1e128 <__muldi3>
   1d3a4:	00050a13          	mv	s4,a0
   1d3a8:	02071513          	slli	a0,a4,0x20
   1d3ac:	02055513          	srli	a0,a0,0x20
   1d3b0:	0207d593          	srli	a1,a5,0x20
   1d3b4:	575000ef          	jal	1e128 <__muldi3>
   1d3b8:	02079593          	slli	a1,a5,0x20
   1d3bc:	00050993          	mv	s3,a0
   1d3c0:	0205d593          	srli	a1,a1,0x20
   1d3c4:	02075513          	srli	a0,a4,0x20
   1d3c8:	561000ef          	jal	1e128 <__muldi3>
   1d3cc:	00050a93          	mv	s5,a0
   1d3d0:	0207d593          	srli	a1,a5,0x20
   1d3d4:	02075513          	srli	a0,a4,0x20
   1d3d8:	551000ef          	jal	1e128 <__muldi3>
   1d3dc:	020a5613          	srli	a2,s4,0x20
   1d3e0:	015989b3          	add	s3,s3,s5
   1d3e4:	01360633          	add	a2,a2,s3
   1d3e8:	00050913          	mv	s2,a0
   1d3ec:	01567863          	bgeu	a2,s5,1d3fc <__multf3+0x3c8>
   1d3f0:	00100693          	li	a3,1
   1d3f4:	02069693          	slli	a3,a3,0x20
   1d3f8:	00d50933          	add	s2,a0,a3
   1d3fc:	020a1513          	slli	a0,s4,0x20
   1d400:	02065993          	srli	s3,a2,0x20
   1d404:	02055513          	srli	a0,a0,0x20
   1d408:	02061613          	slli	a2,a2,0x20
   1d40c:	02045a93          	srli	s5,s0,0x20
   1d410:	02041413          	slli	s0,s0,0x20
   1d414:	00a603b3          	add	t2,a2,a0
   1d418:	02045413          	srli	s0,s0,0x20
   1d41c:	02049513          	slli	a0,s1,0x20
   1d420:	0204db13          	srli	s6,s1,0x20
   1d424:	02055513          	srli	a0,a0,0x20
   1d428:	00040593          	mv	a1,s0
   1d42c:	4fd000ef          	jal	1e128 <__muldi3>
   1d430:	00050a13          	mv	s4,a0
   1d434:	02049513          	slli	a0,s1,0x20
   1d438:	02055513          	srli	a0,a0,0x20
   1d43c:	000a8593          	mv	a1,s5
   1d440:	4e9000ef          	jal	1e128 <__muldi3>
   1d444:	00050f13          	mv	t5,a0
   1d448:	00040593          	mv	a1,s0
   1d44c:	000b0513          	mv	a0,s6
   1d450:	4d9000ef          	jal	1e128 <__muldi3>
   1d454:	00050413          	mv	s0,a0
   1d458:	000a8593          	mv	a1,s5
   1d45c:	000b0513          	mv	a0,s6
   1d460:	4c9000ef          	jal	1e128 <__muldi3>
   1d464:	020a5593          	srli	a1,s4,0x20
   1d468:	008f0f33          	add	t5,t5,s0
   1d46c:	01e585b3          	add	a1,a1,t5
   1d470:	0085f863          	bgeu	a1,s0,1d480 <__multf3+0x44c>
   1d474:	00100693          	li	a3,1
   1d478:	02069693          	slli	a3,a3,0x20
   1d47c:	00d50533          	add	a0,a0,a3
   1d480:	0205df13          	srli	t5,a1,0x20
   1d484:	00af0f33          	add	t5,t5,a0
   1d488:	020a1513          	slli	a0,s4,0x20
   1d48c:	02055513          	srli	a0,a0,0x20
   1d490:	02059593          	slli	a1,a1,0x20
   1d494:	00a585b3          	add	a1,a1,a0
   1d498:	405006b3          	neg	a3,t0
   1d49c:	01d38533          	add	a0,t2,t4
   1d4a0:	00753633          	sltu	a2,a0,t2
   1d4a4:	00d77733          	and	a4,a4,a3
   1d4a8:	41f006b3          	neg	a3,t6
   1d4ac:	00d7f7b3          	and	a5,a5,a3
   1d4b0:	00c986b3          	add	a3,s3,a2
   1d4b4:	012686b3          	add	a3,a3,s2
   1d4b8:	00c6b633          	sltu	a2,a3,a2
   1d4bc:	005fffb3          	and	t6,t6,t0
   1d4c0:	00e68733          	add	a4,a3,a4
   1d4c4:	01f60633          	add	a2,a2,t6
   1d4c8:	00d736b3          	sltu	a3,a4,a3
   1d4cc:	00e78733          	add	a4,a5,a4
   1d4d0:	00c686b3          	add	a3,a3,a2
   1d4d4:	00f737b3          	sltu	a5,a4,a5
   1d4d8:	00d787b3          	add	a5,a5,a3
   1d4dc:	41c506b3          	sub	a3,a0,t3
   1d4e0:	00d53633          	sltu	a2,a0,a3
   1d4e4:	41d70533          	sub	a0,a4,t4
   1d4e8:	40ee8eb3          	sub	t4,t4,a4
   1d4ec:	001ebe93          	seqz	t4,t4
   1d4f0:	40c50fb3          	sub	t6,a0,a2
   1d4f4:	00a73733          	sltu	a4,a4,a0
   1d4f8:	01d67633          	and	a2,a2,t4
   1d4fc:	40b68eb3          	sub	t4,a3,a1
   1d500:	00c76733          	or	a4,a4,a2
   1d504:	01d6b6b3          	sltu	a3,a3,t4
   1d508:	41ef8633          	sub	a2,t6,t5
   1d50c:	40e787b3          	sub	a5,a5,a4
   1d510:	40d58733          	sub	a4,a1,a3
   1d514:	00c70533          	add	a0,a4,a2
   1d518:	00b535b3          	sltu	a1,a0,a1
   1d51c:	00163713          	seqz	a4,a2
   1d520:	01e787b3          	add	a5,a5,t5
   1d524:	00e6f6b3          	and	a3,a3,a4
   1d528:	00b787b3          	add	a5,a5,a1
   1d52c:	00cfb733          	sltu	a4,t6,a2
   1d530:	00de9593          	slli	a1,t4,0xd
   1d534:	00d76733          	or	a4,a4,a3
   1d538:	01c5e5b3          	or	a1,a1,t3
   1d53c:	40e787b3          	sub	a5,a5,a4
   1d540:	00b035b3          	snez	a1,a1
   1d544:	033ed693          	srli	a3,t4,0x33
   1d548:	00d79793          	slli	a5,a5,0xd
   1d54c:	00d51713          	slli	a4,a0,0xd
   1d550:	00d5e5b3          	or	a1,a1,a3
   1d554:	03355413          	srli	s0,a0,0x33
   1d558:	00e5e5b3          	or	a1,a1,a4
   1d55c:	00b79713          	slli	a4,a5,0xb
   1d560:	0087e433          	or	s0,a5,s0
   1d564:	0c075863          	bgez	a4,1d634 <__multf3+0x600>
   1d568:	0015d793          	srli	a5,a1,0x1
   1d56c:	0015f593          	andi	a1,a1,1
   1d570:	00b7e7b3          	or	a5,a5,a1
   1d574:	03f41593          	slli	a1,s0,0x3f
   1d578:	00b7e5b3          	or	a1,a5,a1
   1d57c:	00145413          	srli	s0,s0,0x1
   1d580:	00004737          	lui	a4,0x4
   1d584:	fff70713          	addi	a4,a4,-1 # 3fff <exit-0xc121>
   1d588:	00e88733          	add	a4,a7,a4
   1d58c:	0ae05863          	blez	a4,1d63c <__multf3+0x608>
   1d590:	0075f793          	andi	a5,a1,7
   1d594:	02078063          	beqz	a5,1d5b4 <__multf3+0x580>
   1d598:	00f5f793          	andi	a5,a1,15
   1d59c:	00400693          	li	a3,4
   1d5a0:	00d78a63          	beq	a5,a3,1d5b4 <__multf3+0x580>
   1d5a4:	00d587b3          	add	a5,a1,a3
   1d5a8:	00b7b6b3          	sltu	a3,a5,a1
   1d5ac:	00d40433          	add	s0,s0,a3
   1d5b0:	00078593          	mv	a1,a5
   1d5b4:	00b41793          	slli	a5,s0,0xb
   1d5b8:	0007de63          	bgez	a5,1d5d4 <__multf3+0x5a0>
   1d5bc:	fff00793          	li	a5,-1
   1d5c0:	03479793          	slli	a5,a5,0x34
   1d5c4:	fff78793          	addi	a5,a5,-1
   1d5c8:	00004737          	lui	a4,0x4
   1d5cc:	00f47433          	and	s0,s0,a5
   1d5d0:	00e88733          	add	a4,a7,a4
   1d5d4:	000087b7          	lui	a5,0x8
   1d5d8:	ffe78793          	addi	a5,a5,-2 # 7ffe <exit-0x8122>
   1d5dc:	14e7c663          	blt	a5,a4,1d728 <__multf3+0x6f4>
   1d5e0:	0035d593          	srli	a1,a1,0x3
   1d5e4:	03d41513          	slli	a0,s0,0x3d
   1d5e8:	00b56533          	or	a0,a0,a1
   1d5ec:	00345593          	srli	a1,s0,0x3
   1d5f0:	04813083          	ld	ra,72(sp)
   1d5f4:	04013403          	ld	s0,64(sp)
   1d5f8:	00f8181b          	slliw	a6,a6,0xf
   1d5fc:	01059593          	slli	a1,a1,0x10
   1d600:	00e86833          	or	a6,a6,a4
   1d604:	03081813          	slli	a6,a6,0x30
   1d608:	0105d593          	srli	a1,a1,0x10
   1d60c:	03813483          	ld	s1,56(sp)
   1d610:	03013903          	ld	s2,48(sp)
   1d614:	02813983          	ld	s3,40(sp)
   1d618:	02013a03          	ld	s4,32(sp)
   1d61c:	01813a83          	ld	s5,24(sp)
   1d620:	01013b03          	ld	s6,16(sp)
   1d624:	00813b83          	ld	s7,8(sp)
   1d628:	0105e5b3          	or	a1,a1,a6
   1d62c:	05010113          	addi	sp,sp,80
   1d630:	00008067          	ret
   1d634:	00030893          	mv	a7,t1
   1d638:	f49ff06f          	j	1d580 <__multf3+0x54c>
   1d63c:	08070263          	beqz	a4,1d6c0 <__multf3+0x68c>
   1d640:	f8d00793          	li	a5,-115
   1d644:	b0f748e3          	blt	a4,a5,1d154 <__multf3+0x120>
   1d648:	00100793          	li	a5,1
   1d64c:	fc200693          	li	a3,-62
   1d650:	40e787b3          	sub	a5,a5,a4
   1d654:	06d74a63          	blt	a4,a3,1d6c8 <__multf3+0x694>
   1d658:	04000713          	li	a4,64
   1d65c:	40f7073b          	subw	a4,a4,a5
   1d660:	00e41533          	sll	a0,s0,a4
   1d664:	00f5d6b3          	srl	a3,a1,a5
   1d668:	00e59733          	sll	a4,a1,a4
   1d66c:	00d56533          	or	a0,a0,a3
   1d670:	00e03733          	snez	a4,a4
   1d674:	00e56533          	or	a0,a0,a4
   1d678:	00f455b3          	srl	a1,s0,a5
   1d67c:	00757793          	andi	a5,a0,7
   1d680:	02078063          	beqz	a5,1d6a0 <__multf3+0x66c>
   1d684:	00f57793          	andi	a5,a0,15
   1d688:	00400713          	li	a4,4
   1d68c:	00e78a63          	beq	a5,a4,1d6a0 <__multf3+0x66c>
   1d690:	00e507b3          	add	a5,a0,a4
   1d694:	00a7b733          	sltu	a4,a5,a0
   1d698:	00e585b3          	add	a1,a1,a4
   1d69c:	00078513          	mv	a0,a5
   1d6a0:	00c59793          	slli	a5,a1,0xc
   1d6a4:	0807cc63          	bltz	a5,1d73c <__multf3+0x708>
   1d6a8:	03d59793          	slli	a5,a1,0x3d
   1d6ac:	00355513          	srli	a0,a0,0x3
   1d6b0:	00a7e533          	or	a0,a5,a0
   1d6b4:	0035d593          	srli	a1,a1,0x3
   1d6b8:	00000713          	li	a4,0
   1d6bc:	f35ff06f          	j	1d5f0 <__multf3+0x5bc>
   1d6c0:	00100793          	li	a5,1
   1d6c4:	f95ff06f          	j	1d658 <__multf3+0x624>
   1d6c8:	fc07851b          	addiw	a0,a5,-64
   1d6cc:	fc100613          	li	a2,-63
   1d6d0:	00a45533          	srl	a0,s0,a0
   1d6d4:	00000693          	li	a3,0
   1d6d8:	00c70863          	beq	a4,a2,1d6e8 <__multf3+0x6b4>
   1d6dc:	08000693          	li	a3,128
   1d6e0:	40f686bb          	subw	a3,a3,a5
   1d6e4:	00d416b3          	sll	a3,s0,a3
   1d6e8:	00d5e5b3          	or	a1,a1,a3
   1d6ec:	00b035b3          	snez	a1,a1
   1d6f0:	00b56533          	or	a0,a0,a1
   1d6f4:	00000593          	li	a1,0
   1d6f8:	f85ff06f          	j	1d67c <__multf3+0x648>
   1d6fc:	02f79593          	slli	a1,a5,0x2f
   1d700:	00008737          	lui	a4,0x8
   1d704:	fff70713          	addi	a4,a4,-1 # 7fff <exit-0x8121>
   1d708:	00000813          	li	a6,0
   1d70c:	ee5ff06f          	j	1d5f0 <__multf3+0x5bc>
   1d710:	00100593          	li	a1,1
   1d714:	02f59593          	slli	a1,a1,0x2f
   1d718:	00000513          	li	a0,0
   1d71c:	fe5ff06f          	j	1d700 <__multf3+0x6cc>
   1d720:	02f79593          	slli	a1,a5,0x2f
   1d724:	ff5ff06f          	j	1d718 <__multf3+0x6e4>
   1d728:	00008737          	lui	a4,0x8
   1d72c:	00000593          	li	a1,0
   1d730:	00000513          	li	a0,0
   1d734:	fff70713          	addi	a4,a4,-1 # 7fff <exit-0x8121>
   1d738:	eb9ff06f          	j	1d5f0 <__multf3+0x5bc>
   1d73c:	00000593          	li	a1,0
   1d740:	00000513          	li	a0,0
   1d744:	00100713          	li	a4,1
   1d748:	ea9ff06f          	j	1d5f0 <__multf3+0x5bc>

000000000001d74c <__subtf3>:
   1d74c:	fff00813          	li	a6,-1
   1d750:	fd010113          	addi	sp,sp,-48
   1d754:	01085813          	srli	a6,a6,0x10
   1d758:	00008737          	lui	a4,0x8
   1d75c:	0305de93          	srli	t4,a1,0x30
   1d760:	fff70713          	addi	a4,a4,-1 # 7fff <exit-0x8121>
   1d764:	0306d893          	srli	a7,a3,0x30
   1d768:	00913c23          	sd	s1,24(sp)
   1d76c:	03f6de13          	srli	t3,a3,0x3f
   1d770:	03f5d493          	srli	s1,a1,0x3f
   1d774:	0106f6b3          	and	a3,a3,a6
   1d778:	0105f5b3          	and	a1,a1,a6
   1d77c:	03d55793          	srli	a5,a0,0x3d
   1d780:	03d65313          	srli	t1,a2,0x3d
   1d784:	01213823          	sd	s2,16(sp)
   1d788:	00eefeb3          	and	t4,t4,a4
   1d78c:	00359593          	slli	a1,a1,0x3
   1d790:	00369693          	slli	a3,a3,0x3
   1d794:	02113423          	sd	ra,40(sp)
   1d798:	02813023          	sd	s0,32(sp)
   1d79c:	01313423          	sd	s3,8(sp)
   1d7a0:	00e8f8b3          	and	a7,a7,a4
   1d7a4:	000e8913          	mv	s2,t4
   1d7a8:	00b7e7b3          	or	a5,a5,a1
   1d7ac:	00351513          	slli	a0,a0,0x3
   1d7b0:	00d36333          	or	t1,t1,a3
   1d7b4:	00361613          	slli	a2,a2,0x3
   1d7b8:	00e89663          	bne	a7,a4,1d7c4 <__subtf3+0x78>
   1d7bc:	00c36733          	or	a4,t1,a2
   1d7c0:	00071463          	bnez	a4,1d7c8 <__subtf3+0x7c>
   1d7c4:	001e4e13          	xori	t3,t3,1
   1d7c8:	411e873b          	subw	a4,t4,a7
   1d7cc:	00008837          	lui	a6,0x8
   1d7d0:	00070693          	mv	a3,a4
   1d7d4:	fff80813          	addi	a6,a6,-1 # 7fff <exit-0x8121>
   1d7d8:	349e1263          	bne	t3,s1,1db1c <__subtf3+0x3d0>
   1d7dc:	10e05863          	blez	a4,1d8ec <__subtf3+0x1a0>
   1d7e0:	06089a63          	bnez	a7,1d854 <__subtf3+0x108>
   1d7e4:	00c366b3          	or	a3,t1,a2
   1d7e8:	06068263          	beqz	a3,1d84c <__subtf3+0x100>
   1d7ec:	fff7071b          	addiw	a4,a4,-1
   1d7f0:	04071c63          	bnez	a4,1d848 <__subtf3+0xfc>
   1d7f4:	00c50633          	add	a2,a0,a2
   1d7f8:	006787b3          	add	a5,a5,t1
   1d7fc:	00a63533          	sltu	a0,a2,a0
   1d800:	00a787b3          	add	a5,a5,a0
   1d804:	00c79713          	slli	a4,a5,0xc
   1d808:	2c075263          	bgez	a4,1dacc <__subtf3+0x380>
   1d80c:	00008737          	lui	a4,0x8
   1d810:	00190913          	addi	s2,s2,1
   1d814:	fff70713          	addi	a4,a4,-1 # 7fff <exit-0x8121>
   1d818:	6ae90a63          	beq	s2,a4,1decc <__subtf3+0x780>
   1d81c:	fff00713          	li	a4,-1
   1d820:	03371713          	slli	a4,a4,0x33
   1d824:	fff70713          	addi	a4,a4,-1
   1d828:	00e7f7b3          	and	a5,a5,a4
   1d82c:	00165713          	srli	a4,a2,0x1
   1d830:	00167613          	andi	a2,a2,1
   1d834:	00c76733          	or	a4,a4,a2
   1d838:	03f79613          	slli	a2,a5,0x3f
   1d83c:	00e66633          	or	a2,a2,a4
   1d840:	0017d793          	srli	a5,a5,0x1
   1d844:	2880006f          	j	1dacc <__subtf3+0x380>
   1d848:	010e9e63          	bne	t4,a6,1d864 <__subtf3+0x118>
   1d84c:	00050613          	mv	a2,a0
   1d850:	1c80006f          	j	1da18 <__subtf3+0x2cc>
   1d854:	ff0e8ce3          	beq	t4,a6,1d84c <__subtf3+0x100>
   1d858:	00100693          	li	a3,1
   1d85c:	03369693          	slli	a3,a3,0x33
   1d860:	00d36333          	or	t1,t1,a3
   1d864:	07400693          	li	a3,116
   1d868:	06e6cc63          	blt	a3,a4,1d8e0 <__subtf3+0x194>
   1d86c:	03f00693          	li	a3,63
   1d870:	02e6ce63          	blt	a3,a4,1d8ac <__subtf3+0x160>
   1d874:	04000593          	li	a1,64
   1d878:	40e585bb          	subw	a1,a1,a4
   1d87c:	00b316b3          	sll	a3,t1,a1
   1d880:	00e65833          	srl	a6,a2,a4
   1d884:	00b615b3          	sll	a1,a2,a1
   1d888:	0106e6b3          	or	a3,a3,a6
   1d88c:	00b035b3          	snez	a1,a1
   1d890:	00b6e6b3          	or	a3,a3,a1
   1d894:	00e35733          	srl	a4,t1,a4
   1d898:	00a68633          	add	a2,a3,a0
   1d89c:	00f70733          	add	a4,a4,a5
   1d8a0:	00d636b3          	sltu	a3,a2,a3
   1d8a4:	00d707b3          	add	a5,a4,a3
   1d8a8:	f5dff06f          	j	1d804 <__subtf3+0xb8>
   1d8ac:	fc07069b          	addiw	a3,a4,-64
   1d8b0:	04000813          	li	a6,64
   1d8b4:	00d356b3          	srl	a3,t1,a3
   1d8b8:	00000593          	li	a1,0
   1d8bc:	01070863          	beq	a4,a6,1d8cc <__subtf3+0x180>
   1d8c0:	08000593          	li	a1,128
   1d8c4:	40e585bb          	subw	a1,a1,a4
   1d8c8:	00b315b3          	sll	a1,t1,a1
   1d8cc:	00c5e5b3          	or	a1,a1,a2
   1d8d0:	00b035b3          	snez	a1,a1
   1d8d4:	00b6e6b3          	or	a3,a3,a1
   1d8d8:	00000713          	li	a4,0
   1d8dc:	fbdff06f          	j	1d898 <__subtf3+0x14c>
   1d8e0:	00c366b3          	or	a3,t1,a2
   1d8e4:	00d036b3          	snez	a3,a3
   1d8e8:	ff1ff06f          	j	1d8d8 <__subtf3+0x18c>
   1d8ec:	0c070e63          	beqz	a4,1d9c8 <__subtf3+0x27c>
   1d8f0:	020e9e63          	bnez	t4,1d92c <__subtf3+0x1e0>
   1d8f4:	00a7e6b3          	or	a3,a5,a0
   1d8f8:	02068463          	beqz	a3,1d920 <__subtf3+0x1d4>
   1d8fc:	fff74713          	not	a4,a4
   1d900:	00071e63          	bnez	a4,1d91c <__subtf3+0x1d0>
   1d904:	00c50633          	add	a2,a0,a2
   1d908:	006787b3          	add	a5,a5,t1
   1d90c:	00a63533          	sltu	a0,a2,a0
   1d910:	00a787b3          	add	a5,a5,a0
   1d914:	00088913          	mv	s2,a7
   1d918:	eedff06f          	j	1d804 <__subtf3+0xb8>
   1d91c:	03089263          	bne	a7,a6,1d940 <__subtf3+0x1f4>
   1d920:	00030793          	mv	a5,t1
   1d924:	00088913          	mv	s2,a7
   1d928:	0f00006f          	j	1da18 <__subtf3+0x2cc>
   1d92c:	ff088ae3          	beq	a7,a6,1d920 <__subtf3+0x1d4>
   1d930:	00100693          	li	a3,1
   1d934:	03369693          	slli	a3,a3,0x33
   1d938:	40e0073b          	negw	a4,a4
   1d93c:	00d7e7b3          	or	a5,a5,a3
   1d940:	07400693          	li	a3,116
   1d944:	06e6cc63          	blt	a3,a4,1d9bc <__subtf3+0x270>
   1d948:	03f00693          	li	a3,63
   1d94c:	02e6ce63          	blt	a3,a4,1d988 <__subtf3+0x23c>
   1d950:	04000593          	li	a1,64
   1d954:	40e585bb          	subw	a1,a1,a4
   1d958:	00b796b3          	sll	a3,a5,a1
   1d95c:	00e55833          	srl	a6,a0,a4
   1d960:	00b515b3          	sll	a1,a0,a1
   1d964:	0106e6b3          	or	a3,a3,a6
   1d968:	00b035b3          	snez	a1,a1
   1d96c:	00b6e6b3          	or	a3,a3,a1
   1d970:	00e7d733          	srl	a4,a5,a4
   1d974:	00c68633          	add	a2,a3,a2
   1d978:	00670733          	add	a4,a4,t1
   1d97c:	00d636b3          	sltu	a3,a2,a3
   1d980:	00d707b3          	add	a5,a4,a3
   1d984:	f91ff06f          	j	1d914 <__subtf3+0x1c8>
   1d988:	fc07069b          	addiw	a3,a4,-64
   1d98c:	04000813          	li	a6,64
   1d990:	00d7d6b3          	srl	a3,a5,a3
   1d994:	00000593          	li	a1,0
   1d998:	01070863          	beq	a4,a6,1d9a8 <__subtf3+0x25c>
   1d99c:	08000593          	li	a1,128
   1d9a0:	40e585bb          	subw	a1,a1,a4
   1d9a4:	00b795b3          	sll	a1,a5,a1
   1d9a8:	00a5e5b3          	or	a1,a1,a0
   1d9ac:	00b035b3          	snez	a1,a1
   1d9b0:	00b6e6b3          	or	a3,a3,a1
   1d9b4:	00000713          	li	a4,0
   1d9b8:	fbdff06f          	j	1d974 <__subtf3+0x228>
   1d9bc:	00a7e6b3          	or	a3,a5,a0
   1d9c0:	00d036b3          	snez	a3,a3
   1d9c4:	ff1ff06f          	j	1d9b4 <__subtf3+0x268>
   1d9c8:	001e8713          	addi	a4,t4,1
   1d9cc:	03171693          	slli	a3,a4,0x31
   1d9d0:	0326d693          	srli	a3,a3,0x32
   1d9d4:	0c069863          	bnez	a3,1daa4 <__subtf3+0x358>
   1d9d8:	00a7e733          	or	a4,a5,a0
   1d9dc:	0a0e9a63          	bnez	t4,1da90 <__subtf3+0x344>
   1d9e0:	4c070663          	beqz	a4,1deac <__subtf3+0x760>
   1d9e4:	00c36733          	or	a4,t1,a2
   1d9e8:	4c070663          	beqz	a4,1deb4 <__subtf3+0x768>
   1d9ec:	00c50633          	add	a2,a0,a2
   1d9f0:	006787b3          	add	a5,a5,t1
   1d9f4:	00a63533          	sltu	a0,a2,a0
   1d9f8:	00a787b3          	add	a5,a5,a0
   1d9fc:	00c79713          	slli	a4,a5,0xc
   1da00:	34075263          	bgez	a4,1dd44 <__subtf3+0x5f8>
   1da04:	fff00713          	li	a4,-1
   1da08:	03371713          	slli	a4,a4,0x33
   1da0c:	fff70713          	addi	a4,a4,-1
   1da10:	00e7f7b3          	and	a5,a5,a4
   1da14:	00100913          	li	s2,1
   1da18:	00008737          	lui	a4,0x8
   1da1c:	03d79513          	slli	a0,a5,0x3d
   1da20:	00365613          	srli	a2,a2,0x3
   1da24:	fff70713          	addi	a4,a4,-1 # 7fff <exit-0x8121>
   1da28:	00c56533          	or	a0,a0,a2
   1da2c:	0037d793          	srli	a5,a5,0x3
   1da30:	02e91063          	bne	s2,a4,1da50 <__subtf3+0x304>
   1da34:	00f56533          	or	a0,a0,a5
   1da38:	00000793          	li	a5,0
   1da3c:	00050a63          	beqz	a0,1da50 <__subtf3+0x304>
   1da40:	00100793          	li	a5,1
   1da44:	02f79793          	slli	a5,a5,0x2f
   1da48:	00000513          	li	a0,0
   1da4c:	00000493          	li	s1,0
   1da50:	03191713          	slli	a4,s2,0x31
   1da54:	0014f593          	andi	a1,s1,1
   1da58:	02813083          	ld	ra,40(sp)
   1da5c:	02013403          	ld	s0,32(sp)
   1da60:	03175713          	srli	a4,a4,0x31
   1da64:	00f59593          	slli	a1,a1,0xf
   1da68:	01079793          	slli	a5,a5,0x10
   1da6c:	00e5e5b3          	or	a1,a1,a4
   1da70:	03059593          	slli	a1,a1,0x30
   1da74:	0107d793          	srli	a5,a5,0x10
   1da78:	01813483          	ld	s1,24(sp)
   1da7c:	01013903          	ld	s2,16(sp)
   1da80:	00813983          	ld	s3,8(sp)
   1da84:	00b7e5b3          	or	a1,a5,a1
   1da88:	03010113          	addi	sp,sp,48
   1da8c:	00008067          	ret
   1da90:	42070663          	beqz	a4,1debc <__subtf3+0x770>
   1da94:	00c36333          	or	t1,t1,a2
   1da98:	2c031e63          	bnez	t1,1dd74 <__subtf3+0x628>
   1da9c:	00050613          	mv	a2,a0
   1daa0:	4200006f          	j	1dec0 <__subtf3+0x774>
   1daa4:	43070263          	beq	a4,a6,1dec8 <__subtf3+0x77c>
   1daa8:	00c50633          	add	a2,a0,a2
   1daac:	00a63533          	sltu	a0,a2,a0
   1dab0:	006787b3          	add	a5,a5,t1
   1dab4:	00a787b3          	add	a5,a5,a0
   1dab8:	03f79693          	slli	a3,a5,0x3f
   1dabc:	00165613          	srli	a2,a2,0x1
   1dac0:	00c6e633          	or	a2,a3,a2
   1dac4:	0017d793          	srli	a5,a5,0x1
   1dac8:	00070913          	mv	s2,a4
   1dacc:	00767713          	andi	a4,a2,7
   1dad0:	02070063          	beqz	a4,1daf0 <__subtf3+0x3a4>
   1dad4:	00f67713          	andi	a4,a2,15
   1dad8:	00400693          	li	a3,4
   1dadc:	00d70a63          	beq	a4,a3,1daf0 <__subtf3+0x3a4>
   1dae0:	00d60733          	add	a4,a2,a3
   1dae4:	00c736b3          	sltu	a3,a4,a2
   1dae8:	00d787b3          	add	a5,a5,a3
   1daec:	00070613          	mv	a2,a4
   1daf0:	00c79713          	slli	a4,a5,0xc
   1daf4:	f20752e3          	bgez	a4,1da18 <__subtf3+0x2cc>
   1daf8:	00008737          	lui	a4,0x8
   1dafc:	00190913          	addi	s2,s2,1
   1db00:	fff70713          	addi	a4,a4,-1 # 7fff <exit-0x8121>
   1db04:	3ce90463          	beq	s2,a4,1decc <__subtf3+0x780>
   1db08:	fff00713          	li	a4,-1
   1db0c:	03371713          	slli	a4,a4,0x33
   1db10:	fff70713          	addi	a4,a4,-1
   1db14:	00e7f7b3          	and	a5,a5,a4
   1db18:	f01ff06f          	j	1da18 <__subtf3+0x2cc>
   1db1c:	0ee05063          	blez	a4,1dbfc <__subtf3+0x4b0>
   1db20:	08089463          	bnez	a7,1dba8 <__subtf3+0x45c>
   1db24:	00c366b3          	or	a3,t1,a2
   1db28:	d20682e3          	beqz	a3,1d84c <__subtf3+0x100>
   1db2c:	fff7071b          	addiw	a4,a4,-1
   1db30:	02071663          	bnez	a4,1db5c <__subtf3+0x410>
   1db34:	40c50633          	sub	a2,a0,a2
   1db38:	406787b3          	sub	a5,a5,t1
   1db3c:	00c53533          	sltu	a0,a0,a2
   1db40:	40a787b3          	sub	a5,a5,a0
   1db44:	00c79713          	slli	a4,a5,0xc
   1db48:	f80752e3          	bgez	a4,1dacc <__subtf3+0x380>
   1db4c:	00d79413          	slli	s0,a5,0xd
   1db50:	00d45413          	srli	s0,s0,0xd
   1db54:	00060993          	mv	s3,a2
   1db58:	2680006f          	j	1ddc0 <__subtf3+0x674>
   1db5c:	cf0e88e3          	beq	t4,a6,1d84c <__subtf3+0x100>
   1db60:	07400693          	li	a3,116
   1db64:	08e6c663          	blt	a3,a4,1dbf0 <__subtf3+0x4a4>
   1db68:	03f00693          	li	a3,63
   1db6c:	04e6c863          	blt	a3,a4,1dbbc <__subtf3+0x470>
   1db70:	04000593          	li	a1,64
   1db74:	40e585bb          	subw	a1,a1,a4
   1db78:	00b316b3          	sll	a3,t1,a1
   1db7c:	00e65833          	srl	a6,a2,a4
   1db80:	00b615b3          	sll	a1,a2,a1
   1db84:	0106e6b3          	or	a3,a3,a6
   1db88:	00b035b3          	snez	a1,a1
   1db8c:	00b6e633          	or	a2,a3,a1
   1db90:	00e356b3          	srl	a3,t1,a4
   1db94:	40c50633          	sub	a2,a0,a2
   1db98:	40d786b3          	sub	a3,a5,a3
   1db9c:	00c53533          	sltu	a0,a0,a2
   1dba0:	40a687b3          	sub	a5,a3,a0
   1dba4:	fa1ff06f          	j	1db44 <__subtf3+0x3f8>
   1dba8:	cb0e82e3          	beq	t4,a6,1d84c <__subtf3+0x100>
   1dbac:	00100693          	li	a3,1
   1dbb0:	03369693          	slli	a3,a3,0x33
   1dbb4:	00d36333          	or	t1,t1,a3
   1dbb8:	fa9ff06f          	j	1db60 <__subtf3+0x414>
   1dbbc:	fc07069b          	addiw	a3,a4,-64
   1dbc0:	04000813          	li	a6,64
   1dbc4:	00d356b3          	srl	a3,t1,a3
   1dbc8:	00000593          	li	a1,0
   1dbcc:	01070863          	beq	a4,a6,1dbdc <__subtf3+0x490>
   1dbd0:	08000593          	li	a1,128
   1dbd4:	40e585bb          	subw	a1,a1,a4
   1dbd8:	00b315b3          	sll	a1,t1,a1
   1dbdc:	00c5e5b3          	or	a1,a1,a2
   1dbe0:	00b035b3          	snez	a1,a1
   1dbe4:	00b6e633          	or	a2,a3,a1
   1dbe8:	00000693          	li	a3,0
   1dbec:	fa9ff06f          	j	1db94 <__subtf3+0x448>
   1dbf0:	00c36633          	or	a2,t1,a2
   1dbf4:	00c03633          	snez	a2,a2
   1dbf8:	ff1ff06f          	j	1dbe8 <__subtf3+0x49c>
   1dbfc:	0e070263          	beqz	a4,1dce0 <__subtf3+0x594>
   1dc00:	040e9063          	bnez	t4,1dc40 <__subtf3+0x4f4>
   1dc04:	00a7e733          	or	a4,a5,a0
   1dc08:	02070863          	beqz	a4,1dc38 <__subtf3+0x4ec>
   1dc0c:	fff6c693          	not	a3,a3
   1dc10:	02069263          	bnez	a3,1dc34 <__subtf3+0x4e8>
   1dc14:	40a60533          	sub	a0,a2,a0
   1dc18:	00a63733          	sltu	a4,a2,a0
   1dc1c:	40f307b3          	sub	a5,t1,a5
   1dc20:	00050613          	mv	a2,a0
   1dc24:	40e787b3          	sub	a5,a5,a4
   1dc28:	00088913          	mv	s2,a7
   1dc2c:	000e0493          	mv	s1,t3
   1dc30:	f15ff06f          	j	1db44 <__subtf3+0x3f8>
   1dc34:	03089063          	bne	a7,a6,1dc54 <__subtf3+0x508>
   1dc38:	000e0493          	mv	s1,t3
   1dc3c:	ce5ff06f          	j	1d920 <__subtf3+0x1d4>
   1dc40:	ff088ce3          	beq	a7,a6,1dc38 <__subtf3+0x4ec>
   1dc44:	40e006bb          	negw	a3,a4
   1dc48:	00100713          	li	a4,1
   1dc4c:	03371713          	slli	a4,a4,0x33
   1dc50:	00e7e7b3          	or	a5,a5,a4
   1dc54:	07400713          	li	a4,116
   1dc58:	06d74e63          	blt	a4,a3,1dcd4 <__subtf3+0x588>
   1dc5c:	03f00713          	li	a4,63
   1dc60:	04d74063          	blt	a4,a3,1dca0 <__subtf3+0x554>
   1dc64:	04000713          	li	a4,64
   1dc68:	40d7073b          	subw	a4,a4,a3
   1dc6c:	00e795b3          	sll	a1,a5,a4
   1dc70:	00d55833          	srl	a6,a0,a3
   1dc74:	00e51733          	sll	a4,a0,a4
   1dc78:	0105e5b3          	or	a1,a1,a6
   1dc7c:	00e03733          	snez	a4,a4
   1dc80:	00e5e5b3          	or	a1,a1,a4
   1dc84:	00d7d6b3          	srl	a3,a5,a3
   1dc88:	40b605b3          	sub	a1,a2,a1
   1dc8c:	00b637b3          	sltu	a5,a2,a1
   1dc90:	40d306b3          	sub	a3,t1,a3
   1dc94:	00058613          	mv	a2,a1
   1dc98:	40f687b3          	sub	a5,a3,a5
   1dc9c:	f8dff06f          	j	1dc28 <__subtf3+0x4dc>
   1dca0:	fc06859b          	addiw	a1,a3,-64
   1dca4:	04000813          	li	a6,64
   1dca8:	00b7d5b3          	srl	a1,a5,a1
   1dcac:	00000713          	li	a4,0
   1dcb0:	01068863          	beq	a3,a6,1dcc0 <__subtf3+0x574>
   1dcb4:	08000713          	li	a4,128
   1dcb8:	40d7073b          	subw	a4,a4,a3
   1dcbc:	00e79733          	sll	a4,a5,a4
   1dcc0:	00a76733          	or	a4,a4,a0
   1dcc4:	00e03733          	snez	a4,a4
   1dcc8:	00e5e5b3          	or	a1,a1,a4
   1dccc:	00000693          	li	a3,0
   1dcd0:	fb9ff06f          	j	1dc88 <__subtf3+0x53c>
   1dcd4:	00a7e5b3          	or	a1,a5,a0
   1dcd8:	00b035b3          	snez	a1,a1
   1dcdc:	ff1ff06f          	j	1dccc <__subtf3+0x580>
   1dce0:	001e8713          	addi	a4,t4,1
   1dce4:	03171693          	slli	a3,a4,0x31
   1dce8:	0326d693          	srli	a3,a3,0x32
   1dcec:	0a069263          	bnez	a3,1dd90 <__subtf3+0x644>
   1dcf0:	00c36733          	or	a4,t1,a2
   1dcf4:	00a7e6b3          	or	a3,a5,a0
   1dcf8:	060e9863          	bnez	t4,1dd68 <__subtf3+0x61c>
   1dcfc:	00069a63          	bnez	a3,1dd10 <__subtf3+0x5c4>
   1dd00:	00030793          	mv	a5,t1
   1dd04:	02071e63          	bnez	a4,1dd40 <__subtf3+0x5f4>
   1dd08:	00000493          	li	s1,0
   1dd0c:	1c00006f          	j	1decc <__subtf3+0x780>
   1dd10:	1a070263          	beqz	a4,1deb4 <__subtf3+0x768>
   1dd14:	40c506b3          	sub	a3,a0,a2
   1dd18:	00d535b3          	sltu	a1,a0,a3
   1dd1c:	40678733          	sub	a4,a5,t1
   1dd20:	40b70733          	sub	a4,a4,a1
   1dd24:	00c71593          	slli	a1,a4,0xc
   1dd28:	0205d663          	bgez	a1,1dd54 <__subtf3+0x608>
   1dd2c:	40a60533          	sub	a0,a2,a0
   1dd30:	00a63733          	sltu	a4,a2,a0
   1dd34:	40f307b3          	sub	a5,t1,a5
   1dd38:	00050613          	mv	a2,a0
   1dd3c:	40e787b3          	sub	a5,a5,a4
   1dd40:	000e0493          	mv	s1,t3
   1dd44:	00c7e733          	or	a4,a5,a2
   1dd48:	18070e63          	beqz	a4,1dee4 <__subtf3+0x798>
   1dd4c:	00000913          	li	s2,0
   1dd50:	d7dff06f          	j	1dacc <__subtf3+0x380>
   1dd54:	00e6e633          	or	a2,a3,a4
   1dd58:	18060063          	beqz	a2,1ded8 <__subtf3+0x78c>
   1dd5c:	00070793          	mv	a5,a4
   1dd60:	00068613          	mv	a2,a3
   1dd64:	fe1ff06f          	j	1dd44 <__subtf3+0x5f8>
   1dd68:	02069063          	bnez	a3,1dd88 <__subtf3+0x63c>
   1dd6c:	000e0493          	mv	s1,t3
   1dd70:	14071663          	bnez	a4,1debc <__subtf3+0x770>
   1dd74:	00100793          	li	a5,1
   1dd78:	00000493          	li	s1,0
   1dd7c:	03279793          	slli	a5,a5,0x32
   1dd80:	00000613          	li	a2,0
   1dd84:	13c0006f          	j	1dec0 <__subtf3+0x774>
   1dd88:	d0070ae3          	beqz	a4,1da9c <__subtf3+0x350>
   1dd8c:	fe9ff06f          	j	1dd74 <__subtf3+0x628>
   1dd90:	40c50733          	sub	a4,a0,a2
   1dd94:	00e536b3          	sltu	a3,a0,a4
   1dd98:	40678433          	sub	s0,a5,t1
   1dd9c:	40d40433          	sub	s0,s0,a3
   1dda0:	00c41693          	slli	a3,s0,0xc
   1dda4:	00070993          	mv	s3,a4
   1dda8:	0606de63          	bgez	a3,1de24 <__subtf3+0x6d8>
   1ddac:	40a609b3          	sub	s3,a2,a0
   1ddb0:	40f30433          	sub	s0,t1,a5
   1ddb4:	01363633          	sltu	a2,a2,s3
   1ddb8:	40c40433          	sub	s0,s0,a2
   1ddbc:	000e0493          	mv	s1,t3
   1ddc0:	06040e63          	beqz	s0,1de3c <__subtf3+0x6f0>
   1ddc4:	00040513          	mv	a0,s0
   1ddc8:	484000ef          	jal	1e24c <__clzdi2>
   1ddcc:	ff45061b          	addiw	a2,a0,-12
   1ddd0:	04000793          	li	a5,64
   1ddd4:	40c787bb          	subw	a5,a5,a2
   1ddd8:	00c41433          	sll	s0,s0,a2
   1dddc:	00f9d7b3          	srl	a5,s3,a5
   1dde0:	0087e7b3          	or	a5,a5,s0
   1dde4:	00c99433          	sll	s0,s3,a2
   1dde8:	0b264463          	blt	a2,s2,1de90 <__subtf3+0x744>
   1ddec:	4126063b          	subw	a2,a2,s2
   1ddf0:	0016069b          	addiw	a3,a2,1
   1ddf4:	03f00713          	li	a4,63
   1ddf8:	06d74263          	blt	a4,a3,1de5c <__subtf3+0x710>
   1ddfc:	04000713          	li	a4,64
   1de00:	40d7073b          	subw	a4,a4,a3
   1de04:	00e79633          	sll	a2,a5,a4
   1de08:	00d455b3          	srl	a1,s0,a3
   1de0c:	00e41733          	sll	a4,s0,a4
   1de10:	00b66633          	or	a2,a2,a1
   1de14:	00e03733          	snez	a4,a4
   1de18:	00e66633          	or	a2,a2,a4
   1de1c:	00d7d7b3          	srl	a5,a5,a3
   1de20:	f25ff06f          	j	1dd44 <__subtf3+0x5f8>
   1de24:	00876633          	or	a2,a4,s0
   1de28:	f8061ce3          	bnez	a2,1ddc0 <__subtf3+0x674>
   1de2c:	00000793          	li	a5,0
   1de30:	00000493          	li	s1,0
   1de34:	00000913          	li	s2,0
   1de38:	be1ff06f          	j	1da18 <__subtf3+0x2cc>
   1de3c:	00098513          	mv	a0,s3
   1de40:	40c000ef          	jal	1e24c <__clzdi2>
   1de44:	0345061b          	addiw	a2,a0,52
   1de48:	03f00793          	li	a5,63
   1de4c:	f8c7d2e3          	bge	a5,a2,1ddd0 <__subtf3+0x684>
   1de50:	ff45079b          	addiw	a5,a0,-12
   1de54:	00f997b3          	sll	a5,s3,a5
   1de58:	f91ff06f          	j	1dde8 <__subtf3+0x69c>
   1de5c:	fc16061b          	addiw	a2,a2,-63
   1de60:	04000593          	li	a1,64
   1de64:	00c7d633          	srl	a2,a5,a2
   1de68:	00000713          	li	a4,0
   1de6c:	00b68863          	beq	a3,a1,1de7c <__subtf3+0x730>
   1de70:	08000713          	li	a4,128
   1de74:	40d7073b          	subw	a4,a4,a3
   1de78:	00e79733          	sll	a4,a5,a4
   1de7c:	00e46733          	or	a4,s0,a4
   1de80:	00e03733          	snez	a4,a4
   1de84:	00e66633          	or	a2,a2,a4
   1de88:	00000793          	li	a5,0
   1de8c:	eb9ff06f          	j	1dd44 <__subtf3+0x5f8>
   1de90:	fff00713          	li	a4,-1
   1de94:	03371713          	slli	a4,a4,0x33
   1de98:	fff70713          	addi	a4,a4,-1
   1de9c:	40c90933          	sub	s2,s2,a2
   1dea0:	00e7f7b3          	and	a5,a5,a4
   1dea4:	00040613          	mv	a2,s0
   1dea8:	c25ff06f          	j	1dacc <__subtf3+0x380>
   1deac:	00030793          	mv	a5,t1
   1deb0:	e95ff06f          	j	1dd44 <__subtf3+0x5f8>
   1deb4:	00050613          	mv	a2,a0
   1deb8:	e8dff06f          	j	1dd44 <__subtf3+0x5f8>
   1debc:	00030793          	mv	a5,t1
   1dec0:	00080913          	mv	s2,a6
   1dec4:	b55ff06f          	j	1da18 <__subtf3+0x2cc>
   1dec8:	00070913          	mv	s2,a4
   1decc:	00000793          	li	a5,0
   1ded0:	00000613          	li	a2,0
   1ded4:	b45ff06f          	j	1da18 <__subtf3+0x2cc>
   1ded8:	00000493          	li	s1,0
   1dedc:	00000793          	li	a5,0
   1dee0:	b39ff06f          	j	1da18 <__subtf3+0x2cc>
   1dee4:	00000793          	li	a5,0
   1dee8:	00000613          	li	a2,0
   1deec:	f49ff06f          	j	1de34 <__subtf3+0x6e8>

000000000001def0 <__unordtf2>:
   1def0:	000087b7          	lui	a5,0x8
   1def4:	fff78793          	addi	a5,a5,-1 # 7fff <exit-0x8121>
   1def8:	0305d813          	srli	a6,a1,0x30
   1defc:	0306d713          	srli	a4,a3,0x30
   1df00:	00f87833          	and	a6,a6,a5
   1df04:	00f77733          	and	a4,a4,a5
   1df08:	00f81c63          	bne	a6,a5,1df20 <__unordtf2+0x30>
   1df0c:	01059593          	slli	a1,a1,0x10
   1df10:	0105d593          	srli	a1,a1,0x10
   1df14:	00a5e5b3          	or	a1,a1,a0
   1df18:	00100513          	li	a0,1
   1df1c:	02059263          	bnez	a1,1df40 <__unordtf2+0x50>
   1df20:	000087b7          	lui	a5,0x8
   1df24:	fff78793          	addi	a5,a5,-1 # 7fff <exit-0x8121>
   1df28:	00000513          	li	a0,0
   1df2c:	00f71a63          	bne	a4,a5,1df40 <__unordtf2+0x50>
   1df30:	01069693          	slli	a3,a3,0x10
   1df34:	0106d693          	srli	a3,a3,0x10
   1df38:	00c6e6b3          	or	a3,a3,a2
   1df3c:	00d03533          	snez	a0,a3
   1df40:	00008067          	ret

000000000001df44 <__fixtfsi>:
   1df44:	00159793          	slli	a5,a1,0x1
   1df48:	0317d713          	srli	a4,a5,0x31
   1df4c:	000047b7          	lui	a5,0x4
   1df50:	ffe78793          	addi	a5,a5,-2 # 3ffe <exit-0xc122>
   1df54:	03f5d693          	srli	a3,a1,0x3f
   1df58:	00000513          	li	a0,0
   1df5c:	04e7d863          	bge	a5,a4,1dfac <__fixtfsi+0x68>
   1df60:	000047b7          	lui	a5,0x4
   1df64:	01d78793          	addi	a5,a5,29 # 401d <exit-0xc103>
   1df68:	00e7da63          	bge	a5,a4,1df7c <__fixtfsi+0x38>
   1df6c:	80000537          	lui	a0,0x80000
   1df70:	fff54513          	not	a0,a0
   1df74:	00a6853b          	addw	a0,a3,a0
   1df78:	00008067          	ret
   1df7c:	01059513          	slli	a0,a1,0x10
   1df80:	00100793          	li	a5,1
   1df84:	03079793          	slli	a5,a5,0x30
   1df88:	01055513          	srli	a0,a0,0x10
   1df8c:	00f56533          	or	a0,a0,a5
   1df90:	000047b7          	lui	a5,0x4
   1df94:	02f7879b          	addiw	a5,a5,47 # 402f <exit-0xc0f1>
   1df98:	40e787bb          	subw	a5,a5,a4
   1df9c:	00f55533          	srl	a0,a0,a5
   1dfa0:	0005051b          	sext.w	a0,a0
   1dfa4:	00068463          	beqz	a3,1dfac <__fixtfsi+0x68>
   1dfa8:	40a0053b          	negw	a0,a0
   1dfac:	00008067          	ret

000000000001dfb0 <__floatsitf>:
   1dfb0:	fe010113          	addi	sp,sp,-32
   1dfb4:	00113c23          	sd	ra,24(sp)
   1dfb8:	00813823          	sd	s0,16(sp)
   1dfbc:	00913423          	sd	s1,8(sp)
   1dfc0:	06050463          	beqz	a0,1e028 <__floatsitf+0x78>
   1dfc4:	41f5579b          	sraiw	a5,a0,0x1f
   1dfc8:	00f54433          	xor	s0,a0,a5
   1dfcc:	40f4043b          	subw	s0,s0,a5
   1dfd0:	02041413          	slli	s0,s0,0x20
   1dfd4:	02045413          	srli	s0,s0,0x20
   1dfd8:	01f5549b          	srliw	s1,a0,0x1f
   1dfdc:	00040513          	mv	a0,s0
   1dfe0:	26c000ef          	jal	1e24c <__clzdi2>
   1dfe4:	000047b7          	lui	a5,0x4
   1dfe8:	03e7879b          	addiw	a5,a5,62 # 403e <exit-0xc0e2>
   1dfec:	40a787bb          	subw	a5,a5,a0
   1dff0:	ff15051b          	addiw	a0,a0,-15 # 7ffffff1 <__BSS_END__+0x7ffdf379>
   1dff4:	00a41433          	sll	s0,s0,a0
   1dff8:	00f4959b          	slliw	a1,s1,0xf
   1dffc:	01041413          	slli	s0,s0,0x10
   1e000:	00f5e5b3          	or	a1,a1,a5
   1e004:	01045413          	srli	s0,s0,0x10
   1e008:	03059593          	slli	a1,a1,0x30
   1e00c:	01813083          	ld	ra,24(sp)
   1e010:	00b465b3          	or	a1,s0,a1
   1e014:	01013403          	ld	s0,16(sp)
   1e018:	00813483          	ld	s1,8(sp)
   1e01c:	00000513          	li	a0,0
   1e020:	02010113          	addi	sp,sp,32
   1e024:	00008067          	ret
   1e028:	00000493          	li	s1,0
   1e02c:	00000413          	li	s0,0
   1e030:	00000793          	li	a5,0
   1e034:	fc5ff06f          	j	1dff8 <__floatsitf+0x48>

000000000001e038 <__extenddftf2>:
   1e038:	03455793          	srli	a5,a0,0x34
   1e03c:	7ff7f793          	andi	a5,a5,2047
   1e040:	fe010113          	addi	sp,sp,-32
   1e044:	00178713          	addi	a4,a5,1
   1e048:	00813823          	sd	s0,16(sp)
   1e04c:	00913423          	sd	s1,8(sp)
   1e050:	00c51413          	slli	s0,a0,0xc
   1e054:	00113c23          	sd	ra,24(sp)
   1e058:	7fe77713          	andi	a4,a4,2046
   1e05c:	00c45413          	srli	s0,s0,0xc
   1e060:	03f55493          	srli	s1,a0,0x3f
   1e064:	04070463          	beqz	a4,1e0ac <__extenddftf2+0x74>
   1e068:	00004737          	lui	a4,0x4
   1e06c:	c0070713          	addi	a4,a4,-1024 # 3c00 <exit-0xc520>
   1e070:	00445593          	srli	a1,s0,0x4
   1e074:	00e787b3          	add	a5,a5,a4
   1e078:	03c41413          	slli	s0,s0,0x3c
   1e07c:	01813083          	ld	ra,24(sp)
   1e080:	00040513          	mv	a0,s0
   1e084:	00f4949b          	slliw	s1,s1,0xf
   1e088:	01013403          	ld	s0,16(sp)
   1e08c:	01059593          	slli	a1,a1,0x10
   1e090:	00f4e4b3          	or	s1,s1,a5
   1e094:	03049493          	slli	s1,s1,0x30
   1e098:	0105d593          	srli	a1,a1,0x10
   1e09c:	0095e5b3          	or	a1,a1,s1
   1e0a0:	00813483          	ld	s1,8(sp)
   1e0a4:	02010113          	addi	sp,sp,32
   1e0a8:	00008067          	ret
   1e0ac:	04079a63          	bnez	a5,1e100 <__extenddftf2+0xc8>
   1e0b0:	00000593          	li	a1,0
   1e0b4:	fc0404e3          	beqz	s0,1e07c <__extenddftf2+0x44>
   1e0b8:	00040513          	mv	a0,s0
   1e0bc:	190000ef          	jal	1e24c <__clzdi2>
   1e0c0:	0005071b          	sext.w	a4,a0
   1e0c4:	00e00793          	li	a5,14
   1e0c8:	02e7c463          	blt	a5,a4,1e0f0 <__extenddftf2+0xb8>
   1e0cc:	00f00593          	li	a1,15
   1e0d0:	40a585bb          	subw	a1,a1,a0
   1e0d4:	0315079b          	addiw	a5,a0,49
   1e0d8:	00b455b3          	srl	a1,s0,a1
   1e0dc:	00f41433          	sll	s0,s0,a5
   1e0e0:	000047b7          	lui	a5,0x4
   1e0e4:	c0c7879b          	addiw	a5,a5,-1012 # 3c0c <exit-0xc514>
   1e0e8:	40a787bb          	subw	a5,a5,a0
   1e0ec:	f91ff06f          	j	1e07c <__extenddftf2+0x44>
   1e0f0:	ff15059b          	addiw	a1,a0,-15
   1e0f4:	00b415b3          	sll	a1,s0,a1
   1e0f8:	00000413          	li	s0,0
   1e0fc:	fe5ff06f          	j	1e0e0 <__extenddftf2+0xa8>
   1e100:	00000593          	li	a1,0
   1e104:	00040c63          	beqz	s0,1e11c <__extenddftf2+0xe4>
   1e108:	00100793          	li	a5,1
   1e10c:	00445593          	srli	a1,s0,0x4
   1e110:	02f79793          	slli	a5,a5,0x2f
   1e114:	00f5e5b3          	or	a1,a1,a5
   1e118:	03c41413          	slli	s0,s0,0x3c
   1e11c:	000087b7          	lui	a5,0x8
   1e120:	fff78793          	addi	a5,a5,-1 # 7fff <exit-0x8121>
   1e124:	f59ff06f          	j	1e07c <__extenddftf2+0x44>

000000000001e128 <__muldi3>:
   1e128:	00050613          	mv	a2,a0
   1e12c:	00000513          	li	a0,0
   1e130:	0015f693          	andi	a3,a1,1
   1e134:	00068463          	beqz	a3,1e13c <__muldi3+0x14>
   1e138:	00c50533          	add	a0,a0,a2
   1e13c:	0015d593          	srli	a1,a1,0x1
   1e140:	00161613          	slli	a2,a2,0x1
   1e144:	fe0596e3          	bnez	a1,1e130 <__muldi3+0x8>
   1e148:	00008067          	ret

000000000001e14c <__udivsi3>:
   1e14c:	02051513          	slli	a0,a0,0x20
   1e150:	02059593          	slli	a1,a1,0x20
   1e154:	00008293          	mv	t0,ra
   1e158:	03c000ef          	jal	1e194 <__hidden___udivdi3>
   1e15c:	0005051b          	sext.w	a0,a0
   1e160:	00028067          	jr	t0 # 10c70 <memset+0xb4>

000000000001e164 <__umodsi3>:
   1e164:	02051513          	slli	a0,a0,0x20
   1e168:	02059593          	slli	a1,a1,0x20
   1e16c:	02055513          	srli	a0,a0,0x20
   1e170:	0205d593          	srli	a1,a1,0x20
   1e174:	00008293          	mv	t0,ra
   1e178:	01c000ef          	jal	1e194 <__hidden___udivdi3>
   1e17c:	0005851b          	sext.w	a0,a1
   1e180:	00028067          	jr	t0

000000000001e184 <__divsi3>:
   1e184:	fff00293          	li	t0,-1
   1e188:	0a558c63          	beq	a1,t0,1e240 <__moddi3+0x30>

000000000001e18c <__divdi3>:
   1e18c:	06054063          	bltz	a0,1e1ec <__umoddi3+0x10>
   1e190:	0605c663          	bltz	a1,1e1fc <__umoddi3+0x20>

000000000001e194 <__hidden___udivdi3>:
   1e194:	00058613          	mv	a2,a1
   1e198:	00050593          	mv	a1,a0
   1e19c:	fff00513          	li	a0,-1
   1e1a0:	02060c63          	beqz	a2,1e1d8 <__hidden___udivdi3+0x44>
   1e1a4:	00100693          	li	a3,1
   1e1a8:	00b67a63          	bgeu	a2,a1,1e1bc <__hidden___udivdi3+0x28>
   1e1ac:	00c05863          	blez	a2,1e1bc <__hidden___udivdi3+0x28>
   1e1b0:	00161613          	slli	a2,a2,0x1
   1e1b4:	00169693          	slli	a3,a3,0x1
   1e1b8:	feb66ae3          	bltu	a2,a1,1e1ac <__hidden___udivdi3+0x18>
   1e1bc:	00000513          	li	a0,0
   1e1c0:	00c5e663          	bltu	a1,a2,1e1cc <__hidden___udivdi3+0x38>
   1e1c4:	40c585b3          	sub	a1,a1,a2
   1e1c8:	00d56533          	or	a0,a0,a3
   1e1cc:	0016d693          	srli	a3,a3,0x1
   1e1d0:	00165613          	srli	a2,a2,0x1
   1e1d4:	fe0696e3          	bnez	a3,1e1c0 <__hidden___udivdi3+0x2c>
   1e1d8:	00008067          	ret

000000000001e1dc <__umoddi3>:
   1e1dc:	00008293          	mv	t0,ra
   1e1e0:	fb5ff0ef          	jal	1e194 <__hidden___udivdi3>
   1e1e4:	00058513          	mv	a0,a1
   1e1e8:	00028067          	jr	t0
   1e1ec:	40a00533          	neg	a0,a0
   1e1f0:	00b04863          	bgtz	a1,1e200 <__umoddi3+0x24>
   1e1f4:	40b005b3          	neg	a1,a1
   1e1f8:	f9dff06f          	j	1e194 <__hidden___udivdi3>
   1e1fc:	40b005b3          	neg	a1,a1
   1e200:	00008293          	mv	t0,ra
   1e204:	f91ff0ef          	jal	1e194 <__hidden___udivdi3>
   1e208:	40a00533          	neg	a0,a0
   1e20c:	00028067          	jr	t0

000000000001e210 <__moddi3>:
   1e210:	00008293          	mv	t0,ra
   1e214:	0005ca63          	bltz	a1,1e228 <__moddi3+0x18>
   1e218:	00054c63          	bltz	a0,1e230 <__moddi3+0x20>
   1e21c:	f79ff0ef          	jal	1e194 <__hidden___udivdi3>
   1e220:	00058513          	mv	a0,a1
   1e224:	00028067          	jr	t0
   1e228:	40b005b3          	neg	a1,a1
   1e22c:	fe0558e3          	bgez	a0,1e21c <__moddi3+0xc>
   1e230:	40a00533          	neg	a0,a0
   1e234:	f61ff0ef          	jal	1e194 <__hidden___udivdi3>
   1e238:	40b00533          	neg	a0,a1
   1e23c:	00028067          	jr	t0
   1e240:	01f29293          	slli	t0,t0,0x1f
   1e244:	f45514e3          	bne	a0,t0,1e18c <__divdi3>
   1e248:	00008067          	ret

000000000001e24c <__clzdi2>:
   1e24c:	03800793          	li	a5,56
   1e250:	00f55733          	srl	a4,a0,a5
   1e254:	0ff77693          	zext.b	a3,a4
   1e258:	02069663          	bnez	a3,1e284 <__clzdi2+0x38>
   1e25c:	ff878793          	addi	a5,a5,-8
   1e260:	fe0798e3          	bnez	a5,1e250 <__clzdi2+0x4>
   1e264:	04000713          	li	a4,64
   1e268:	40f70733          	sub	a4,a4,a5
   1e26c:	0001f7b7          	lui	a5,0x1f
   1e270:	9e078793          	addi	a5,a5,-1568 # 1e9e0 <__clz_tab>
   1e274:	00a787b3          	add	a5,a5,a0
   1e278:	0007c503          	lbu	a0,0(a5)
   1e27c:	40a7053b          	subw	a0,a4,a0
   1e280:	00008067          	ret
   1e284:	00070513          	mv	a0,a4
   1e288:	fddff06f          	j	1e264 <__clzdi2+0x18>
